ARM GAS  C:\Users\Heiwa\AppData\Local\Temp\ccuYQ69z.s 			page 1


   1              		.syntax unified
   2              		.cpu cortex-m3
   3              		.fpu softvfp
   4              		.eabi_attribute 20, 1
   5              		.eabi_attribute 21, 1
   6              		.eabi_attribute 23, 3
   7              		.eabi_attribute 24, 1
   8              		.eabi_attribute 25, 1
   9              		.eabi_attribute 26, 1
  10              		.eabi_attribute 30, 6
  11              		.eabi_attribute 18, 4
  12              		.thumb
  13              		.file	"CyLib.c"
  14              		.section	.debug_abbrev,"",%progbits
  15              	.Ldebug_abbrev0:
  16              		.section	.debug_info,"",%progbits
  17              	.Ldebug_info0:
  18              		.section	.debug_line,"",%progbits
  19              	.Ldebug_line0:
  20 0000 E6050000 		.text
  20      02005E00 
  20      00000201 
  20      FB0E0D00 
  20      01010101 
  21              	.Ltext0:
  22              		.cfi_sections	.debug_frame
  23              		.comm	CyResetStatus,1,1
  24              		.global	cydelay_freq_hz
  25              		.data
  26              		.align	2
  27              		.type	cydelay_freq_hz, %object
  28              		.size	cydelay_freq_hz, 4
  29              	cydelay_freq_hz:
  30 0000 00366E01 		.word	24000000
  31              		.global	cydelay_freq_khz
  32              		.align	2
  33              		.type	cydelay_freq_khz, %object
  34              		.size	cydelay_freq_khz, 4
  35              	cydelay_freq_khz:
  36 0004 C05D0000 		.word	24000
  37              		.global	cydelay_freq_mhz
  38              		.type	cydelay_freq_mhz, %object
  39              		.size	cydelay_freq_mhz, 1
  40              	cydelay_freq_mhz:
  41 0008 18       		.byte	24
  42              		.global	cydelay_32k_ms
  43 0009 000000   		.align	2
  44              		.type	cydelay_32k_ms, %object
  45              		.size	cydelay_32k_ms, 4
  46              	cydelay_32k_ms:
  47 000c 0000E02E 		.word	786432000
  48              		.section	.text.CyPLL_OUT_Start,"ax",%progbits
  49              		.align	2
  50              		.global	CyPLL_OUT_Start
  51              		.thumb
  52              		.thumb_func
  53              		.type	CyPLL_OUT_Start, %function
ARM GAS  C:\Users\Heiwa\AppData\Local\Temp\ccuYQ69z.s 			page 2


  54              	CyPLL_OUT_Start:
  55              	.LFB0:
  56              		.file 1 ".\\Generated_Source\\PSoC5\\CyLib.c"
   1:.\Generated_Source\PSoC5/CyLib.c **** /*******************************************************************************
   2:.\Generated_Source\PSoC5/CyLib.c **** * File Name: CyLib.c
   3:.\Generated_Source\PSoC5/CyLib.c **** * Version 3.10
   4:.\Generated_Source\PSoC5/CyLib.c **** *
   5:.\Generated_Source\PSoC5/CyLib.c **** *  Description:
   6:.\Generated_Source\PSoC5/CyLib.c **** *   Provides system API for the clocking, interrupts and watchdog timer.
   7:.\Generated_Source\PSoC5/CyLib.c **** *
   8:.\Generated_Source\PSoC5/CyLib.c **** *  Note:
   9:.\Generated_Source\PSoC5/CyLib.c **** *   Documentation of the API's in this file is located in the
  10:.\Generated_Source\PSoC5/CyLib.c **** *   System Reference Guide provided with PSoC Creator.
  11:.\Generated_Source\PSoC5/CyLib.c **** *
  12:.\Generated_Source\PSoC5/CyLib.c **** ********************************************************************************
  13:.\Generated_Source\PSoC5/CyLib.c **** * Copyright 2008-2012, Cypress Semiconductor Corporation.  All rights reserved.
  14:.\Generated_Source\PSoC5/CyLib.c **** * You may use this file only in accordance with the license, terms, conditions,
  15:.\Generated_Source\PSoC5/CyLib.c **** * disclaimers, and limitations in the end user license agreement accompanying
  16:.\Generated_Source\PSoC5/CyLib.c **** * the software package with which this file was provided.
  17:.\Generated_Source\PSoC5/CyLib.c **** *******************************************************************************/
  18:.\Generated_Source\PSoC5/CyLib.c **** 
  19:.\Generated_Source\PSoC5/CyLib.c **** #include "CyLib.h"
  20:.\Generated_Source\PSoC5/CyLib.c **** 
  21:.\Generated_Source\PSoC5/CyLib.c **** uint8 CYXDATA CyResetStatus;
  22:.\Generated_Source\PSoC5/CyLib.c **** 
  23:.\Generated_Source\PSoC5/CyLib.c **** uint32 cydelay_freq_hz  = BCLK__BUS_CLK__HZ;
  24:.\Generated_Source\PSoC5/CyLib.c **** uint32 cydelay_freq_khz = (BCLK__BUS_CLK__HZ + 999u) / 1000u;
  25:.\Generated_Source\PSoC5/CyLib.c **** uint8  cydelay_freq_mhz = (uint8)((BCLK__BUS_CLK__HZ + 999999u) / 1000000u);
  26:.\Generated_Source\PSoC5/CyLib.c **** uint32 cydelay_32k_ms   = 32768 * ((BCLK__BUS_CLK__HZ + 999u) / 1000u);
  27:.\Generated_Source\PSoC5/CyLib.c **** 
  28:.\Generated_Source\PSoC5/CyLib.c **** /* Function Prototypes */
  29:.\Generated_Source\PSoC5/CyLib.c **** uint8 CyUSB_PowerOnCheck(void)  ;
  30:.\Generated_Source\PSoC5/CyLib.c **** void CyIMO_SetTrimValue(uint8 freq) ;
  31:.\Generated_Source\PSoC5/CyLib.c **** void CyBusClk_Internal_SetDivider(uint16 divider);
  32:.\Generated_Source\PSoC5/CyLib.c **** 
  33:.\Generated_Source\PSoC5/CyLib.c **** 
  34:.\Generated_Source\PSoC5/CyLib.c **** /*******************************************************************************
  35:.\Generated_Source\PSoC5/CyLib.c **** * Function Name: CyPLL_OUT_Start
  36:.\Generated_Source\PSoC5/CyLib.c **** ********************************************************************************
  37:.\Generated_Source\PSoC5/CyLib.c **** *
  38:.\Generated_Source\PSoC5/CyLib.c **** * Summary:
  39:.\Generated_Source\PSoC5/CyLib.c **** *   Enables the PLL.  Optionally waits for it to become stable.
  40:.\Generated_Source\PSoC5/CyLib.c **** *   Waits at least 250 us or until it is detected that the PLL is stable.
  41:.\Generated_Source\PSoC5/CyLib.c **** *
  42:.\Generated_Source\PSoC5/CyLib.c **** * Parameters:
  43:.\Generated_Source\PSoC5/CyLib.c **** *   wait:
  44:.\Generated_Source\PSoC5/CyLib.c **** *    0: Return immediately after configuration
  45:.\Generated_Source\PSoC5/CyLib.c **** *    1: Wait for PLL lock or timeout.
  46:.\Generated_Source\PSoC5/CyLib.c **** *
  47:.\Generated_Source\PSoC5/CyLib.c **** * Return:
  48:.\Generated_Source\PSoC5/CyLib.c **** *   Status
  49:.\Generated_Source\PSoC5/CyLib.c **** *    CYRET_SUCCESS - Completed successfully
  50:.\Generated_Source\PSoC5/CyLib.c **** *    CYRET_TIMEOUT - Timeout occurred without detecting a stable clock.
  51:.\Generated_Source\PSoC5/CyLib.c **** *     If the input source of the clock is jittery, then the lock indication
  52:.\Generated_Source\PSoC5/CyLib.c **** *     may not occur.  However, after the timeout has expired the generated PLL
  53:.\Generated_Source\PSoC5/CyLib.c **** *     clock can still be used.
  54:.\Generated_Source\PSoC5/CyLib.c **** *
ARM GAS  C:\Users\Heiwa\AppData\Local\Temp\ccuYQ69z.s 			page 3


  55:.\Generated_Source\PSoC5/CyLib.c **** * Side Effects:
  56:.\Generated_Source\PSoC5/CyLib.c **** *  If wait is enabled: This function wses the Fast Time Wheel to time the wait.
  57:.\Generated_Source\PSoC5/CyLib.c **** *  Any other use of the Fast Time Wheel will be stopped during the period of
  58:.\Generated_Source\PSoC5/CyLib.c **** *  this function and then restored. This function also uses the 100 KHz ILO.
  59:.\Generated_Source\PSoC5/CyLib.c **** *  If not enabled, this function will enable the 100 KHz ILO for the period of
  60:.\Generated_Source\PSoC5/CyLib.c **** *  this function.
  61:.\Generated_Source\PSoC5/CyLib.c **** *
  62:.\Generated_Source\PSoC5/CyLib.c **** *  No changes to the setup of the ILO, Fast Time Wheel, Central Time Wheel or
  63:.\Generated_Source\PSoC5/CyLib.c **** *  Once Per Second interrupt may be made by interrupt routines during the period
  64:.\Generated_Source\PSoC5/CyLib.c **** *  of this function execution. The current operation of the ILO, Central Time
  65:.\Generated_Source\PSoC5/CyLib.c **** *  Wheel and Once Per Second interrupt are maintained during the operation of
  66:.\Generated_Source\PSoC5/CyLib.c **** *  this function provided the reading of the Power Manager Interrupt Status
  67:.\Generated_Source\PSoC5/CyLib.c **** *  Register is only done using the CyPmReadStatus() function.
  68:.\Generated_Source\PSoC5/CyLib.c **** *
  69:.\Generated_Source\PSoC5/CyLib.c **** *******************************************************************************/
  70:.\Generated_Source\PSoC5/CyLib.c **** cystatus CyPLL_OUT_Start(uint8 wait) 
  71:.\Generated_Source\PSoC5/CyLib.c **** {
  57              		.loc 1 71 0
  58              		.cfi_startproc
  59              		@ args = 0, pretend = 0, frame = 16
  60              		@ frame_needed = 1, uses_anonymous_args = 0
  61 0000 80B5     		push	{r7, lr}
  62              	.LCFI0:
  63              		.cfi_def_cfa_offset 8
  64 0002 84B0     		sub	sp, sp, #16
  65              	.LCFI1:
  66              		.cfi_def_cfa_offset 24
  67 0004 00AF     		add	r7, sp, #0
  68              		.cfi_offset 14, -4
  69              		.cfi_offset 7, -8
  70              	.LCFI2:
  71              		.cfi_def_cfa_register 7
  72 0006 0346     		mov	r3, r0
  73 0008 FB71     		strb	r3, [r7, #7]
  72:.\Generated_Source\PSoC5/CyLib.c ****     cystatus status = CYRET_SUCCESS;
  74              		.loc 1 72 0
  75 000a 4FF00003 		mov	r3, #0
  76 000e BB60     		str	r3, [r7, #8]
  73:.\Generated_Source\PSoC5/CyLib.c **** 
  74:.\Generated_Source\PSoC5/CyLib.c ****     uint8 iloEnableState;
  75:.\Generated_Source\PSoC5/CyLib.c ****     uint8 pmTwCfg0;
  76:.\Generated_Source\PSoC5/CyLib.c ****     uint8 pmTwCfg2;
  77:.\Generated_Source\PSoC5/CyLib.c **** 
  78:.\Generated_Source\PSoC5/CyLib.c **** 
  79:.\Generated_Source\PSoC5/CyLib.c ****     /* Enables the PLL circuit  */
  80:.\Generated_Source\PSoC5/CyLib.c ****     CY_CLK_PLL_CFG0_REG |= CY_CLK_PLL_ENABLE;
  77              		.loc 1 80 0
  78 0010 44F22023 		movw	r3, #:lower16:1073758752
  79 0014 C4F20003 		movt	r3, #:upper16:1073758752
  80 0018 44F22022 		movw	r2, #:lower16:1073758752
  81 001c C4F20002 		movt	r2, #:upper16:1073758752
  82 0020 1278     		ldrb	r2, [r2, #0]
  83 0022 D2B2     		uxtb	r2, r2
  84 0024 42F00102 		orr	r2, r2, #1
  85 0028 D2B2     		uxtb	r2, r2
  86 002a 1A70     		strb	r2, [r3, #0]
  81:.\Generated_Source\PSoC5/CyLib.c **** 
ARM GAS  C:\Users\Heiwa\AppData\Local\Temp\ccuYQ69z.s 			page 4


  82:.\Generated_Source\PSoC5/CyLib.c ****     if(wait != 0)
  87              		.loc 1 82 0
  88 002c FB79     		ldrb	r3, [r7, #7]	@ zero_extendqisi2
  89 002e 002B     		cmp	r3, #0
  90 0030 4DD0     		beq	.L2
  83:.\Generated_Source\PSoC5/CyLib.c ****     {
  84:.\Generated_Source\PSoC5/CyLib.c ****         /* Save 100 KHz ILO, FTW interval, enable and interrupt enable */
  85:.\Generated_Source\PSoC5/CyLib.c ****         iloEnableState = SLOWCLK_ILO_CR0;
  91              		.loc 1 85 0
  92 0032 44F20033 		movw	r3, #:lower16:1073758976
  93 0036 C4F20003 		movt	r3, #:upper16:1073758976
  94 003a 1B78     		ldrb	r3, [r3, #0]
  95 003c 7B73     		strb	r3, [r7, #13]
  86:.\Generated_Source\PSoC5/CyLib.c ****         pmTwCfg0 = CY_PM_TW_CFG0_REG;
  96              		.loc 1 86 0
  97 003e 44F28033 		movw	r3, #:lower16:1073759104
  98 0042 C4F20003 		movt	r3, #:upper16:1073759104
  99 0046 1B78     		ldrb	r3, [r3, #0]
 100 0048 BB73     		strb	r3, [r7, #14]
  87:.\Generated_Source\PSoC5/CyLib.c ****         pmTwCfg2 = CY_PM_TW_CFG2_REG;
 101              		.loc 1 87 0
 102 004a 44F28233 		movw	r3, #:lower16:1073759106
 103 004e C4F20003 		movt	r3, #:upper16:1073759106
 104 0052 1B78     		ldrb	r3, [r3, #0]
 105 0054 FB73     		strb	r3, [r7, #15]
  88:.\Generated_Source\PSoC5/CyLib.c **** 
  89:.\Generated_Source\PSoC5/CyLib.c ****         CyPmFtwSetInterval(CY_CLK_PLL_FTW_INTERVAL);
 106              		.loc 1 89 0
 107 0056 4FF01800 		mov	r0, #24
 108 005a FFF7FEFF 		bl	CyPmFtwSetInterval
  90:.\Generated_Source\PSoC5/CyLib.c **** 
  91:.\Generated_Source\PSoC5/CyLib.c ****         status = CYRET_TIMEOUT;
 109              		.loc 1 91 0
 110 005e 4FF01003 		mov	r3, #16
 111 0062 BB60     		str	r3, [r7, #8]
  92:.\Generated_Source\PSoC5/CyLib.c **** 
  93:.\Generated_Source\PSoC5/CyLib.c **** 
  94:.\Generated_Source\PSoC5/CyLib.c ****         while(CyPmReadStatus(CY_PM_FTW_INT) != CY_PM_FTW_INT)
 112              		.loc 1 94 0
 113 0064 19E0     		b	.L3
 114              	.L5:
  95:.\Generated_Source\PSoC5/CyLib.c ****         {
  96:.\Generated_Source\PSoC5/CyLib.c ****             /* Wait for the interrupt status */
  97:.\Generated_Source\PSoC5/CyLib.c ****             if(0u != (CY_CLK_PLL_SR_REG & CY_CLK_PLL_LOCK_STATUS))
 115              		.loc 1 97 0
 116 0066 44F22523 		movw	r3, #:lower16:1073758757
 117 006a C4F20003 		movt	r3, #:upper16:1073758757
 118 006e 1B78     		ldrb	r3, [r3, #0]
 119 0070 DBB2     		uxtb	r3, r3
 120 0072 03F00103 		and	r3, r3, #1
 121 0076 DBB2     		uxtb	r3, r3
 122 0078 002B     		cmp	r3, #0
 123 007a 0ED0     		beq	.L3
  98:.\Generated_Source\PSoC5/CyLib.c ****             {
  99:.\Generated_Source\PSoC5/CyLib.c ****                 if(0u != (CY_CLK_PLL_SR_REG & CY_CLK_PLL_LOCK_STATUS))
 124              		.loc 1 99 0
 125 007c 44F22523 		movw	r3, #:lower16:1073758757
ARM GAS  C:\Users\Heiwa\AppData\Local\Temp\ccuYQ69z.s 			page 5


 126 0080 C4F20003 		movt	r3, #:upper16:1073758757
 127 0084 1B78     		ldrb	r3, [r3, #0]
 128 0086 DBB2     		uxtb	r3, r3
 129 0088 03F00103 		and	r3, r3, #1
 130 008c DBB2     		uxtb	r3, r3
 131 008e 002B     		cmp	r3, #0
 132 0090 03D0     		beq	.L3
 100:.\Generated_Source\PSoC5/CyLib.c ****                 {
 101:.\Generated_Source\PSoC5/CyLib.c ****                     status = CYRET_SUCCESS;
 133              		.loc 1 101 0
 134 0092 4FF00003 		mov	r3, #0
 135 0096 BB60     		str	r3, [r7, #8]
 102:.\Generated_Source\PSoC5/CyLib.c ****                     break;
 136              		.loc 1 102 0
 137 0098 06E0     		b	.L4
 138              	.L3:
 139              		.loc 1 94 0
 140 009a 4FF00100 		mov	r0, #1
 141 009e FFF7FEFF 		bl	CyPmReadStatus
 142 00a2 0346     		mov	r3, r0
 143 00a4 012B     		cmp	r3, #1
 144 00a6 DED1     		bne	.L5
 145              	.L4:
 103:.\Generated_Source\PSoC5/CyLib.c ****                 }
 104:.\Generated_Source\PSoC5/CyLib.c ****             }
 105:.\Generated_Source\PSoC5/CyLib.c ****         }
 106:.\Generated_Source\PSoC5/CyLib.c **** 
 107:.\Generated_Source\PSoC5/CyLib.c **** 
 108:.\Generated_Source\PSoC5/CyLib.c ****         /* Restore 100 KHz ILO, FTW interval, enable and interrupt enable */
 109:.\Generated_Source\PSoC5/CyLib.c ****         if(0u == (iloEnableState & ILO_CONTROL_100KHZ_ON))
 146              		.loc 1 109 0
 147 00a8 7B7B     		ldrb	r3, [r7, #13]	@ zero_extendqisi2
 148 00aa 03F00403 		and	r3, r3, #4
 149 00ae 002B     		cmp	r3, #0
 150 00b0 01D1     		bne	.L6
 110:.\Generated_Source\PSoC5/CyLib.c ****         {
 111:.\Generated_Source\PSoC5/CyLib.c ****             CyILO_Stop100K();
 151              		.loc 1 111 0
 152 00b2 FFF7FEFF 		bl	CyILO_Stop100K
 153              	.L6:
 112:.\Generated_Source\PSoC5/CyLib.c ****         }
 113:.\Generated_Source\PSoC5/CyLib.c ****         CY_PM_TW_CFG0_REG = pmTwCfg0;
 154              		.loc 1 113 0
 155 00b6 44F28033 		movw	r3, #:lower16:1073759104
 156 00ba C4F20003 		movt	r3, #:upper16:1073759104
 157 00be BA7B     		ldrb	r2, [r7, #14]
 158 00c0 1A70     		strb	r2, [r3, #0]
 114:.\Generated_Source\PSoC5/CyLib.c ****         CY_PM_TW_CFG2_REG = pmTwCfg2;
 159              		.loc 1 114 0
 160 00c2 44F28233 		movw	r3, #:lower16:1073759106
 161 00c6 C4F20003 		movt	r3, #:upper16:1073759106
 162 00ca FA7B     		ldrb	r2, [r7, #15]
 163 00cc 1A70     		strb	r2, [r3, #0]
 164              	.L2:
 115:.\Generated_Source\PSoC5/CyLib.c ****     }
 116:.\Generated_Source\PSoC5/CyLib.c **** 
 117:.\Generated_Source\PSoC5/CyLib.c ****     return(status);
ARM GAS  C:\Users\Heiwa\AppData\Local\Temp\ccuYQ69z.s 			page 6


 165              		.loc 1 117 0
 166 00ce BB68     		ldr	r3, [r7, #8]
 118:.\Generated_Source\PSoC5/CyLib.c **** }
 167              		.loc 1 118 0
 168 00d0 1846     		mov	r0, r3
 169 00d2 07F11007 		add	r7, r7, #16
 170 00d6 BD46     		mov	sp, r7
 171 00d8 80BD     		pop	{r7, pc}
 172              		.cfi_endproc
 173              	.LFE0:
 174              		.size	CyPLL_OUT_Start, .-CyPLL_OUT_Start
 175 00da 00BF     		.section	.text.CyPLL_OUT_Stop,"ax",%progbits
 176              		.align	2
 177              		.global	CyPLL_OUT_Stop
 178              		.thumb
 179              		.thumb_func
 180              		.type	CyPLL_OUT_Stop, %function
 181              	CyPLL_OUT_Stop:
 182              	.LFB1:
 119:.\Generated_Source\PSoC5/CyLib.c **** 
 120:.\Generated_Source\PSoC5/CyLib.c **** 
 121:.\Generated_Source\PSoC5/CyLib.c **** /*******************************************************************************
 122:.\Generated_Source\PSoC5/CyLib.c **** * Function Name: CyPLL_OUT_Stop
 123:.\Generated_Source\PSoC5/CyLib.c **** ********************************************************************************
 124:.\Generated_Source\PSoC5/CyLib.c **** *
 125:.\Generated_Source\PSoC5/CyLib.c **** * Summary:
 126:.\Generated_Source\PSoC5/CyLib.c **** *  Disables the PLL.
 127:.\Generated_Source\PSoC5/CyLib.c **** *
 128:.\Generated_Source\PSoC5/CyLib.c **** * Parameters:
 129:.\Generated_Source\PSoC5/CyLib.c **** *  None
 130:.\Generated_Source\PSoC5/CyLib.c **** *
 131:.\Generated_Source\PSoC5/CyLib.c **** * Return:
 132:.\Generated_Source\PSoC5/CyLib.c **** *  None
 133:.\Generated_Source\PSoC5/CyLib.c **** *
 134:.\Generated_Source\PSoC5/CyLib.c **** *******************************************************************************/
 135:.\Generated_Source\PSoC5/CyLib.c **** void CyPLL_OUT_Stop(void) 
 136:.\Generated_Source\PSoC5/CyLib.c **** {
 183              		.loc 1 136 0
 184              		.cfi_startproc
 185              		@ args = 0, pretend = 0, frame = 0
 186              		@ frame_needed = 1, uses_anonymous_args = 0
 187              		@ link register save eliminated.
 188 0000 80B4     		push	{r7}
 189              	.LCFI3:
 190              		.cfi_def_cfa_offset 4
 191 0002 00AF     		add	r7, sp, #0
 192              		.cfi_offset 7, -4
 193              	.LCFI4:
 194              		.cfi_def_cfa_register 7
 137:.\Generated_Source\PSoC5/CyLib.c ****     CY_CLK_PLL_CFG0_REG &= ~CY_CLK_PLL_ENABLE;
 195              		.loc 1 137 0
 196 0004 44F22023 		movw	r3, #:lower16:1073758752
 197 0008 C4F20003 		movt	r3, #:upper16:1073758752
 198 000c 44F22022 		movw	r2, #:lower16:1073758752
 199 0010 C4F20002 		movt	r2, #:upper16:1073758752
 200 0014 1278     		ldrb	r2, [r2, #0]
 201 0016 D2B2     		uxtb	r2, r2
ARM GAS  C:\Users\Heiwa\AppData\Local\Temp\ccuYQ69z.s 			page 7


 202 0018 02F0FE02 		and	r2, r2, #254
 203 001c 1A70     		strb	r2, [r3, #0]
 138:.\Generated_Source\PSoC5/CyLib.c **** }
 204              		.loc 1 138 0
 205 001e BD46     		mov	sp, r7
 206 0020 80BC     		pop	{r7}
 207 0022 7047     		bx	lr
 208              		.cfi_endproc
 209              	.LFE1:
 210              		.size	CyPLL_OUT_Stop, .-CyPLL_OUT_Stop
 211              		.section	.text.CyPLL_OUT_SetPQ,"ax",%progbits
 212              		.align	2
 213              		.global	CyPLL_OUT_SetPQ
 214              		.thumb
 215              		.thumb_func
 216              		.type	CyPLL_OUT_SetPQ, %function
 217              	CyPLL_OUT_SetPQ:
 218              	.LFB2:
 139:.\Generated_Source\PSoC5/CyLib.c **** 
 140:.\Generated_Source\PSoC5/CyLib.c **** 
 141:.\Generated_Source\PSoC5/CyLib.c **** /*******************************************************************************
 142:.\Generated_Source\PSoC5/CyLib.c **** * Function Name: CyPLL_OUT_SetPQ
 143:.\Generated_Source\PSoC5/CyLib.c **** ********************************************************************************
 144:.\Generated_Source\PSoC5/CyLib.c **** *
 145:.\Generated_Source\PSoC5/CyLib.c **** * Summary:
 146:.\Generated_Source\PSoC5/CyLib.c **** *  Sets the P and Q dividers and the charge pump current.
 147:.\Generated_Source\PSoC5/CyLib.c **** *  The Frequency Out will be P/Q * Frequency In.
 148:.\Generated_Source\PSoC5/CyLib.c **** *  The PLL must be disabled before calling this function.
 149:.\Generated_Source\PSoC5/CyLib.c **** *
 150:.\Generated_Source\PSoC5/CyLib.c **** * Parameters:
 151:.\Generated_Source\PSoC5/CyLib.c **** *  uint8 P:
 152:.\Generated_Source\PSoC5/CyLib.c **** *   Valid range [8 - 255].
 153:.\Generated_Source\PSoC5/CyLib.c **** *
 154:.\Generated_Source\PSoC5/CyLib.c **** *  uint8 Q:
 155:.\Generated_Source\PSoC5/CyLib.c **** *   Valid range [1 - 16]. Input Frequency / Q must be in range of 1 to 3 MHz.
 156:.\Generated_Source\PSoC5/CyLib.c **** 
 157:.\Generated_Source\PSoC5/CyLib.c **** *  uint8 current:
 158:.\Generated_Source\PSoC5/CyLib.c **** *   Valid range [1 - 7]. Charge pump current in uA. Refer to the device TRM and
 159:.\Generated_Source\PSoC5/CyLib.c **** *   datasheet for more information.
 160:.\Generated_Source\PSoC5/CyLib.c **** *
 161:.\Generated_Source\PSoC5/CyLib.c **** * Return:
 162:.\Generated_Source\PSoC5/CyLib.c **** *  None
 163:.\Generated_Source\PSoC5/CyLib.c **** *
 164:.\Generated_Source\PSoC5/CyLib.c **** * Side Effects:
 165:.\Generated_Source\PSoC5/CyLib.c **** *  If as result of this function execution the CPU clock frequency is increased
 166:.\Generated_Source\PSoC5/CyLib.c **** *  then the number of clock cycles the cache will wait before it samples data
 167:.\Generated_Source\PSoC5/CyLib.c **** *  coming back from Flash must be adjusted by calling CyFlash_SetWaitCycles()
 168:.\Generated_Source\PSoC5/CyLib.c **** *  with appropriate parameter. It can be optionally called if CPU clock
 169:.\Generated_Source\PSoC5/CyLib.c **** *  frequency is lowered in order to improve CPU performance.
 170:.\Generated_Source\PSoC5/CyLib.c **** *  See CyFlash_SetWaitCycles() description for more information.
 171:.\Generated_Source\PSoC5/CyLib.c **** *
 172:.\Generated_Source\PSoC5/CyLib.c **** *******************************************************************************/
 173:.\Generated_Source\PSoC5/CyLib.c **** void CyPLL_OUT_SetPQ(uint8 P, uint8 Q, uint8 current) 
 174:.\Generated_Source\PSoC5/CyLib.c **** {
 219              		.loc 1 174 0
 220              		.cfi_startproc
 221              		@ args = 0, pretend = 0, frame = 8
ARM GAS  C:\Users\Heiwa\AppData\Local\Temp\ccuYQ69z.s 			page 8


 222              		@ frame_needed = 1, uses_anonymous_args = 0
 223 0000 80B5     		push	{r7, lr}
 224              	.LCFI5:
 225              		.cfi_def_cfa_offset 8
 226 0002 82B0     		sub	sp, sp, #8
 227              	.LCFI6:
 228              		.cfi_def_cfa_offset 16
 229 0004 00AF     		add	r7, sp, #0
 230              		.cfi_offset 14, -4
 231              		.cfi_offset 7, -8
 232              	.LCFI7:
 233              		.cfi_def_cfa_register 7
 234 0006 1346     		mov	r3, r2
 235 0008 0246     		mov	r2, r0
 236 000a FA71     		strb	r2, [r7, #7]
 237 000c 0A46     		mov	r2, r1
 238 000e BA71     		strb	r2, [r7, #6]
 239 0010 7B71     		strb	r3, [r7, #5]
 175:.\Generated_Source\PSoC5/CyLib.c ****     /* Halt CPU in debug mode if PLL is enabled */
 176:.\Generated_Source\PSoC5/CyLib.c ****     CYASSERT(0u == (CY_CLK_PLL_CFG0_REG & CY_CLK_PLL_ENABLE));
 240              		.loc 1 176 0
 241 0012 44F22023 		movw	r3, #:lower16:1073758752
 242 0016 C4F20003 		movt	r3, #:upper16:1073758752
 243 001a 1B78     		ldrb	r3, [r3, #0]
 244 001c DBB2     		uxtb	r3, r3
 245 001e 03F00103 		and	r3, r3, #1
 246 0022 002B     		cmp	r3, #0
 247 0024 0ED0     		beq	.L11
 248 0026 44F22023 		movw	r3, #:lower16:1073758752
 249 002a C4F20003 		movt	r3, #:upper16:1073758752
 250 002e 1B78     		ldrb	r3, [r3, #0]
 251 0030 DBB2     		uxtb	r3, r3
 252 0032 03F00103 		and	r3, r3, #1
 253 0036 002B     		cmp	r3, #0
 254 0038 14BF     		ite	ne
 255 003a 0023     		movne	r3, #0
 256 003c 0123     		moveq	r3, #1
 257 003e 1846     		mov	r0, r3
 258 0040 FFF7FEFF 		bl	CyHalt
 259              	.L11:
 177:.\Generated_Source\PSoC5/CyLib.c **** 
 178:.\Generated_Source\PSoC5/CyLib.c ****     /* Halt CPU in debug mode if P divider is less than required */
 179:.\Generated_Source\PSoC5/CyLib.c ****     CYASSERT(P >= CY_CLK_PLL_MIN_P_VALUE);
 260              		.loc 1 179 0
 261 0044 FB79     		ldrb	r3, [r7, #7]	@ zero_extendqisi2
 262 0046 072B     		cmp	r3, #7
 263 0048 07D8     		bhi	.L12
 264 004a FB79     		ldrb	r3, [r7, #7]	@ zero_extendqisi2
 265 004c 072B     		cmp	r3, #7
 266 004e 94BF     		ite	ls
 267 0050 0023     		movls	r3, #0
 268 0052 0123     		movhi	r3, #1
 269 0054 1846     		mov	r0, r3
 270 0056 FFF7FEFF 		bl	CyHalt
 271              	.L12:
 180:.\Generated_Source\PSoC5/CyLib.c **** 
 181:.\Generated_Source\PSoC5/CyLib.c ****     /* Halt CPU in debug mode if Q divider is out of range */
ARM GAS  C:\Users\Heiwa\AppData\Local\Temp\ccuYQ69z.s 			page 9


 182:.\Generated_Source\PSoC5/CyLib.c ****     CYASSERT((Q <= CY_CLK_PLL_MAX_Q_VALUE) && (Q >= CY_CLK_PLL_MIN_Q_VALUE));
 272              		.loc 1 182 0
 273 005a BB79     		ldrb	r3, [r7, #6]	@ zero_extendqisi2
 274 005c 102B     		cmp	r3, #16
 275 005e 02D8     		bhi	.L13
 276 0060 BB79     		ldrb	r3, [r7, #6]	@ zero_extendqisi2
 277 0062 002B     		cmp	r3, #0
 278 0064 0ED1     		bne	.L14
 279              	.L13:
 280 0066 BB79     		ldrb	r3, [r7, #6]	@ zero_extendqisi2
 281 0068 102B     		cmp	r3, #16
 282 006a 05D8     		bhi	.L15
 283 006c BB79     		ldrb	r3, [r7, #6]	@ zero_extendqisi2
 284 006e 002B     		cmp	r3, #0
 285 0070 02D0     		beq	.L15
 286 0072 4FF00103 		mov	r3, #1
 287 0076 01E0     		b	.L16
 288              	.L15:
 289 0078 4FF00003 		mov	r3, #0
 290              	.L16:
 291 007c DBB2     		uxtb	r3, r3
 292 007e 1846     		mov	r0, r3
 293 0080 FFF7FEFF 		bl	CyHalt
 294              	.L14:
 183:.\Generated_Source\PSoC5/CyLib.c **** 
 184:.\Generated_Source\PSoC5/CyLib.c ****     /* Halt CPU in debug mode if pump current is out of range */
 185:.\Generated_Source\PSoC5/CyLib.c ****     CYASSERT((current >= CY_CLK_PLL_MIN_CUR_VALUE) && (current <= CY_CLK_PLL_MAX_CUR_VALUE));
 295              		.loc 1 185 0
 296 0084 7B79     		ldrb	r3, [r7, #5]	@ zero_extendqisi2
 297 0086 002B     		cmp	r3, #0
 298 0088 02D0     		beq	.L17
 299 008a 7B79     		ldrb	r3, [r7, #5]	@ zero_extendqisi2
 300 008c 072B     		cmp	r3, #7
 301 008e 0ED9     		bls	.L18
 302              	.L17:
 303 0090 7B79     		ldrb	r3, [r7, #5]	@ zero_extendqisi2
 304 0092 002B     		cmp	r3, #0
 305 0094 05D0     		beq	.L19
 306 0096 7B79     		ldrb	r3, [r7, #5]	@ zero_extendqisi2
 307 0098 072B     		cmp	r3, #7
 308 009a 02D8     		bhi	.L19
 309 009c 4FF00103 		mov	r3, #1
 310 00a0 01E0     		b	.L20
 311              	.L19:
 312 00a2 4FF00003 		mov	r3, #0
 313              	.L20:
 314 00a6 DBB2     		uxtb	r3, r3
 315 00a8 1846     		mov	r0, r3
 316 00aa FFF7FEFF 		bl	CyHalt
 317              	.L18:
 186:.\Generated_Source\PSoC5/CyLib.c **** 
 187:.\Generated_Source\PSoC5/CyLib.c **** 
 188:.\Generated_Source\PSoC5/CyLib.c ****     /* Set new values */
 189:.\Generated_Source\PSoC5/CyLib.c ****     CY_CLK_PLL_P_REG = P;
 318              		.loc 1 189 0
 319 00ae 44F22223 		movw	r3, #:lower16:1073758754
 320 00b2 C4F20003 		movt	r3, #:upper16:1073758754
ARM GAS  C:\Users\Heiwa\AppData\Local\Temp\ccuYQ69z.s 			page 10


 321 00b6 FA79     		ldrb	r2, [r7, #7]
 322 00b8 1A70     		strb	r2, [r3, #0]
 190:.\Generated_Source\PSoC5/CyLib.c ****     CY_CLK_PLL_Q_REG = Q - 1;
 323              		.loc 1 190 0
 324 00ba 44F22323 		movw	r3, #:lower16:1073758755
 325 00be C4F20003 		movt	r3, #:upper16:1073758755
 326 00c2 BA79     		ldrb	r2, [r7, #6]
 327 00c4 02F1FF32 		add	r2, r2, #-1
 328 00c8 D2B2     		uxtb	r2, r2
 329 00ca 1A70     		strb	r2, [r3, #0]
 191:.\Generated_Source\PSoC5/CyLib.c ****     CY_CLK_PLL_CFG1_REG = (CY_CLK_PLL_CFG1_REG & CY_CLK_PLL_CURRENT_MASK) |
 330              		.loc 1 191 0
 331 00cc 44F22123 		movw	r3, #:lower16:1073758753
 332 00d0 C4F20003 		movt	r3, #:upper16:1073758753
 333 00d4 44F22122 		movw	r2, #:lower16:1073758753
 334 00d8 C4F20002 		movt	r2, #:upper16:1073758753
 335 00dc 1278     		ldrb	r2, [r2, #0]
 336 00de D2B2     		uxtb	r2, r2
 337 00e0 02F08F02 		and	r2, r2, #143
 338 00e4 7979     		ldrb	r1, [r7, #5]
 339 00e6 01F1FF31 		add	r1, r1, #-1
 340 00ea C9B2     		uxtb	r1, r1
 341 00ec 4FEA0111 		lsl	r1, r1, #4
 342 00f0 C9B2     		uxtb	r1, r1
 343 00f2 42EA0102 		orr	r2, r2, r1
 344 00f6 D2B2     		uxtb	r2, r2
 345 00f8 1A70     		strb	r2, [r3, #0]
 192:.\Generated_Source\PSoC5/CyLib.c ****                             ((current - 1) << CY_CLK_PLL_CURRENT_POSITION);
 193:.\Generated_Source\PSoC5/CyLib.c **** }
 346              		.loc 1 193 0
 347 00fa 07F10807 		add	r7, r7, #8
 348 00fe BD46     		mov	sp, r7
 349 0100 80BD     		pop	{r7, pc}
 350              		.cfi_endproc
 351              	.LFE2:
 352              		.size	CyPLL_OUT_SetPQ, .-CyPLL_OUT_SetPQ
 353 0102 00BF     		.section	.text.CyPLL_OUT_SetSource,"ax",%progbits
 354              		.align	2
 355              		.global	CyPLL_OUT_SetSource
 356              		.thumb
 357              		.thumb_func
 358              		.type	CyPLL_OUT_SetSource, %function
 359              	CyPLL_OUT_SetSource:
 360              	.LFB3:
 194:.\Generated_Source\PSoC5/CyLib.c **** 
 195:.\Generated_Source\PSoC5/CyLib.c **** 
 196:.\Generated_Source\PSoC5/CyLib.c **** /*******************************************************************************
 197:.\Generated_Source\PSoC5/CyLib.c **** * Function Name: CyPLL_OUT_SetSource
 198:.\Generated_Source\PSoC5/CyLib.c **** ********************************************************************************
 199:.\Generated_Source\PSoC5/CyLib.c **** *
 200:.\Generated_Source\PSoC5/CyLib.c **** * Summary:
 201:.\Generated_Source\PSoC5/CyLib.c **** *  Sets the input clock source to the PLL. The PLL must be disabled before
 202:.\Generated_Source\PSoC5/CyLib.c **** *  calling this function.
 203:.\Generated_Source\PSoC5/CyLib.c **** *
 204:.\Generated_Source\PSoC5/CyLib.c **** * Parameters:
 205:.\Generated_Source\PSoC5/CyLib.c **** *   source: One of the three available PLL clock sources
 206:.\Generated_Source\PSoC5/CyLib.c **** *            0 :        IMO
ARM GAS  C:\Users\Heiwa\AppData\Local\Temp\ccuYQ69z.s 			page 11


 207:.\Generated_Source\PSoC5/CyLib.c **** *            1 :        MHz Crystal
 208:.\Generated_Source\PSoC5/CyLib.c **** *            2 :        DSI
 209:.\Generated_Source\PSoC5/CyLib.c **** *
 210:.\Generated_Source\PSoC5/CyLib.c **** * Return:
 211:.\Generated_Source\PSoC5/CyLib.c **** *  None
 212:.\Generated_Source\PSoC5/CyLib.c **** *
 213:.\Generated_Source\PSoC5/CyLib.c **** * Side Effects:
 214:.\Generated_Source\PSoC5/CyLib.c **** *  If as result of this function execution the CPU clock frequency is increased
 215:.\Generated_Source\PSoC5/CyLib.c **** *  then the number of clock cycles the cache will wait before it samples data
 216:.\Generated_Source\PSoC5/CyLib.c **** *  coming back from Flash must be adjusted by calling CyFlash_SetWaitCycles()
 217:.\Generated_Source\PSoC5/CyLib.c **** *  with appropriate parameter. It can be optionally called if CPU clock
 218:.\Generated_Source\PSoC5/CyLib.c **** *  frequency is lowered in order to improve CPU performance.
 219:.\Generated_Source\PSoC5/CyLib.c **** *  See CyFlash_SetWaitCycles() description for more information.
 220:.\Generated_Source\PSoC5/CyLib.c **** *
 221:.\Generated_Source\PSoC5/CyLib.c **** *******************************************************************************/
 222:.\Generated_Source\PSoC5/CyLib.c **** void CyPLL_OUT_SetSource(uint8 source) 
 223:.\Generated_Source\PSoC5/CyLib.c **** {
 361              		.loc 1 223 0
 362              		.cfi_startproc
 363              		@ args = 0, pretend = 0, frame = 8
 364              		@ frame_needed = 1, uses_anonymous_args = 0
 365 0000 80B5     		push	{r7, lr}
 366              	.LCFI8:
 367              		.cfi_def_cfa_offset 8
 368 0002 82B0     		sub	sp, sp, #8
 369              	.LCFI9:
 370              		.cfi_def_cfa_offset 16
 371 0004 00AF     		add	r7, sp, #0
 372              		.cfi_offset 14, -4
 373              		.cfi_offset 7, -8
 374              	.LCFI10:
 375              		.cfi_def_cfa_register 7
 376 0006 0346     		mov	r3, r0
 377 0008 FB71     		strb	r3, [r7, #7]
 224:.\Generated_Source\PSoC5/CyLib.c ****     /* Halt CPU in debug mode if PLL is enabled */
 225:.\Generated_Source\PSoC5/CyLib.c ****     CYASSERT(0u == (CY_CLK_PLL_CFG0_REG & CY_CLK_PLL_ENABLE));
 378              		.loc 1 225 0
 379 000a 44F22023 		movw	r3, #:lower16:1073758752
 380 000e C4F20003 		movt	r3, #:upper16:1073758752
 381 0012 1B78     		ldrb	r3, [r3, #0]
 382 0014 DBB2     		uxtb	r3, r3
 383 0016 03F00103 		and	r3, r3, #1
 384 001a 002B     		cmp	r3, #0
 385 001c 0ED0     		beq	.L23
 386 001e 44F22023 		movw	r3, #:lower16:1073758752
 387 0022 C4F20003 		movt	r3, #:upper16:1073758752
 388 0026 1B78     		ldrb	r3, [r3, #0]
 389 0028 DBB2     		uxtb	r3, r3
 390 002a 03F00103 		and	r3, r3, #1
 391 002e 002B     		cmp	r3, #0
 392 0030 14BF     		ite	ne
 393 0032 0023     		movne	r3, #0
 394 0034 0123     		moveq	r3, #1
 395 0036 1846     		mov	r0, r3
 396 0038 FFF7FEFF 		bl	CyHalt
 397              	.L23:
 226:.\Generated_Source\PSoC5/CyLib.c **** 
ARM GAS  C:\Users\Heiwa\AppData\Local\Temp\ccuYQ69z.s 			page 12


 227:.\Generated_Source\PSoC5/CyLib.c ****     switch(source)
 398              		.loc 1 227 0
 399 003c FB79     		ldrb	r3, [r7, #7]	@ zero_extendqisi2
 400 003e 03F10003 		add	r3, r3, #0
 401 0042 022B     		cmp	r3, #2
 402 0044 11D8     		bhi	.L24
 228:.\Generated_Source\PSoC5/CyLib.c ****     {
 229:.\Generated_Source\PSoC5/CyLib.c ****         case CY_PLL_SOURCE_IMO:
 230:.\Generated_Source\PSoC5/CyLib.c ****         case CY_PLL_SOURCE_XTAL:
 231:.\Generated_Source\PSoC5/CyLib.c ****         case CY_PLL_SOURCE_DSI:
 232:.\Generated_Source\PSoC5/CyLib.c ****             CLKDIST_CR = ((CLKDIST_CR & CLOCK_CONTROL_DIST_MASK) | source);
 403              		.loc 1 232 0
 404 0046 44F20003 		movw	r3, #:lower16:1073758208
 405 004a C4F20003 		movt	r3, #:upper16:1073758208
 406 004e 44F20002 		movw	r2, #:lower16:1073758208
 407 0052 C4F20002 		movt	r2, #:upper16:1073758208
 408 0056 1278     		ldrb	r2, [r2, #0]
 409 0058 D2B2     		uxtb	r2, r2
 410 005a 02F0FC02 		and	r2, r2, #252
 411 005e F979     		ldrb	r1, [r7, #7]
 412 0060 42EA0102 		orr	r2, r2, r1
 413 0064 D2B2     		uxtb	r2, r2
 414 0066 1A70     		strb	r2, [r3, #0]
 233:.\Generated_Source\PSoC5/CyLib.c ****         break;
 415              		.loc 1 233 0
 416 0068 03E0     		b	.L27
 417              	.L24:
 234:.\Generated_Source\PSoC5/CyLib.c **** 
 235:.\Generated_Source\PSoC5/CyLib.c ****         default:
 236:.\Generated_Source\PSoC5/CyLib.c ****             CYASSERT(0);
 418              		.loc 1 236 0
 419 006a 4FF00000 		mov	r0, #0
 420 006e FFF7FEFF 		bl	CyHalt
 421              	.L27:
 237:.\Generated_Source\PSoC5/CyLib.c ****         break;
 238:.\Generated_Source\PSoC5/CyLib.c ****     }
 239:.\Generated_Source\PSoC5/CyLib.c **** }
 422              		.loc 1 239 0
 423 0072 07F10807 		add	r7, r7, #8
 424 0076 BD46     		mov	sp, r7
 425 0078 80BD     		pop	{r7, pc}
 426              		.cfi_endproc
 427              	.LFE3:
 428              		.size	CyPLL_OUT_SetSource, .-CyPLL_OUT_SetSource
 429 007a 00BF     		.section	.text.CyIMO_Start,"ax",%progbits
 430              		.align	2
 431              		.global	CyIMO_Start
 432              		.thumb
 433              		.thumb_func
 434              		.type	CyIMO_Start, %function
 435              	CyIMO_Start:
 436              	.LFB4:
 240:.\Generated_Source\PSoC5/CyLib.c **** 
 241:.\Generated_Source\PSoC5/CyLib.c **** 
 242:.\Generated_Source\PSoC5/CyLib.c **** /*******************************************************************************
 243:.\Generated_Source\PSoC5/CyLib.c **** * Function Name: CyIMO_Start
 244:.\Generated_Source\PSoC5/CyLib.c **** ********************************************************************************
ARM GAS  C:\Users\Heiwa\AppData\Local\Temp\ccuYQ69z.s 			page 13


 245:.\Generated_Source\PSoC5/CyLib.c **** *
 246:.\Generated_Source\PSoC5/CyLib.c **** * Summary:
 247:.\Generated_Source\PSoC5/CyLib.c **** *  Enables the IMO. Optionally waits at least 6 us for it to settle.
 248:.\Generated_Source\PSoC5/CyLib.c **** *
 249:.\Generated_Source\PSoC5/CyLib.c **** * Parameters:
 250:.\Generated_Source\PSoC5/CyLib.c **** *  uint8 wait:
 251:.\Generated_Source\PSoC5/CyLib.c **** *   0: Return immediately after configuration
 252:.\Generated_Source\PSoC5/CyLib.c **** *   1: Wait for at least 6us for the IMO to settle.
 253:.\Generated_Source\PSoC5/CyLib.c **** *
 254:.\Generated_Source\PSoC5/CyLib.c **** * Return:
 255:.\Generated_Source\PSoC5/CyLib.c **** *  None
 256:.\Generated_Source\PSoC5/CyLib.c **** *
 257:.\Generated_Source\PSoC5/CyLib.c **** * Side Effects:
 258:.\Generated_Source\PSoC5/CyLib.c **** *  If wait is enabled: This function wses the Fast Time Wheel to time the wait.
 259:.\Generated_Source\PSoC5/CyLib.c **** *  Any other use of the Fast Time Wheel will be stopped during the period of
 260:.\Generated_Source\PSoC5/CyLib.c **** *  this function and then restored. This function also uses the 100 KHz ILO.
 261:.\Generated_Source\PSoC5/CyLib.c **** *  If not enabled, this function will enable the 100 KHz ILO for the period of
 262:.\Generated_Source\PSoC5/CyLib.c **** *  this function.
 263:.\Generated_Source\PSoC5/CyLib.c **** *
 264:.\Generated_Source\PSoC5/CyLib.c **** *  No changes to the setup of the ILO, Fast Time Wheel, Central Time Wheel or
 265:.\Generated_Source\PSoC5/CyLib.c **** *  Once Per Second interrupt may be made by interrupt routines during the period
 266:.\Generated_Source\PSoC5/CyLib.c **** *  of this function execution. The current operation of the ILO, Central Time
 267:.\Generated_Source\PSoC5/CyLib.c **** *  Wheel and Once Per Second interrupt are maintained during the operation of
 268:.\Generated_Source\PSoC5/CyLib.c **** *  this function provided the reading of the Power Manager Interrupt Status
 269:.\Generated_Source\PSoC5/CyLib.c **** *  Register is only done using the CyPmReadStatus() function.
 270:.\Generated_Source\PSoC5/CyLib.c **** *
 271:.\Generated_Source\PSoC5/CyLib.c **** *******************************************************************************/
 272:.\Generated_Source\PSoC5/CyLib.c **** void CyIMO_Start(uint8 wait) 
 273:.\Generated_Source\PSoC5/CyLib.c **** {
 437              		.loc 1 273 0
 438              		.cfi_startproc
 439              		@ args = 0, pretend = 0, frame = 16
 440              		@ frame_needed = 1, uses_anonymous_args = 0
 441 0000 80B5     		push	{r7, lr}
 442              	.LCFI11:
 443              		.cfi_def_cfa_offset 8
 444 0002 84B0     		sub	sp, sp, #16
 445              	.LCFI12:
 446              		.cfi_def_cfa_offset 24
 447 0004 00AF     		add	r7, sp, #0
 448              		.cfi_offset 14, -4
 449              		.cfi_offset 7, -8
 450              	.LCFI13:
 451              		.cfi_def_cfa_register 7
 452 0006 0346     		mov	r3, r0
 453 0008 FB71     		strb	r3, [r7, #7]
 274:.\Generated_Source\PSoC5/CyLib.c ****     uint8 pm_tw_cfg2_state;
 275:.\Generated_Source\PSoC5/CyLib.c ****     uint8 pm_tw_cfg0_state;
 276:.\Generated_Source\PSoC5/CyLib.c ****     uint8 ilo_clock_state;
 277:.\Generated_Source\PSoC5/CyLib.c **** 
 278:.\Generated_Source\PSoC5/CyLib.c ****     /* Set the bit to enable the clock. */
 279:.\Generated_Source\PSoC5/CyLib.c ****     PM_ACT_CFG0 |= IMO_PM_ENABLE;
 454              		.loc 1 279 0
 455 000a 44F2A033 		movw	r3, #:lower16:1073759136
 456 000e C4F20003 		movt	r3, #:upper16:1073759136
 457 0012 44F2A032 		movw	r2, #:lower16:1073759136
 458 0016 C4F20002 		movt	r2, #:upper16:1073759136
ARM GAS  C:\Users\Heiwa\AppData\Local\Temp\ccuYQ69z.s 			page 14


 459 001a 1278     		ldrb	r2, [r2, #0]
 460 001c D2B2     		uxtb	r2, r2
 461 001e 42F01002 		orr	r2, r2, #16
 462 0022 D2B2     		uxtb	r2, r2
 463 0024 1A70     		strb	r2, [r3, #0]
 280:.\Generated_Source\PSoC5/CyLib.c **** 
 281:.\Generated_Source\PSoC5/CyLib.c ****     /* Wait for 6 us */
 282:.\Generated_Source\PSoC5/CyLib.c ****     if(wait)
 464              		.loc 1 282 0
 465 0026 FB79     		ldrb	r3, [r7, #7]	@ zero_extendqisi2
 466 0028 002B     		cmp	r3, #0
 467 002a 4DD0     		beq	.L33
 283:.\Generated_Source\PSoC5/CyLib.c ****     {
 284:.\Generated_Source\PSoC5/CyLib.c ****         /* Need to turn on the 100KHz ILO if it happens to not already be running.*/
 285:.\Generated_Source\PSoC5/CyLib.c ****         ilo_clock_state = SLOWCLK_ILO_CR0;
 468              		.loc 1 285 0
 469 002c 44F20033 		movw	r3, #:lower16:1073758976
 470 0030 C4F20003 		movt	r3, #:upper16:1073758976
 471 0034 1B78     		ldrb	r3, [r3, #0]
 472 0036 FB73     		strb	r3, [r7, #15]
 286:.\Generated_Source\PSoC5/CyLib.c ****         if(!(ilo_clock_state & ILO_CONTROL_100KHZ_ON))
 473              		.loc 1 286 0
 474 0038 FB7B     		ldrb	r3, [r7, #15]	@ zero_extendqisi2
 475 003a 03F00403 		and	r3, r3, #4
 476 003e 002B     		cmp	r3, #0
 477 0040 01D1     		bne	.L30
 287:.\Generated_Source\PSoC5/CyLib.c ****         {
 288:.\Generated_Source\PSoC5/CyLib.c ****             CyILO_Start100K();
 478              		.loc 1 288 0
 479 0042 FFF7FEFF 		bl	CyILO_Start100K
 480              	.L30:
 289:.\Generated_Source\PSoC5/CyLib.c ****         }
 290:.\Generated_Source\PSoC5/CyLib.c **** 
 291:.\Generated_Source\PSoC5/CyLib.c ****         /* Use ILO 100 KHz */
 292:.\Generated_Source\PSoC5/CyLib.c ****         pm_tw_cfg2_state = PM_TW_CFG2;
 481              		.loc 1 292 0
 482 0046 44F28233 		movw	r3, #:lower16:1073759106
 483 004a C4F20003 		movt	r3, #:upper16:1073759106
 484 004e 1B78     		ldrb	r3, [r3, #0]
 485 0050 7B73     		strb	r3, [r7, #13]
 293:.\Generated_Source\PSoC5/CyLib.c ****         pm_tw_cfg0_state = PM_TW_CFG0;
 486              		.loc 1 293 0
 487 0052 44F28033 		movw	r3, #:lower16:1073759104
 488 0056 C4F20003 		movt	r3, #:upper16:1073759104
 489 005a 1B78     		ldrb	r3, [r3, #0]
 490 005c BB73     		strb	r3, [r7, #14]
 294:.\Generated_Source\PSoC5/CyLib.c **** 
 295:.\Generated_Source\PSoC5/CyLib.c ****         /* FTW_EN (bit 0) must be clear to change the period*/
 296:.\Generated_Source\PSoC5/CyLib.c ****         PM_TW_CFG2 &= FTW_CLEAR_FTW_BITS;
 491              		.loc 1 296 0
 492 005e 44F28233 		movw	r3, #:lower16:1073759106
 493 0062 C4F20003 		movt	r3, #:upper16:1073759106
 494 0066 44F28232 		movw	r2, #:lower16:1073759106
 495 006a C4F20002 		movt	r2, #:upper16:1073759106
 496 006e 1278     		ldrb	r2, [r2, #0]
 497 0070 D2B2     		uxtb	r2, r2
 498 0072 02F0FC02 		and	r2, r2, #252
ARM GAS  C:\Users\Heiwa\AppData\Local\Temp\ccuYQ69z.s 			page 15


 499 0076 1A70     		strb	r2, [r3, #0]
 297:.\Generated_Source\PSoC5/CyLib.c **** 
 298:.\Generated_Source\PSoC5/CyLib.c ****         /* Set the FTW interval of 1 100KHz ILO clocks
 299:.\Generated_Source\PSoC5/CyLib.c ****         Should result in status getting set at a (100/1)KHz rate*/
 300:.\Generated_Source\PSoC5/CyLib.c ****         PM_TW_CFG0 = 1-1;
 500              		.loc 1 300 0
 501 0078 44F28033 		movw	r3, #:lower16:1073759104
 502 007c C4F20003 		movt	r3, #:upper16:1073759104
 503 0080 4FF00002 		mov	r2, #0
 504 0084 1A70     		strb	r2, [r3, #0]
 301:.\Generated_Source\PSoC5/CyLib.c ****         /* Enable FTW, but not the interrupt*/
 302:.\Generated_Source\PSoC5/CyLib.c ****         PM_TW_CFG2 = FTW_ENABLE;
 505              		.loc 1 302 0
 506 0086 44F28233 		movw	r3, #:lower16:1073759106
 507 008a C4F20003 		movt	r3, #:upper16:1073759106
 508 008e 4FF00102 		mov	r2, #1
 509 0092 1A70     		strb	r2, [r3, #0]
 510              	.L31:
 303:.\Generated_Source\PSoC5/CyLib.c **** 
 304:.\Generated_Source\PSoC5/CyLib.c ****         /* Read FTW value */
 305:.\Generated_Source\PSoC5/CyLib.c ****         while (CyPmReadStatus(1) == 0)
 511              		.loc 1 305 0
 512 0094 4FF00100 		mov	r0, #1
 513 0098 FFF7FEFF 		bl	CyPmReadStatus
 514 009c 0346     		mov	r3, r0
 515 009e 002B     		cmp	r3, #0
 516 00a0 F8D0     		beq	.L31
 306:.\Generated_Source\PSoC5/CyLib.c ****         {
 307:.\Generated_Source\PSoC5/CyLib.c ****             /* Wait for the interrupt status*/
 308:.\Generated_Source\PSoC5/CyLib.c ****         }
 309:.\Generated_Source\PSoC5/CyLib.c **** 
 310:.\Generated_Source\PSoC5/CyLib.c ****         /* Reset the clock */
 311:.\Generated_Source\PSoC5/CyLib.c ****         if(!(ilo_clock_state & ILO_CONTROL_100KHZ_ON))
 517              		.loc 1 311 0
 518 00a2 FB7B     		ldrb	r3, [r7, #15]	@ zero_extendqisi2
 519 00a4 03F00403 		and	r3, r3, #4
 520 00a8 002B     		cmp	r3, #0
 521 00aa 01D1     		bne	.L32
 312:.\Generated_Source\PSoC5/CyLib.c ****         {
 313:.\Generated_Source\PSoC5/CyLib.c ****             CyILO_Stop100K();
 522              		.loc 1 313 0
 523 00ac FFF7FEFF 		bl	CyILO_Stop100K
 524              	.L32:
 314:.\Generated_Source\PSoC5/CyLib.c ****         }
 315:.\Generated_Source\PSoC5/CyLib.c **** 
 316:.\Generated_Source\PSoC5/CyLib.c ****         /* Restore the FTW */
 317:.\Generated_Source\PSoC5/CyLib.c ****         PM_TW_CFG0 = pm_tw_cfg0_state;
 525              		.loc 1 317 0
 526 00b0 44F28033 		movw	r3, #:lower16:1073759104
 527 00b4 C4F20003 		movt	r3, #:upper16:1073759104
 528 00b8 BA7B     		ldrb	r2, [r7, #14]
 529 00ba 1A70     		strb	r2, [r3, #0]
 318:.\Generated_Source\PSoC5/CyLib.c ****         PM_TW_CFG2 = pm_tw_cfg2_state;
 530              		.loc 1 318 0
 531 00bc 44F28233 		movw	r3, #:lower16:1073759106
 532 00c0 C4F20003 		movt	r3, #:upper16:1073759106
 533 00c4 7A7B     		ldrb	r2, [r7, #13]
ARM GAS  C:\Users\Heiwa\AppData\Local\Temp\ccuYQ69z.s 			page 16


 534 00c6 1A70     		strb	r2, [r3, #0]
 535              	.L33:
 319:.\Generated_Source\PSoC5/CyLib.c ****     }
 320:.\Generated_Source\PSoC5/CyLib.c **** }
 536              		.loc 1 320 0
 537 00c8 07F11007 		add	r7, r7, #16
 538 00cc BD46     		mov	sp, r7
 539 00ce 80BD     		pop	{r7, pc}
 540              		.cfi_endproc
 541              	.LFE4:
 542              		.size	CyIMO_Start, .-CyIMO_Start
 543              		.section	.text.CyIMO_Stop,"ax",%progbits
 544              		.align	2
 545              		.global	CyIMO_Stop
 546              		.thumb
 547              		.thumb_func
 548              		.type	CyIMO_Stop, %function
 549              	CyIMO_Stop:
 550              	.LFB5:
 321:.\Generated_Source\PSoC5/CyLib.c **** 
 322:.\Generated_Source\PSoC5/CyLib.c **** 
 323:.\Generated_Source\PSoC5/CyLib.c **** /*******************************************************************************
 324:.\Generated_Source\PSoC5/CyLib.c **** * Function Name: CyIMO_Stop
 325:.\Generated_Source\PSoC5/CyLib.c **** ********************************************************************************
 326:.\Generated_Source\PSoC5/CyLib.c **** *
 327:.\Generated_Source\PSoC5/CyLib.c **** * Summary:
 328:.\Generated_Source\PSoC5/CyLib.c **** *   Disables the IMO.
 329:.\Generated_Source\PSoC5/CyLib.c **** *
 330:.\Generated_Source\PSoC5/CyLib.c **** * Parameters:
 331:.\Generated_Source\PSoC5/CyLib.c **** *  None
 332:.\Generated_Source\PSoC5/CyLib.c **** *
 333:.\Generated_Source\PSoC5/CyLib.c **** * Return:
 334:.\Generated_Source\PSoC5/CyLib.c **** *  None
 335:.\Generated_Source\PSoC5/CyLib.c **** *
 336:.\Generated_Source\PSoC5/CyLib.c **** *******************************************************************************/
 337:.\Generated_Source\PSoC5/CyLib.c **** void CyIMO_Stop(void) 
 338:.\Generated_Source\PSoC5/CyLib.c **** {
 551              		.loc 1 338 0
 552              		.cfi_startproc
 553              		@ args = 0, pretend = 0, frame = 0
 554              		@ frame_needed = 1, uses_anonymous_args = 0
 555              		@ link register save eliminated.
 556 0000 80B4     		push	{r7}
 557              	.LCFI14:
 558              		.cfi_def_cfa_offset 4
 559 0002 00AF     		add	r7, sp, #0
 560              		.cfi_offset 7, -4
 561              	.LCFI15:
 562              		.cfi_def_cfa_register 7
 339:.\Generated_Source\PSoC5/CyLib.c ****     /* Clear the bit to disable the clock. */
 340:.\Generated_Source\PSoC5/CyLib.c ****     PM_ACT_CFG0 &= ~IMO_PM_ENABLE;
 563              		.loc 1 340 0
 564 0004 44F2A033 		movw	r3, #:lower16:1073759136
 565 0008 C4F20003 		movt	r3, #:upper16:1073759136
 566 000c 44F2A032 		movw	r2, #:lower16:1073759136
 567 0010 C4F20002 		movt	r2, #:upper16:1073759136
 568 0014 1278     		ldrb	r2, [r2, #0]
ARM GAS  C:\Users\Heiwa\AppData\Local\Temp\ccuYQ69z.s 			page 17


 569 0016 D2B2     		uxtb	r2, r2
 570 0018 02F0EF02 		and	r2, r2, #239
 571 001c 1A70     		strb	r2, [r3, #0]
 341:.\Generated_Source\PSoC5/CyLib.c **** }
 572              		.loc 1 341 0
 573 001e BD46     		mov	sp, r7
 574 0020 80BC     		pop	{r7}
 575 0022 7047     		bx	lr
 576              		.cfi_endproc
 577              	.LFE5:
 578              		.size	CyIMO_Stop, .-CyIMO_Stop
 579              		.section	.text.CyUSB_PowerOnCheck,"ax",%progbits
 580              		.align	2
 581              		.global	CyUSB_PowerOnCheck
 582              		.thumb
 583              		.thumb_func
 584              		.type	CyUSB_PowerOnCheck, %function
 585              	CyUSB_PowerOnCheck:
 586              	.LFB6:
 342:.\Generated_Source\PSoC5/CyLib.c **** 
 343:.\Generated_Source\PSoC5/CyLib.c **** 
 344:.\Generated_Source\PSoC5/CyLib.c **** /*******************************************************************************
 345:.\Generated_Source\PSoC5/CyLib.c **** * Function Name: CyUSB_PowerOnCheck
 346:.\Generated_Source\PSoC5/CyLib.c **** ********************************************************************************
 347:.\Generated_Source\PSoC5/CyLib.c **** *
 348:.\Generated_Source\PSoC5/CyLib.c **** * Summary:
 349:.\Generated_Source\PSoC5/CyLib.c **** *  Returns the USB power status value. A private function to cy_boot.
 350:.\Generated_Source\PSoC5/CyLib.c **** *
 351:.\Generated_Source\PSoC5/CyLib.c **** * Parameters:
 352:.\Generated_Source\PSoC5/CyLib.c **** *   None
 353:.\Generated_Source\PSoC5/CyLib.c **** *
 354:.\Generated_Source\PSoC5/CyLib.c **** * Return:
 355:.\Generated_Source\PSoC5/CyLib.c **** *   uint8: one if the USB is enabled, 0 if not enabled.
 356:.\Generated_Source\PSoC5/CyLib.c **** *
 357:.\Generated_Source\PSoC5/CyLib.c **** *******************************************************************************/
 358:.\Generated_Source\PSoC5/CyLib.c **** uint8 CyUSB_PowerOnCheck(void)  
 359:.\Generated_Source\PSoC5/CyLib.c **** {
 587              		.loc 1 359 0
 588              		.cfi_startproc
 589              		@ args = 0, pretend = 0, frame = 8
 590              		@ frame_needed = 1, uses_anonymous_args = 0
 591              		@ link register save eliminated.
 592 0000 80B4     		push	{r7}
 593              	.LCFI16:
 594              		.cfi_def_cfa_offset 4
 595 0002 83B0     		sub	sp, sp, #12
 596              	.LCFI17:
 597              		.cfi_def_cfa_offset 16
 598 0004 00AF     		add	r7, sp, #0
 599              		.cfi_offset 7, -4
 600              	.LCFI18:
 601              		.cfi_def_cfa_register 7
 360:.\Generated_Source\PSoC5/CyLib.c ****     uint8 powered_on = 0u;
 602              		.loc 1 360 0
 603 0006 4FF00003 		mov	r3, #0
 604 000a FB71     		strb	r3, [r7, #7]
 361:.\Generated_Source\PSoC5/CyLib.c **** 
ARM GAS  C:\Users\Heiwa\AppData\Local\Temp\ccuYQ69z.s 			page 18


 362:.\Generated_Source\PSoC5/CyLib.c ****     /* Check whether device is in Active or AltActiv and if USB is powered on */
 363:.\Generated_Source\PSoC5/CyLib.c ****     if((((CY_PM_MODE_CSR_REG & CY_PM_MODE_CSR_MASK) == CY_PM_MODE_CSR_ACTIVE) &&
 605              		.loc 1 363 0
 606 000c 44F29333 		movw	r3, #:lower16:1073759123
 607 0010 C4F20003 		movt	r3, #:upper16:1073759123
 608 0014 1B78     		ldrb	r3, [r3, #0]
 609 0016 DBB2     		uxtb	r3, r3
 610 0018 03F00703 		and	r3, r3, #7
 611 001c 002B     		cmp	r3, #0
 612 001e 0AD1     		bne	.L37
 364:.\Generated_Source\PSoC5/CyLib.c ****          (CY_PM_ACT_CFG5_REG & CY_ACT_USB_ENABLED)) ||
 613              		.loc 1 364 0
 614 0020 44F2A533 		movw	r3, #:lower16:1073759141
 615 0024 C4F20003 		movt	r3, #:upper16:1073759141
 616 0028 1B78     		ldrb	r3, [r3, #0]
 617 002a DBB2     		uxtb	r3, r3
 618 002c 03F00103 		and	r3, r3, #1
 619              		.loc 1 363 0
 620 0030 DBB2     		uxtb	r3, r3
 621 0032 002B     		cmp	r3, #0
 622 0034 14D1     		bne	.L38
 623              	.L37:
 365:.\Generated_Source\PSoC5/CyLib.c ****       (((CY_PM_MODE_CSR_REG & CY_PM_MODE_CSR_MASK) == CY_PM_MODE_CSR_ALT_ACT) &&
 624              		.loc 1 365 0
 625 0036 44F29333 		movw	r3, #:lower16:1073759123
 626 003a C4F20003 		movt	r3, #:upper16:1073759123
 627 003e 1B78     		ldrb	r3, [r3, #0]
 628 0040 DBB2     		uxtb	r3, r3
 629 0042 03F00703 		and	r3, r3, #7
 630              		.loc 1 363 0
 631 0046 012B     		cmp	r3, #1
 632 0048 0DD1     		bne	.L39
 366:.\Generated_Source\PSoC5/CyLib.c ****         (CY_PM_STBY_CFG5_REG & CY_ALT_ACT_USB_ENABLED)))
 633              		.loc 1 366 0
 634 004a 44F2B533 		movw	r3, #:lower16:1073759157
 635 004e C4F20003 		movt	r3, #:upper16:1073759157
 636 0052 1B78     		ldrb	r3, [r3, #0]
 637 0054 DBB2     		uxtb	r3, r3
 638 0056 03F00103 		and	r3, r3, #1
 639              		.loc 1 363 0
 640 005a DBB2     		uxtb	r3, r3
 641 005c 002B     		cmp	r3, #0
 642 005e 02D0     		beq	.L39
 643              	.L38:
 367:.\Generated_Source\PSoC5/CyLib.c ****     {
 368:.\Generated_Source\PSoC5/CyLib.c ****         powered_on = 1;
 644              		.loc 1 368 0
 645 0060 4FF00103 		mov	r3, #1
 646 0064 FB71     		strb	r3, [r7, #7]
 647              	.L39:
 369:.\Generated_Source\PSoC5/CyLib.c ****     }
 370:.\Generated_Source\PSoC5/CyLib.c **** 
 371:.\Generated_Source\PSoC5/CyLib.c ****     return (powered_on);
 648              		.loc 1 371 0
 649 0066 FB79     		ldrb	r3, [r7, #7]	@ zero_extendqisi2
 372:.\Generated_Source\PSoC5/CyLib.c **** }
 650              		.loc 1 372 0
ARM GAS  C:\Users\Heiwa\AppData\Local\Temp\ccuYQ69z.s 			page 19


 651 0068 1846     		mov	r0, r3
 652 006a 07F10C07 		add	r7, r7, #12
 653 006e BD46     		mov	sp, r7
 654 0070 80BC     		pop	{r7}
 655 0072 7047     		bx	lr
 656              		.cfi_endproc
 657              	.LFE6:
 658              		.size	CyUSB_PowerOnCheck, .-CyUSB_PowerOnCheck
 659              		.section	.text.CyIMO_SetTrimValue,"ax",%progbits
 660              		.align	2
 661              		.global	CyIMO_SetTrimValue
 662              		.thumb
 663              		.thumb_func
 664              		.type	CyIMO_SetTrimValue, %function
 665              	CyIMO_SetTrimValue:
 666              	.LFB7:
 373:.\Generated_Source\PSoC5/CyLib.c **** 
 374:.\Generated_Source\PSoC5/CyLib.c **** 
 375:.\Generated_Source\PSoC5/CyLib.c **** /*******************************************************************************
 376:.\Generated_Source\PSoC5/CyLib.c **** * Function Name: CyIMO_SetTrimValue
 377:.\Generated_Source\PSoC5/CyLib.c **** ********************************************************************************
 378:.\Generated_Source\PSoC5/CyLib.c **** *
 379:.\Generated_Source\PSoC5/CyLib.c **** * Summary:
 380:.\Generated_Source\PSoC5/CyLib.c **** *  Sets the IMO factory trim values.
 381:.\Generated_Source\PSoC5/CyLib.c **** *
 382:.\Generated_Source\PSoC5/CyLib.c **** * Parameters:
 383:.\Generated_Source\PSoC5/CyLib.c **** *  uint8 freq - frequency for which trims must be set
 384:.\Generated_Source\PSoC5/CyLib.c **** *
 385:.\Generated_Source\PSoC5/CyLib.c **** * Return:
 386:.\Generated_Source\PSoC5/CyLib.c **** *  None
 387:.\Generated_Source\PSoC5/CyLib.c **** *
 388:.\Generated_Source\PSoC5/CyLib.c **** *******************************************************************************/
 389:.\Generated_Source\PSoC5/CyLib.c **** void CyIMO_SetTrimValue(uint8 freq) 
 390:.\Generated_Source\PSoC5/CyLib.c **** {
 667              		.loc 1 390 0
 668              		.cfi_startproc
 669              		@ args = 0, pretend = 0, frame = 16
 670              		@ frame_needed = 1, uses_anonymous_args = 0
 671 0000 80B5     		push	{r7, lr}
 672              	.LCFI19:
 673              		.cfi_def_cfa_offset 8
 674 0002 84B0     		sub	sp, sp, #16
 675              	.LCFI20:
 676              		.cfi_def_cfa_offset 24
 677 0004 00AF     		add	r7, sp, #0
 678              		.cfi_offset 14, -4
 679              		.cfi_offset 7, -8
 680              	.LCFI21:
 681              		.cfi_def_cfa_register 7
 682 0006 0346     		mov	r3, r0
 683 0008 FB71     		strb	r3, [r7, #7]
 391:.\Generated_Source\PSoC5/CyLib.c ****     uint8 usb_power_on = CyUSB_PowerOnCheck();
 684              		.loc 1 391 0
 685 000a FFF7FEFF 		bl	CyUSB_PowerOnCheck
 686 000e 0346     		mov	r3, r0
 687 0010 FB73     		strb	r3, [r7, #15]
 392:.\Generated_Source\PSoC5/CyLib.c **** 
ARM GAS  C:\Users\Heiwa\AppData\Local\Temp\ccuYQ69z.s 			page 20


 393:.\Generated_Source\PSoC5/CyLib.c ****     /* If USB is powered */
 394:.\Generated_Source\PSoC5/CyLib.c ****     if(usb_power_on == 1)
 688              		.loc 1 394 0
 689 0012 FB7B     		ldrb	r3, [r7, #15]	@ zero_extendqisi2
 690 0014 012B     		cmp	r3, #1
 691 0016 0CD1     		bne	.L42
 395:.\Generated_Source\PSoC5/CyLib.c ****     {
 396:.\Generated_Source\PSoC5/CyLib.c ****         /* Unlock USB write */
 397:.\Generated_Source\PSoC5/CyLib.c ****         CY_USB_CR1 &= ~CLOCK_USB_ENABLE;
 692              		.loc 1 397 0
 693 0018 46F20903 		movw	r3, #:lower16:1073766409
 694 001c C4F20003 		movt	r3, #:upper16:1073766409
 695 0020 46F20902 		movw	r2, #:lower16:1073766409
 696 0024 C4F20002 		movt	r2, #:upper16:1073766409
 697 0028 1278     		ldrb	r2, [r2, #0]
 698 002a D2B2     		uxtb	r2, r2
 699 002c 02F0FD02 		and	r2, r2, #253
 700 0030 1A70     		strb	r2, [r3, #0]
 701              	.L42:
 398:.\Generated_Source\PSoC5/CyLib.c ****     }
 399:.\Generated_Source\PSoC5/CyLib.c ****     switch(freq)
 702              		.loc 1 399 0
 703 0032 FB79     		ldrb	r3, [r7, #7]	@ zero_extendqisi2
 704 0034 082B     		cmp	r3, #8
 705 0036 6ED8     		bhi	.L43
 706 0038 01A2     		adr	r2, .L50
 707 003a 52F823F0 		ldr	pc, [r2, r3, lsl #2]
 708 003e 00BF     		.align	2
 709              	.L50:
 710 0040 65000000 		.word	.L44+1
 711 0044 7D000000 		.word	.L45+1
 712 0048 95000000 		.word	.L46+1
 713 004c AD000000 		.word	.L47+1
 714 0050 C5000000 		.word	.L48+1
 715 0054 17010000 		.word	.L43+1
 716 0058 17010000 		.word	.L43+1
 717 005c 17010000 		.word	.L43+1
 718 0060 DD000000 		.word	.L49+1
 719              	.L44:
 400:.\Generated_Source\PSoC5/CyLib.c ****     {
 401:.\Generated_Source\PSoC5/CyLib.c ****     case CY_IMO_FREQ_3MHZ:
 402:.\Generated_Source\PSoC5/CyLib.c ****         IMO_TR1 = CY_GET_XTND_REG8(FLSHID_CUST_TABLES_IMO_3MHZ_PTR);
 720              		.loc 1 402 0
 721 0064 44F2A163 		movw	r3, #:lower16:1073759905
 722 0068 C4F20003 		movt	r3, #:upper16:1073759905
 723 006c 40F20812 		movw	r2, #:lower16:1224737032
 724 0070 C4F60012 		movt	r2, #:upper16:1224737032
 725 0074 1278     		ldrb	r2, [r2, #0]
 726 0076 D2B2     		uxtb	r2, r2
 727 0078 1A70     		strb	r2, [r3, #0]
 403:.\Generated_Source\PSoC5/CyLib.c ****         break;
 728              		.loc 1 403 0
 729 007a 52E0     		b	.L53
 730              	.L45:
 404:.\Generated_Source\PSoC5/CyLib.c **** 
 405:.\Generated_Source\PSoC5/CyLib.c ****     case CY_IMO_FREQ_6MHZ:
 406:.\Generated_Source\PSoC5/CyLib.c ****         IMO_TR1 = CY_GET_XTND_REG8(FLSHID_CUST_TABLES_IMO_6MHZ_PTR);
ARM GAS  C:\Users\Heiwa\AppData\Local\Temp\ccuYQ69z.s 			page 21


 731              		.loc 1 406 0
 732 007c 44F2A163 		movw	r3, #:lower16:1073759905
 733 0080 C4F20003 		movt	r3, #:upper16:1073759905
 734 0084 40F20912 		movw	r2, #:lower16:1224737033
 735 0088 C4F60012 		movt	r2, #:upper16:1224737033
 736 008c 1278     		ldrb	r2, [r2, #0]
 737 008e D2B2     		uxtb	r2, r2
 738 0090 1A70     		strb	r2, [r3, #0]
 407:.\Generated_Source\PSoC5/CyLib.c ****         break;
 739              		.loc 1 407 0
 740 0092 46E0     		b	.L53
 741              	.L46:
 408:.\Generated_Source\PSoC5/CyLib.c **** 
 409:.\Generated_Source\PSoC5/CyLib.c ****     case CY_IMO_FREQ_12MHZ:
 410:.\Generated_Source\PSoC5/CyLib.c ****         IMO_TR1 = CY_GET_XTND_REG8(FLSHID_CUST_TABLES_IMO_12MHZ_PTR);
 742              		.loc 1 410 0
 743 0094 44F2A163 		movw	r3, #:lower16:1073759905
 744 0098 C4F20003 		movt	r3, #:upper16:1073759905
 745 009c 40F20A12 		movw	r2, #:lower16:1224737034
 746 00a0 C4F60012 		movt	r2, #:upper16:1224737034
 747 00a4 1278     		ldrb	r2, [r2, #0]
 748 00a6 D2B2     		uxtb	r2, r2
 749 00a8 1A70     		strb	r2, [r3, #0]
 411:.\Generated_Source\PSoC5/CyLib.c ****         break;
 750              		.loc 1 411 0
 751 00aa 3AE0     		b	.L53
 752              	.L47:
 412:.\Generated_Source\PSoC5/CyLib.c **** 
 413:.\Generated_Source\PSoC5/CyLib.c ****     case CY_IMO_FREQ_24MHZ:
 414:.\Generated_Source\PSoC5/CyLib.c ****         IMO_TR1 = CY_GET_XTND_REG8(FLSHID_CUST_TABLES_IMO_24MHZ_PTR);
 753              		.loc 1 414 0
 754 00ac 44F2A163 		movw	r3, #:lower16:1073759905
 755 00b0 C4F20003 		movt	r3, #:upper16:1073759905
 756 00b4 40F20B12 		movw	r2, #:lower16:1224737035
 757 00b8 C4F60012 		movt	r2, #:upper16:1224737035
 758 00bc 1278     		ldrb	r2, [r2, #0]
 759 00be D2B2     		uxtb	r2, r2
 760 00c0 1A70     		strb	r2, [r3, #0]
 415:.\Generated_Source\PSoC5/CyLib.c ****         break;
 761              		.loc 1 415 0
 762 00c2 2EE0     		b	.L53
 763              	.L48:
 416:.\Generated_Source\PSoC5/CyLib.c **** 
 417:.\Generated_Source\PSoC5/CyLib.c ****     case CY_IMO_FREQ_48MHZ:
 418:.\Generated_Source\PSoC5/CyLib.c ****         IMO_TR1 = CY_GET_XTND_REG8(FLSHID_MFG_CFG_IMO_TR1_PTR);
 764              		.loc 1 418 0
 765 00c4 44F2A163 		movw	r3, #:lower16:1073759905
 766 00c8 C4F20003 		movt	r3, #:upper16:1073759905
 767 00cc 40F28312 		movw	r2, #:lower16:1224737155
 768 00d0 C4F60012 		movt	r2, #:upper16:1224737155
 769 00d4 1278     		ldrb	r2, [r2, #0]
 770 00d6 D2B2     		uxtb	r2, r2
 771 00d8 1A70     		strb	r2, [r3, #0]
 419:.\Generated_Source\PSoC5/CyLib.c ****         break;
 772              		.loc 1 419 0
 773 00da 22E0     		b	.L53
 774              	.L49:
ARM GAS  C:\Users\Heiwa\AppData\Local\Temp\ccuYQ69z.s 			page 22


 420:.\Generated_Source\PSoC5/CyLib.c **** 
 421:.\Generated_Source\PSoC5/CyLib.c ****     /* The IMO frequencies above 48 MHz are not supported by PSoC5 */
 422:.\Generated_Source\PSoC5/CyLib.c ****     #if(!CY_PSOC5A)
 423:.\Generated_Source\PSoC5/CyLib.c **** 
 424:.\Generated_Source\PSoC5/CyLib.c ****         case CY_IMO_FREQ_62MHZ:
 425:.\Generated_Source\PSoC5/CyLib.c ****             IMO_TR1 = CY_GET_XTND_REG8(FLSHID_CUST_TABLES_IMO_67MHZ_PTR);
 426:.\Generated_Source\PSoC5/CyLib.c ****             break;
 427:.\Generated_Source\PSoC5/CyLib.c **** 
 428:.\Generated_Source\PSoC5/CyLib.c ****     #endif  /* (!CY_PSOC5A) */
 429:.\Generated_Source\PSoC5/CyLib.c **** 
 430:.\Generated_Source\PSoC5/CyLib.c ****     case CY_IMO_FREQ_USB:
 431:.\Generated_Source\PSoC5/CyLib.c ****         IMO_TR1 = CY_GET_XTND_REG8(FLSHID_CUST_TABLES_IMO_USB_PTR);
 775              		.loc 1 431 0
 776 00dc 44F2A163 		movw	r3, #:lower16:1073759905
 777 00e0 C4F20003 		movt	r3, #:upper16:1073759905
 778 00e4 40F20F12 		movw	r2, #:lower16:1224737039
 779 00e8 C4F60012 		movt	r2, #:upper16:1224737039
 780 00ec 1278     		ldrb	r2, [r2, #0]
 781 00ee D2B2     		uxtb	r2, r2
 782 00f0 1A70     		strb	r2, [r3, #0]
 432:.\Generated_Source\PSoC5/CyLib.c **** 
 433:.\Generated_Source\PSoC5/CyLib.c ****         /* If USB is powered */
 434:.\Generated_Source\PSoC5/CyLib.c ****         if(usb_power_on == 1)
 783              		.loc 1 434 0
 784 00f2 FB7B     		ldrb	r3, [r7, #15]	@ zero_extendqisi2
 785 00f4 012B     		cmp	r3, #1
 786 00f6 13D1     		bne	.L54
 435:.\Generated_Source\PSoC5/CyLib.c ****         {
 436:.\Generated_Source\PSoC5/CyLib.c ****             /* Lock the USB Oscillator */
 437:.\Generated_Source\PSoC5/CyLib.c ****             CY_USB_CR1 |= CLOCK_USB_ENABLE;
 787              		.loc 1 437 0
 788 00f8 46F20903 		movw	r3, #:lower16:1073766409
 789 00fc C4F20003 		movt	r3, #:upper16:1073766409
 790 0100 46F20902 		movw	r2, #:lower16:1073766409
 791 0104 C4F20002 		movt	r2, #:upper16:1073766409
 792 0108 1278     		ldrb	r2, [r2, #0]
 793 010a D2B2     		uxtb	r2, r2
 794 010c 42F00202 		orr	r2, r2, #2
 795 0110 D2B2     		uxtb	r2, r2
 796 0112 1A70     		strb	r2, [r3, #0]
 438:.\Generated_Source\PSoC5/CyLib.c ****         }
 439:.\Generated_Source\PSoC5/CyLib.c ****         break;
 797              		.loc 1 439 0
 798 0114 05E0     		b	.L53
 799              	.L43:
 440:.\Generated_Source\PSoC5/CyLib.c **** 
 441:.\Generated_Source\PSoC5/CyLib.c ****     default:
 442:.\Generated_Source\PSoC5/CyLib.c ****             CYASSERT(0);
 800              		.loc 1 442 0
 801 0116 4FF00000 		mov	r0, #0
 802 011a FFF7FEFF 		bl	CyHalt
 803 011e 00E0     		b	.L53
 804              	.L54:
 805              		.loc 1 439 0
 806 0120 00BF     		nop
 807              	.L53:
 443:.\Generated_Source\PSoC5/CyLib.c ****         break;
ARM GAS  C:\Users\Heiwa\AppData\Local\Temp\ccuYQ69z.s 			page 23


 444:.\Generated_Source\PSoC5/CyLib.c ****     }
 445:.\Generated_Source\PSoC5/CyLib.c **** 
 446:.\Generated_Source\PSoC5/CyLib.c **** }
 808              		.loc 1 446 0
 809 0122 07F11007 		add	r7, r7, #16
 810 0126 BD46     		mov	sp, r7
 811 0128 80BD     		pop	{r7, pc}
 812              		.cfi_endproc
 813              	.LFE7:
 814              		.size	CyIMO_SetTrimValue, .-CyIMO_SetTrimValue
 815 012a 00BF     		.section	.text.CyIMO_SetFreq,"ax",%progbits
 816              		.align	2
 817              		.global	CyIMO_SetFreq
 818              		.thumb
 819              		.thumb_func
 820              		.type	CyIMO_SetFreq, %function
 821              	CyIMO_SetFreq:
 822              	.LFB8:
 447:.\Generated_Source\PSoC5/CyLib.c **** 
 448:.\Generated_Source\PSoC5/CyLib.c **** 
 449:.\Generated_Source\PSoC5/CyLib.c **** /*******************************************************************************
 450:.\Generated_Source\PSoC5/CyLib.c **** * Function Name: CyIMO_SetFreq
 451:.\Generated_Source\PSoC5/CyLib.c **** ********************************************************************************
 452:.\Generated_Source\PSoC5/CyLib.c **** *
 453:.\Generated_Source\PSoC5/CyLib.c **** * Summary:
 454:.\Generated_Source\PSoC5/CyLib.c **** *  Sets the frequency of the IMO. Changes may be made while the IMO is running.
 455:.\Generated_Source\PSoC5/CyLib.c **** *
 456:.\Generated_Source\PSoC5/CyLib.c **** * Parameters:
 457:.\Generated_Source\PSoC5/CyLib.c **** *  freq: Frequency of IMO operation
 458:.\Generated_Source\PSoC5/CyLib.c **** *       CY_IMO_FREQ_3MHZ  to set  3   MHz
 459:.\Generated_Source\PSoC5/CyLib.c **** *       CY_IMO_FREQ_6MHZ  to set  6   MHz
 460:.\Generated_Source\PSoC5/CyLib.c **** *       CY_IMO_FREQ_12MHZ to set 12   MHz
 461:.\Generated_Source\PSoC5/CyLib.c **** *       CY_IMO_FREQ_24MHZ to set 24   MHz
 462:.\Generated_Source\PSoC5/CyLib.c **** *       CY_IMO_FREQ_48MHZ to set 48   MHz
 463:.\Generated_Source\PSoC5/CyLib.c **** *       CY_IMO_FREQ_62MHZ to set 62.6 MHz (unsupported by PSoC 5)
 464:.\Generated_Source\PSoC5/CyLib.c **** *       CY_IMO_FREQ_USB   to set 24   MHz (Trimmed for USB operation)
 465:.\Generated_Source\PSoC5/CyLib.c **** *
 466:.\Generated_Source\PSoC5/CyLib.c **** * Return:
 467:.\Generated_Source\PSoC5/CyLib.c **** *  None
 468:.\Generated_Source\PSoC5/CyLib.c **** *
 469:.\Generated_Source\PSoC5/CyLib.c **** * Side Effects:
 470:.\Generated_Source\PSoC5/CyLib.c **** *  If as result of this function execution the CPU clock frequency is increased
 471:.\Generated_Source\PSoC5/CyLib.c **** *  then the number of clock cycles the cache will wait before it samples data
 472:.\Generated_Source\PSoC5/CyLib.c **** *  coming back from Flash must be adjusted by calling CyFlash_SetWaitCycles()
 473:.\Generated_Source\PSoC5/CyLib.c **** *  with appropriate parameter. It can be optionally called if CPU clock
 474:.\Generated_Source\PSoC5/CyLib.c **** *  frequency is lowered in order to improve CPU performance.
 475:.\Generated_Source\PSoC5/CyLib.c **** *  See CyFlash_SetWaitCycles() description for more information.
 476:.\Generated_Source\PSoC5/CyLib.c **** *
 477:.\Generated_Source\PSoC5/CyLib.c **** *  When the USB setting is chosen, the USB clock locking circuit is enabled.
 478:.\Generated_Source\PSoC5/CyLib.c **** *  Otherwise this circuit is disabled. The USB block must be powered before
 479:.\Generated_Source\PSoC5/CyLib.c **** *  selecting the USB setting.
 480:.\Generated_Source\PSoC5/CyLib.c **** *
 481:.\Generated_Source\PSoC5/CyLib.c **** *******************************************************************************/
 482:.\Generated_Source\PSoC5/CyLib.c **** void CyIMO_SetFreq(uint8 freq) 
 483:.\Generated_Source\PSoC5/CyLib.c **** {
 823              		.loc 1 483 0
 824              		.cfi_startproc
ARM GAS  C:\Users\Heiwa\AppData\Local\Temp\ccuYQ69z.s 			page 24


 825              		@ args = 0, pretend = 0, frame = 16
 826              		@ frame_needed = 1, uses_anonymous_args = 0
 827 0000 80B5     		push	{r7, lr}
 828              	.LCFI22:
 829              		.cfi_def_cfa_offset 8
 830 0002 84B0     		sub	sp, sp, #16
 831              	.LCFI23:
 832              		.cfi_def_cfa_offset 24
 833 0004 00AF     		add	r7, sp, #0
 834              		.cfi_offset 14, -4
 835              		.cfi_offset 7, -8
 836              	.LCFI24:
 837              		.cfi_def_cfa_register 7
 838 0006 0346     		mov	r3, r0
 839 0008 FB71     		strb	r3, [r7, #7]
 484:.\Generated_Source\PSoC5/CyLib.c ****     uint8 current_freq;
 485:.\Generated_Source\PSoC5/CyLib.c ****     uint8 next_freq;
 486:.\Generated_Source\PSoC5/CyLib.c **** 
 487:.\Generated_Source\PSoC5/CyLib.c ****     /***************************************************************************
 488:.\Generated_Source\PSoC5/CyLib.c ****     * When changing the IMO frequency the Trim values must also be set
 489:.\Generated_Source\PSoC5/CyLib.c ****     * accordingly.This requires reading the current frequency. If the new
 490:.\Generated_Source\PSoC5/CyLib.c ****     * frequency is faster, then set the new trim and then change the frequency,
 491:.\Generated_Source\PSoC5/CyLib.c ****     * otherwise change the frequency and then set the new trim values.
 492:.\Generated_Source\PSoC5/CyLib.c ****     ***************************************************************************/
 493:.\Generated_Source\PSoC5/CyLib.c **** 
 494:.\Generated_Source\PSoC5/CyLib.c ****     current_freq = FASTCLK_IMO_CR & ~CLOCK_IMO_RANGE_CLEAR;
 840              		.loc 1 494 0
 841 000a 44F20023 		movw	r3, #:lower16:1073758720
 842 000e C4F20003 		movt	r3, #:upper16:1073758720
 843 0012 1B78     		ldrb	r3, [r3, #0]
 844 0014 DBB2     		uxtb	r3, r3
 845 0016 03F00703 		and	r3, r3, #7
 846 001a BB73     		strb	r3, [r7, #14]
 495:.\Generated_Source\PSoC5/CyLib.c **** 
 496:.\Generated_Source\PSoC5/CyLib.c ****     /* Check if the requested frequency is USB. */
 497:.\Generated_Source\PSoC5/CyLib.c ****     next_freq = (freq == CY_IMO_FREQ_USB) ? CY_IMO_FREQ_24MHZ : freq;
 847              		.loc 1 497 0
 848 001c FB79     		ldrb	r3, [r7, #7]	@ zero_extendqisi2
 849 001e 082B     		cmp	r3, #8
 850 0020 01D0     		beq	.L56
 851 0022 FB79     		ldrb	r3, [r7, #7]	@ zero_extendqisi2
 852 0024 01E0     		b	.L57
 853              	.L56:
 854 0026 4FF00303 		mov	r3, #3
 855              	.L57:
 856 002a FB73     		strb	r3, [r7, #15]
 498:.\Generated_Source\PSoC5/CyLib.c **** 
 499:.\Generated_Source\PSoC5/CyLib.c ****     switch (current_freq)
 857              		.loc 1 499 0
 858 002c BB7B     		ldrb	r3, [r7, #14]	@ zero_extendqisi2
 859 002e 042B     		cmp	r3, #4
 860 0030 20D8     		bhi	.L58
 861 0032 01A2     		adr	r2, .L64
 862 0034 52F823F0 		ldr	pc, [r2, r3, lsl #2]
 863              		.align	2
 864              	.L64:
 865 0038 4D000000 		.word	.L59+1
ARM GAS  C:\Users\Heiwa\AppData\Local\Temp\ccuYQ69z.s 			page 25


 866 003c 55000000 		.word	.L60+1
 867 0040 5D000000 		.word	.L61+1
 868 0044 65000000 		.word	.L62+1
 869 0048 6D000000 		.word	.L63+1
 870              	.L59:
 500:.\Generated_Source\PSoC5/CyLib.c ****     {
 501:.\Generated_Source\PSoC5/CyLib.c ****     case 0:
 502:.\Generated_Source\PSoC5/CyLib.c ****         current_freq = CY_IMO_FREQ_12MHZ;
 871              		.loc 1 502 0
 872 004c 4FF00203 		mov	r3, #2
 873 0050 BB73     		strb	r3, [r7, #14]
 503:.\Generated_Source\PSoC5/CyLib.c ****         break;
 874              		.loc 1 503 0
 875 0052 13E0     		b	.L65
 876              	.L60:
 504:.\Generated_Source\PSoC5/CyLib.c **** 
 505:.\Generated_Source\PSoC5/CyLib.c ****     case 1:
 506:.\Generated_Source\PSoC5/CyLib.c ****         current_freq = CY_IMO_FREQ_6MHZ;
 877              		.loc 1 506 0
 878 0054 4FF00103 		mov	r3, #1
 879 0058 BB73     		strb	r3, [r7, #14]
 507:.\Generated_Source\PSoC5/CyLib.c ****         break;
 880              		.loc 1 507 0
 881 005a 0FE0     		b	.L65
 882              	.L61:
 508:.\Generated_Source\PSoC5/CyLib.c **** 
 509:.\Generated_Source\PSoC5/CyLib.c ****     case 2:
 510:.\Generated_Source\PSoC5/CyLib.c ****         current_freq = CY_IMO_FREQ_24MHZ;
 883              		.loc 1 510 0
 884 005c 4FF00303 		mov	r3, #3
 885 0060 BB73     		strb	r3, [r7, #14]
 511:.\Generated_Source\PSoC5/CyLib.c ****         break;
 886              		.loc 1 511 0
 887 0062 0BE0     		b	.L65
 888              	.L62:
 512:.\Generated_Source\PSoC5/CyLib.c **** 
 513:.\Generated_Source\PSoC5/CyLib.c ****     case 3:
 514:.\Generated_Source\PSoC5/CyLib.c ****         current_freq = CY_IMO_FREQ_3MHZ;
 889              		.loc 1 514 0
 890 0064 4FF00003 		mov	r3, #0
 891 0068 BB73     		strb	r3, [r7, #14]
 515:.\Generated_Source\PSoC5/CyLib.c ****         break;
 892              		.loc 1 515 0
 893 006a 07E0     		b	.L65
 894              	.L63:
 516:.\Generated_Source\PSoC5/CyLib.c **** 
 517:.\Generated_Source\PSoC5/CyLib.c ****     case 4:
 518:.\Generated_Source\PSoC5/CyLib.c ****         current_freq = CY_IMO_FREQ_48MHZ;
 895              		.loc 1 518 0
 896 006c 4FF00403 		mov	r3, #4
 897 0070 BB73     		strb	r3, [r7, #14]
 519:.\Generated_Source\PSoC5/CyLib.c ****         break;
 898              		.loc 1 519 0
 899 0072 03E0     		b	.L65
 900              	.L58:
 520:.\Generated_Source\PSoC5/CyLib.c **** 
 521:.\Generated_Source\PSoC5/CyLib.c ****     /* The IMO frequencies above 48 MHz are not supported by PSoC5 */
ARM GAS  C:\Users\Heiwa\AppData\Local\Temp\ccuYQ69z.s 			page 26


 522:.\Generated_Source\PSoC5/CyLib.c ****     #if(!CY_PSOC5A)
 523:.\Generated_Source\PSoC5/CyLib.c **** 
 524:.\Generated_Source\PSoC5/CyLib.c ****         case 5:
 525:.\Generated_Source\PSoC5/CyLib.c ****             current_freq = CY_IMO_FREQ_62MHZ;
 526:.\Generated_Source\PSoC5/CyLib.c ****             break;
 527:.\Generated_Source\PSoC5/CyLib.c **** 
 528:.\Generated_Source\PSoC5/CyLib.c ****     #endif  /* (!CY_PSOC5A) */
 529:.\Generated_Source\PSoC5/CyLib.c **** 
 530:.\Generated_Source\PSoC5/CyLib.c ****     default:
 531:.\Generated_Source\PSoC5/CyLib.c ****         CYASSERT((uint32) 0);
 901              		.loc 1 531 0
 902 0074 4FF00000 		mov	r0, #0
 903 0078 FFF7FEFF 		bl	CyHalt
 904              	.L65:
 532:.\Generated_Source\PSoC5/CyLib.c ****         break;
 533:.\Generated_Source\PSoC5/CyLib.c ****     }
 534:.\Generated_Source\PSoC5/CyLib.c **** 
 535:.\Generated_Source\PSoC5/CyLib.c ****     if (next_freq >= current_freq)
 905              		.loc 1 535 0
 906 007c FA7B     		ldrb	r2, [r7, #15]	@ zero_extendqisi2
 907 007e BB7B     		ldrb	r3, [r7, #14]	@ zero_extendqisi2
 908 0080 9A42     		cmp	r2, r3
 909 0082 03D3     		bcc	.L66
 536:.\Generated_Source\PSoC5/CyLib.c ****     {
 537:.\Generated_Source\PSoC5/CyLib.c ****         /* Set the new trim first */
 538:.\Generated_Source\PSoC5/CyLib.c ****         CyIMO_SetTrimValue(freq);
 910              		.loc 1 538 0
 911 0084 FB79     		ldrb	r3, [r7, #7]	@ zero_extendqisi2
 912 0086 1846     		mov	r0, r3
 913 0088 FFF7FEFF 		bl	CyIMO_SetTrimValue
 914              	.L66:
 539:.\Generated_Source\PSoC5/CyLib.c ****     }
 540:.\Generated_Source\PSoC5/CyLib.c **** 
 541:.\Generated_Source\PSoC5/CyLib.c ****     /* Set the usbclk_on bit when using CY_IMO_FREQ_USB, if not clear it */
 542:.\Generated_Source\PSoC5/CyLib.c ****     switch(freq)
 915              		.loc 1 542 0
 916 008c FB79     		ldrb	r3, [r7, #7]	@ zero_extendqisi2
 917 008e 082B     		cmp	r3, #8
 918 0090 77D8     		bhi	.L67
 919 0092 01A2     		adr	r2, .L74
 920 0094 52F823F0 		ldr	pc, [r2, r3, lsl #2]
 921              		.align	2
 922              	.L74:
 923 0098 BD000000 		.word	.L68+1
 924 009c DF000000 		.word	.L69+1
 925 00a0 01010000 		.word	.L70+1
 926 00a4 1D010000 		.word	.L71+1
 927 00a8 3F010000 		.word	.L72+1
 928 00ac 83010000 		.word	.L67+1
 929 00b0 83010000 		.word	.L67+1
 930 00b4 83010000 		.word	.L67+1
 931 00b8 61010000 		.word	.L73+1
 932              	.L68:
 543:.\Generated_Source\PSoC5/CyLib.c ****     {
 544:.\Generated_Source\PSoC5/CyLib.c ****     case CY_IMO_FREQ_3MHZ:
 545:.\Generated_Source\PSoC5/CyLib.c ****         FASTCLK_IMO_CR = ((FASTCLK_IMO_CR & CLOCK_IMO_RANGE_CLEAR) |
 933              		.loc 1 545 0
ARM GAS  C:\Users\Heiwa\AppData\Local\Temp\ccuYQ69z.s 			page 27


 934 00bc 44F20023 		movw	r3, #:lower16:1073758720
 935 00c0 C4F20003 		movt	r3, #:upper16:1073758720
 936 00c4 44F20022 		movw	r2, #:lower16:1073758720
 937 00c8 C4F20002 		movt	r2, #:upper16:1073758720
 938 00cc 1278     		ldrb	r2, [r2, #0]
 939 00ce D2B2     		uxtb	r2, r2
 940 00d0 02F0B802 		and	r2, r2, #184
 941 00d4 42F00302 		orr	r2, r2, #3
 942 00d8 D2B2     		uxtb	r2, r2
 943 00da 1A70     		strb	r2, [r3, #0]
 546:.\Generated_Source\PSoC5/CyLib.c ****             CLOCK_IMO_3MHZ_VALUE) & ~FASTCLK_IMO_USBCLK_ON_SET;
 547:.\Generated_Source\PSoC5/CyLib.c ****         break;
 944              		.loc 1 547 0
 945 00dc 55E0     		b	.L75
 946              	.L69:
 548:.\Generated_Source\PSoC5/CyLib.c **** 
 549:.\Generated_Source\PSoC5/CyLib.c ****     case CY_IMO_FREQ_6MHZ:
 550:.\Generated_Source\PSoC5/CyLib.c ****         FASTCLK_IMO_CR = ((FASTCLK_IMO_CR & CLOCK_IMO_RANGE_CLEAR) |
 947              		.loc 1 550 0
 948 00de 44F20023 		movw	r3, #:lower16:1073758720
 949 00e2 C4F20003 		movt	r3, #:upper16:1073758720
 950 00e6 44F20022 		movw	r2, #:lower16:1073758720
 951 00ea C4F20002 		movt	r2, #:upper16:1073758720
 952 00ee 1278     		ldrb	r2, [r2, #0]
 953 00f0 D2B2     		uxtb	r2, r2
 954 00f2 02F0B802 		and	r2, r2, #184
 955 00f6 42F00102 		orr	r2, r2, #1
 956 00fa D2B2     		uxtb	r2, r2
 957 00fc 1A70     		strb	r2, [r3, #0]
 551:.\Generated_Source\PSoC5/CyLib.c ****             CLOCK_IMO_6MHZ_VALUE) & ~FASTCLK_IMO_USBCLK_ON_SET;
 552:.\Generated_Source\PSoC5/CyLib.c ****         break;
 958              		.loc 1 552 0
 959 00fe 44E0     		b	.L75
 960              	.L70:
 553:.\Generated_Source\PSoC5/CyLib.c **** 
 554:.\Generated_Source\PSoC5/CyLib.c ****     case CY_IMO_FREQ_12MHZ:
 555:.\Generated_Source\PSoC5/CyLib.c ****         FASTCLK_IMO_CR = ((FASTCLK_IMO_CR & CLOCK_IMO_RANGE_CLEAR) |
 961              		.loc 1 555 0
 962 0100 44F20023 		movw	r3, #:lower16:1073758720
 963 0104 C4F20003 		movt	r3, #:upper16:1073758720
 964 0108 44F20022 		movw	r2, #:lower16:1073758720
 965 010c C4F20002 		movt	r2, #:upper16:1073758720
 966 0110 1278     		ldrb	r2, [r2, #0]
 967 0112 D2B2     		uxtb	r2, r2
 968 0114 02F0B802 		and	r2, r2, #184
 969 0118 1A70     		strb	r2, [r3, #0]
 556:.\Generated_Source\PSoC5/CyLib.c ****             CLOCK_IMO_12MHZ_VALUE) & ~FASTCLK_IMO_USBCLK_ON_SET;
 557:.\Generated_Source\PSoC5/CyLib.c ****         break;
 970              		.loc 1 557 0
 971 011a 36E0     		b	.L75
 972              	.L71:
 558:.\Generated_Source\PSoC5/CyLib.c **** 
 559:.\Generated_Source\PSoC5/CyLib.c ****     case CY_IMO_FREQ_24MHZ:
 560:.\Generated_Source\PSoC5/CyLib.c ****         FASTCLK_IMO_CR = ((FASTCLK_IMO_CR & CLOCK_IMO_RANGE_CLEAR) |
 973              		.loc 1 560 0
 974 011c 44F20023 		movw	r3, #:lower16:1073758720
 975 0120 C4F20003 		movt	r3, #:upper16:1073758720
ARM GAS  C:\Users\Heiwa\AppData\Local\Temp\ccuYQ69z.s 			page 28


 976 0124 44F20022 		movw	r2, #:lower16:1073758720
 977 0128 C4F20002 		movt	r2, #:upper16:1073758720
 978 012c 1278     		ldrb	r2, [r2, #0]
 979 012e D2B2     		uxtb	r2, r2
 980 0130 02F0B802 		and	r2, r2, #184
 981 0134 42F00202 		orr	r2, r2, #2
 982 0138 D2B2     		uxtb	r2, r2
 983 013a 1A70     		strb	r2, [r3, #0]
 561:.\Generated_Source\PSoC5/CyLib.c ****             CLOCK_IMO_24MHZ_VALUE) & ~FASTCLK_IMO_USBCLK_ON_SET;
 562:.\Generated_Source\PSoC5/CyLib.c ****         break;
 984              		.loc 1 562 0
 985 013c 25E0     		b	.L75
 986              	.L72:
 563:.\Generated_Source\PSoC5/CyLib.c **** 
 564:.\Generated_Source\PSoC5/CyLib.c ****     case CY_IMO_FREQ_48MHZ:
 565:.\Generated_Source\PSoC5/CyLib.c ****         FASTCLK_IMO_CR = ((FASTCLK_IMO_CR & CLOCK_IMO_RANGE_CLEAR) |
 987              		.loc 1 565 0
 988 013e 44F20023 		movw	r3, #:lower16:1073758720
 989 0142 C4F20003 		movt	r3, #:upper16:1073758720
 990 0146 44F20022 		movw	r2, #:lower16:1073758720
 991 014a C4F20002 		movt	r2, #:upper16:1073758720
 992 014e 1278     		ldrb	r2, [r2, #0]
 993 0150 D2B2     		uxtb	r2, r2
 994 0152 02F0B802 		and	r2, r2, #184
 995 0156 42F00402 		orr	r2, r2, #4
 996 015a D2B2     		uxtb	r2, r2
 997 015c 1A70     		strb	r2, [r3, #0]
 566:.\Generated_Source\PSoC5/CyLib.c ****             CLOCK_IMO_48MHZ_VALUE) & ~FASTCLK_IMO_USBCLK_ON_SET;
 567:.\Generated_Source\PSoC5/CyLib.c ****         break;
 998              		.loc 1 567 0
 999 015e 14E0     		b	.L75
 1000              	.L73:
 568:.\Generated_Source\PSoC5/CyLib.c **** 
 569:.\Generated_Source\PSoC5/CyLib.c ****     /* The IMO frequencies above 48 MHz are not supported by PSoC5 */
 570:.\Generated_Source\PSoC5/CyLib.c ****     #if(!CY_PSOC5A)
 571:.\Generated_Source\PSoC5/CyLib.c **** 
 572:.\Generated_Source\PSoC5/CyLib.c ****     case CY_IMO_FREQ_62MHZ:
 573:.\Generated_Source\PSoC5/CyLib.c ****         FASTCLK_IMO_CR = ((FASTCLK_IMO_CR & CLOCK_IMO_RANGE_CLEAR) |
 574:.\Generated_Source\PSoC5/CyLib.c ****             CLOCK_IMO_62MHZ_VALUE) & ~FASTCLK_IMO_USBCLK_ON_SET;
 575:.\Generated_Source\PSoC5/CyLib.c ****         break;
 576:.\Generated_Source\PSoC5/CyLib.c **** 
 577:.\Generated_Source\PSoC5/CyLib.c ****     #endif  /* (!CY_PSOC5A) */
 578:.\Generated_Source\PSoC5/CyLib.c **** 
 579:.\Generated_Source\PSoC5/CyLib.c ****     case CY_IMO_FREQ_USB:
 580:.\Generated_Source\PSoC5/CyLib.c ****         FASTCLK_IMO_CR = ((FASTCLK_IMO_CR & CLOCK_IMO_RANGE_CLEAR) |
 1001              		.loc 1 580 0
 1002 0160 44F20023 		movw	r3, #:lower16:1073758720
 1003 0164 C4F20003 		movt	r3, #:upper16:1073758720
 1004 0168 44F20022 		movw	r2, #:lower16:1073758720
 1005 016c C4F20002 		movt	r2, #:upper16:1073758720
 1006 0170 1278     		ldrb	r2, [r2, #0]
 1007 0172 D2B2     		uxtb	r2, r2
 1008 0174 02F0B802 		and	r2, r2, #184
 1009 0178 42F04202 		orr	r2, r2, #66
 1010 017c D2B2     		uxtb	r2, r2
 1011 017e 1A70     		strb	r2, [r3, #0]
 581:.\Generated_Source\PSoC5/CyLib.c ****             CLOCK_IMO_24MHZ_VALUE) | FASTCLK_IMO_USBCLK_ON_SET;
ARM GAS  C:\Users\Heiwa\AppData\Local\Temp\ccuYQ69z.s 			page 29


 582:.\Generated_Source\PSoC5/CyLib.c ****         break;
 1012              		.loc 1 582 0
 1013 0180 03E0     		b	.L75
 1014              	.L67:
 583:.\Generated_Source\PSoC5/CyLib.c **** 
 584:.\Generated_Source\PSoC5/CyLib.c ****     default:
 585:.\Generated_Source\PSoC5/CyLib.c ****         CYASSERT((uint32) 0);
 1015              		.loc 1 585 0
 1016 0182 4FF00000 		mov	r0, #0
 1017 0186 FFF7FEFF 		bl	CyHalt
 1018              	.L75:
 586:.\Generated_Source\PSoC5/CyLib.c ****         break;
 587:.\Generated_Source\PSoC5/CyLib.c ****     }
 588:.\Generated_Source\PSoC5/CyLib.c **** 
 589:.\Generated_Source\PSoC5/CyLib.c ****     /* Turn on the IMO Doubler, if switching to CY_IMO_FREQ_USB */
 590:.\Generated_Source\PSoC5/CyLib.c ****     if (freq == CY_IMO_FREQ_USB)
 1019              		.loc 1 590 0
 1020 018a FB79     		ldrb	r3, [r7, #7]	@ zero_extendqisi2
 1021 018c 082B     		cmp	r3, #8
 1022 018e 02D1     		bne	.L76
 591:.\Generated_Source\PSoC5/CyLib.c ****     {
 592:.\Generated_Source\PSoC5/CyLib.c ****         CyIMO_EnableDoubler();
 1023              		.loc 1 592 0
 1024 0190 FFF7FEFF 		bl	CyIMO_EnableDoubler
 1025 0194 01E0     		b	.L77
 1026              	.L76:
 593:.\Generated_Source\PSoC5/CyLib.c ****     }
 594:.\Generated_Source\PSoC5/CyLib.c ****     else
 595:.\Generated_Source\PSoC5/CyLib.c ****     {
 596:.\Generated_Source\PSoC5/CyLib.c ****         CyIMO_DisableDoubler();
 1027              		.loc 1 596 0
 1028 0196 FFF7FEFF 		bl	CyIMO_DisableDoubler
 1029              	.L77:
 597:.\Generated_Source\PSoC5/CyLib.c ****     }
 598:.\Generated_Source\PSoC5/CyLib.c **** 
 599:.\Generated_Source\PSoC5/CyLib.c ****     if (next_freq < current_freq)
 1030              		.loc 1 599 0
 1031 019a FA7B     		ldrb	r2, [r7, #15]	@ zero_extendqisi2
 1032 019c BB7B     		ldrb	r3, [r7, #14]	@ zero_extendqisi2
 1033 019e 9A42     		cmp	r2, r3
 1034 01a0 03D2     		bcs	.L79
 600:.\Generated_Source\PSoC5/CyLib.c ****     {
 601:.\Generated_Source\PSoC5/CyLib.c ****         /* Set the new trim after setting the frequency */
 602:.\Generated_Source\PSoC5/CyLib.c ****         CyIMO_SetTrimValue(freq);
 1035              		.loc 1 602 0
 1036 01a2 FB79     		ldrb	r3, [r7, #7]	@ zero_extendqisi2
 1037 01a4 1846     		mov	r0, r3
 1038 01a6 FFF7FEFF 		bl	CyIMO_SetTrimValue
 1039              	.L79:
 603:.\Generated_Source\PSoC5/CyLib.c ****     }
 604:.\Generated_Source\PSoC5/CyLib.c **** }
 1040              		.loc 1 604 0
 1041 01aa 07F11007 		add	r7, r7, #16
 1042 01ae BD46     		mov	sp, r7
 1043 01b0 80BD     		pop	{r7, pc}
 1044              		.cfi_endproc
 1045              	.LFE8:
ARM GAS  C:\Users\Heiwa\AppData\Local\Temp\ccuYQ69z.s 			page 30


 1046              		.size	CyIMO_SetFreq, .-CyIMO_SetFreq
 1047 01b2 00BF     		.section	.text.CyIMO_SetSource,"ax",%progbits
 1048              		.align	2
 1049              		.global	CyIMO_SetSource
 1050              		.thumb
 1051              		.thumb_func
 1052              		.type	CyIMO_SetSource, %function
 1053              	CyIMO_SetSource:
 1054              	.LFB9:
 605:.\Generated_Source\PSoC5/CyLib.c **** 
 606:.\Generated_Source\PSoC5/CyLib.c **** 
 607:.\Generated_Source\PSoC5/CyLib.c **** /*******************************************************************************
 608:.\Generated_Source\PSoC5/CyLib.c **** * Function Name: CyIMO_SetSource
 609:.\Generated_Source\PSoC5/CyLib.c **** ********************************************************************************
 610:.\Generated_Source\PSoC5/CyLib.c **** *
 611:.\Generated_Source\PSoC5/CyLib.c **** * Summary:
 612:.\Generated_Source\PSoC5/CyLib.c **** *  Sets the source of the clock output from the IMO block.
 613:.\Generated_Source\PSoC5/CyLib.c **** *
 614:.\Generated_Source\PSoC5/CyLib.c **** *  The output from the IMO is by default the IMO itself. Optionally the MHz
 615:.\Generated_Source\PSoC5/CyLib.c **** *  Crystal or a DSI input can be the source of the IMO output instead.
 616:.\Generated_Source\PSoC5/CyLib.c **** *
 617:.\Generated_Source\PSoC5/CyLib.c **** * Parameters:
 618:.\Generated_Source\PSoC5/CyLib.c **** *   source, CY_IMO_SOURCE_DSI to set the DSI as source.
 619:.\Generated_Source\PSoC5/CyLib.c **** *           CY_IMO_SOURCE_XTAL to set the MHz as source.
 620:.\Generated_Source\PSoC5/CyLib.c **** *           CY_IMO_SOURCE_IMO to set the IMO itself.
 621:.\Generated_Source\PSoC5/CyLib.c **** *
 622:.\Generated_Source\PSoC5/CyLib.c **** * Return:
 623:.\Generated_Source\PSoC5/CyLib.c **** *  None
 624:.\Generated_Source\PSoC5/CyLib.c **** *
 625:.\Generated_Source\PSoC5/CyLib.c **** * Side Effects:
 626:.\Generated_Source\PSoC5/CyLib.c **** *  If as result of this function execution the CPU clock frequency is increased
 627:.\Generated_Source\PSoC5/CyLib.c **** *  then the number of clock cycles the cache will wait before it samples data
 628:.\Generated_Source\PSoC5/CyLib.c **** *  coming back from Flash must be adjusted by calling CyFlash_SetWaitCycles()
 629:.\Generated_Source\PSoC5/CyLib.c **** *  with appropriate parameter. It can be optionally called if CPU clock
 630:.\Generated_Source\PSoC5/CyLib.c **** *  frequency is lowered in order to improve CPU performance.
 631:.\Generated_Source\PSoC5/CyLib.c **** *  See CyFlash_SetWaitCycles() description for more information.
 632:.\Generated_Source\PSoC5/CyLib.c **** *
 633:.\Generated_Source\PSoC5/CyLib.c **** *******************************************************************************/
 634:.\Generated_Source\PSoC5/CyLib.c **** void CyIMO_SetSource(uint8 source) 
 635:.\Generated_Source\PSoC5/CyLib.c **** {
 1055              		.loc 1 635 0
 1056              		.cfi_startproc
 1057              		@ args = 0, pretend = 0, frame = 8
 1058              		@ frame_needed = 1, uses_anonymous_args = 0
 1059 0000 80B5     		push	{r7, lr}
 1060              	.LCFI25:
 1061              		.cfi_def_cfa_offset 8
 1062 0002 82B0     		sub	sp, sp, #8
 1063              	.LCFI26:
 1064              		.cfi_def_cfa_offset 16
 1065 0004 00AF     		add	r7, sp, #0
 1066              		.cfi_offset 14, -4
 1067              		.cfi_offset 7, -8
 1068              	.LCFI27:
 1069              		.cfi_def_cfa_register 7
 1070 0006 0346     		mov	r3, r0
 1071 0008 FB71     		strb	r3, [r7, #7]
ARM GAS  C:\Users\Heiwa\AppData\Local\Temp\ccuYQ69z.s 			page 31


 636:.\Generated_Source\PSoC5/CyLib.c ****     /* Set the xclken bit of FASTCLK_IMO_CR regigster */
 637:.\Generated_Source\PSoC5/CyLib.c ****     switch(source)
 1072              		.loc 1 637 0
 1073 000a FB79     		ldrb	r3, [r7, #7]	@ zero_extendqisi2
 1074 000c 012B     		cmp	r3, #1
 1075 000e 20D0     		beq	.L83
 1076 0010 022B     		cmp	r3, #2
 1077 0012 02D0     		beq	.L84
 1078 0014 002B     		cmp	r3, #0
 1079 0016 39D0     		beq	.L82
 1080 0018 46E0     		b	.L87
 1081              	.L84:
 638:.\Generated_Source\PSoC5/CyLib.c ****     {
 639:.\Generated_Source\PSoC5/CyLib.c ****     case CY_IMO_SOURCE_DSI:
 640:.\Generated_Source\PSoC5/CyLib.c ****         CLKDIST_CR &= ~CLOCK_IMO2X_XTAL;
 1082              		.loc 1 640 0
 1083 001a 44F20003 		movw	r3, #:lower16:1073758208
 1084 001e C4F20003 		movt	r3, #:upper16:1073758208
 1085 0022 44F20002 		movw	r2, #:lower16:1073758208
 1086 0026 C4F20002 		movt	r2, #:upper16:1073758208
 1087 002a 1278     		ldrb	r2, [r2, #0]
 1088 002c D2B2     		uxtb	r2, r2
 1089 002e 02F0BF02 		and	r2, r2, #191
 1090 0032 1A70     		strb	r2, [r3, #0]
 641:.\Generated_Source\PSoC5/CyLib.c ****         FASTCLK_IMO_CR |= CLOCK_IMO_IMO;
 1091              		.loc 1 641 0
 1092 0034 44F20023 		movw	r3, #:lower16:1073758720
 1093 0038 C4F20003 		movt	r3, #:upper16:1073758720
 1094 003c 44F20022 		movw	r2, #:lower16:1073758720
 1095 0040 C4F20002 		movt	r2, #:upper16:1073758720
 1096 0044 1278     		ldrb	r2, [r2, #0]
 1097 0046 D2B2     		uxtb	r2, r2
 1098 0048 42F02002 		orr	r2, r2, #32
 1099 004c D2B2     		uxtb	r2, r2
 1100 004e 1A70     		strb	r2, [r3, #0]
 642:.\Generated_Source\PSoC5/CyLib.c ****         break;
 1101              		.loc 1 642 0
 1102 0050 2EE0     		b	.L86
 1103              	.L83:
 643:.\Generated_Source\PSoC5/CyLib.c **** 
 644:.\Generated_Source\PSoC5/CyLib.c ****     case CY_IMO_SOURCE_XTAL:
 645:.\Generated_Source\PSoC5/CyLib.c ****         CLKDIST_CR |= CLOCK_IMO2X_XTAL;
 1104              		.loc 1 645 0
 1105 0052 44F20003 		movw	r3, #:lower16:1073758208
 1106 0056 C4F20003 		movt	r3, #:upper16:1073758208
 1107 005a 44F20002 		movw	r2, #:lower16:1073758208
 1108 005e C4F20002 		movt	r2, #:upper16:1073758208
 1109 0062 1278     		ldrb	r2, [r2, #0]
 1110 0064 D2B2     		uxtb	r2, r2
 1111 0066 42F04002 		orr	r2, r2, #64
 1112 006a D2B2     		uxtb	r2, r2
 1113 006c 1A70     		strb	r2, [r3, #0]
 646:.\Generated_Source\PSoC5/CyLib.c ****         FASTCLK_IMO_CR |= CLOCK_IMO_IMO;
 1114              		.loc 1 646 0
 1115 006e 44F20023 		movw	r3, #:lower16:1073758720
 1116 0072 C4F20003 		movt	r3, #:upper16:1073758720
 1117 0076 44F20022 		movw	r2, #:lower16:1073758720
ARM GAS  C:\Users\Heiwa\AppData\Local\Temp\ccuYQ69z.s 			page 32


 1118 007a C4F20002 		movt	r2, #:upper16:1073758720
 1119 007e 1278     		ldrb	r2, [r2, #0]
 1120 0080 D2B2     		uxtb	r2, r2
 1121 0082 42F02002 		orr	r2, r2, #32
 1122 0086 D2B2     		uxtb	r2, r2
 1123 0088 1A70     		strb	r2, [r3, #0]
 647:.\Generated_Source\PSoC5/CyLib.c ****         break;
 1124              		.loc 1 647 0
 1125 008a 11E0     		b	.L86
 1126              	.L82:
 648:.\Generated_Source\PSoC5/CyLib.c **** 
 649:.\Generated_Source\PSoC5/CyLib.c ****     case CY_IMO_SOURCE_IMO:
 650:.\Generated_Source\PSoC5/CyLib.c ****         FASTCLK_IMO_CR &= ~CLOCK_IMO_IMO;
 1127              		.loc 1 650 0
 1128 008c 44F20023 		movw	r3, #:lower16:1073758720
 1129 0090 C4F20003 		movt	r3, #:upper16:1073758720
 1130 0094 44F20022 		movw	r2, #:lower16:1073758720
 1131 0098 C4F20002 		movt	r2, #:upper16:1073758720
 1132 009c 1278     		ldrb	r2, [r2, #0]
 1133 009e D2B2     		uxtb	r2, r2
 1134 00a0 02F0DF02 		and	r2, r2, #223
 1135 00a4 1A70     		strb	r2, [r3, #0]
 651:.\Generated_Source\PSoC5/CyLib.c ****         break;
 1136              		.loc 1 651 0
 1137 00a6 03E0     		b	.L86
 1138              	.L87:
 652:.\Generated_Source\PSoC5/CyLib.c **** 
 653:.\Generated_Source\PSoC5/CyLib.c ****     default:
 654:.\Generated_Source\PSoC5/CyLib.c ****         /* Incorrect source value */
 655:.\Generated_Source\PSoC5/CyLib.c ****         CYASSERT((uint32) 0);
 1139              		.loc 1 655 0
 1140 00a8 4FF00000 		mov	r0, #0
 1141 00ac FFF7FEFF 		bl	CyHalt
 1142              	.L86:
 656:.\Generated_Source\PSoC5/CyLib.c ****         break;
 657:.\Generated_Source\PSoC5/CyLib.c ****     }
 658:.\Generated_Source\PSoC5/CyLib.c **** }
 1143              		.loc 1 658 0
 1144 00b0 07F10807 		add	r7, r7, #8
 1145 00b4 BD46     		mov	sp, r7
 1146 00b6 80BD     		pop	{r7, pc}
 1147              		.cfi_endproc
 1148              	.LFE9:
 1149              		.size	CyIMO_SetSource, .-CyIMO_SetSource
 1150              		.section	.text.CyIMO_EnableDoubler,"ax",%progbits
 1151              		.align	2
 1152              		.global	CyIMO_EnableDoubler
 1153              		.thumb
 1154              		.thumb_func
 1155              		.type	CyIMO_EnableDoubler, %function
 1156              	CyIMO_EnableDoubler:
 1157              	.LFB10:
 659:.\Generated_Source\PSoC5/CyLib.c **** 
 660:.\Generated_Source\PSoC5/CyLib.c **** 
 661:.\Generated_Source\PSoC5/CyLib.c **** /*******************************************************************************
 662:.\Generated_Source\PSoC5/CyLib.c **** * Function Name: CyIMO_EnableDoubler
 663:.\Generated_Source\PSoC5/CyLib.c **** ********************************************************************************
ARM GAS  C:\Users\Heiwa\AppData\Local\Temp\ccuYQ69z.s 			page 33


 664:.\Generated_Source\PSoC5/CyLib.c **** *
 665:.\Generated_Source\PSoC5/CyLib.c **** * Summary:
 666:.\Generated_Source\PSoC5/CyLib.c **** *  Enables the IMO doubler.  The 2x frequency clock is used to convert a 24 MHz
 667:.\Generated_Source\PSoC5/CyLib.c **** *  input to a 48 MHz output for use by the USB block.
 668:.\Generated_Source\PSoC5/CyLib.c **** *
 669:.\Generated_Source\PSoC5/CyLib.c **** * Parameters:
 670:.\Generated_Source\PSoC5/CyLib.c **** *  None
 671:.\Generated_Source\PSoC5/CyLib.c **** *
 672:.\Generated_Source\PSoC5/CyLib.c **** * Return:
 673:.\Generated_Source\PSoC5/CyLib.c **** *  None
 674:.\Generated_Source\PSoC5/CyLib.c **** *
 675:.\Generated_Source\PSoC5/CyLib.c **** *******************************************************************************/
 676:.\Generated_Source\PSoC5/CyLib.c **** void CyIMO_EnableDoubler(void) 
 677:.\Generated_Source\PSoC5/CyLib.c **** {
 1158              		.loc 1 677 0
 1159              		.cfi_startproc
 1160              		@ args = 0, pretend = 0, frame = 0
 1161              		@ frame_needed = 1, uses_anonymous_args = 0
 1162              		@ link register save eliminated.
 1163 0000 80B4     		push	{r7}
 1164              	.LCFI28:
 1165              		.cfi_def_cfa_offset 4
 1166 0002 00AF     		add	r7, sp, #0
 1167              		.cfi_offset 7, -4
 1168              	.LCFI29:
 1169              		.cfi_def_cfa_register 7
 678:.\Generated_Source\PSoC5/CyLib.c ****     /* Set the FASTCLK_IMO_CR_PTR regigster's 4th bit */
 679:.\Generated_Source\PSoC5/CyLib.c ****     FASTCLK_IMO_CR |= IMO_DOUBLER_ENABLE;
 1170              		.loc 1 679 0
 1171 0004 44F20023 		movw	r3, #:lower16:1073758720
 1172 0008 C4F20003 		movt	r3, #:upper16:1073758720
 1173 000c 44F20022 		movw	r2, #:lower16:1073758720
 1174 0010 C4F20002 		movt	r2, #:upper16:1073758720
 1175 0014 1278     		ldrb	r2, [r2, #0]
 1176 0016 D2B2     		uxtb	r2, r2
 1177 0018 42F01002 		orr	r2, r2, #16
 1178 001c D2B2     		uxtb	r2, r2
 1179 001e 1A70     		strb	r2, [r3, #0]
 680:.\Generated_Source\PSoC5/CyLib.c **** }
 1180              		.loc 1 680 0
 1181 0020 BD46     		mov	sp, r7
 1182 0022 80BC     		pop	{r7}
 1183 0024 7047     		bx	lr
 1184              		.cfi_endproc
 1185              	.LFE10:
 1186              		.size	CyIMO_EnableDoubler, .-CyIMO_EnableDoubler
 1187 0026 00BF     		.section	.text.CyIMO_DisableDoubler,"ax",%progbits
 1188              		.align	2
 1189              		.global	CyIMO_DisableDoubler
 1190              		.thumb
 1191              		.thumb_func
 1192              		.type	CyIMO_DisableDoubler, %function
 1193              	CyIMO_DisableDoubler:
 1194              	.LFB11:
 681:.\Generated_Source\PSoC5/CyLib.c **** 
 682:.\Generated_Source\PSoC5/CyLib.c **** 
 683:.\Generated_Source\PSoC5/CyLib.c **** /*******************************************************************************
ARM GAS  C:\Users\Heiwa\AppData\Local\Temp\ccuYQ69z.s 			page 34


 684:.\Generated_Source\PSoC5/CyLib.c **** * Function Name: CyIMO_DisableDoubler
 685:.\Generated_Source\PSoC5/CyLib.c **** ********************************************************************************
 686:.\Generated_Source\PSoC5/CyLib.c **** *
 687:.\Generated_Source\PSoC5/CyLib.c **** * Summary:
 688:.\Generated_Source\PSoC5/CyLib.c **** *   Disables the IMO doubler.
 689:.\Generated_Source\PSoC5/CyLib.c **** *
 690:.\Generated_Source\PSoC5/CyLib.c **** * Parameters:
 691:.\Generated_Source\PSoC5/CyLib.c **** *  None
 692:.\Generated_Source\PSoC5/CyLib.c **** *
 693:.\Generated_Source\PSoC5/CyLib.c **** * Return:
 694:.\Generated_Source\PSoC5/CyLib.c **** *  None
 695:.\Generated_Source\PSoC5/CyLib.c **** *
 696:.\Generated_Source\PSoC5/CyLib.c **** *******************************************************************************/
 697:.\Generated_Source\PSoC5/CyLib.c **** void CyIMO_DisableDoubler(void) 
 698:.\Generated_Source\PSoC5/CyLib.c **** {
 1195              		.loc 1 698 0
 1196              		.cfi_startproc
 1197              		@ args = 0, pretend = 0, frame = 0
 1198              		@ frame_needed = 1, uses_anonymous_args = 0
 1199              		@ link register save eliminated.
 1200 0000 80B4     		push	{r7}
 1201              	.LCFI30:
 1202              		.cfi_def_cfa_offset 4
 1203 0002 00AF     		add	r7, sp, #0
 1204              		.cfi_offset 7, -4
 1205              	.LCFI31:
 1206              		.cfi_def_cfa_register 7
 699:.\Generated_Source\PSoC5/CyLib.c ****     FASTCLK_IMO_CR &= ~IMO_DOUBLER_ENABLE;
 1207              		.loc 1 699 0
 1208 0004 44F20023 		movw	r3, #:lower16:1073758720
 1209 0008 C4F20003 		movt	r3, #:upper16:1073758720
 1210 000c 44F20022 		movw	r2, #:lower16:1073758720
 1211 0010 C4F20002 		movt	r2, #:upper16:1073758720
 1212 0014 1278     		ldrb	r2, [r2, #0]
 1213 0016 D2B2     		uxtb	r2, r2
 1214 0018 02F0EF02 		and	r2, r2, #239
 1215 001c 1A70     		strb	r2, [r3, #0]
 700:.\Generated_Source\PSoC5/CyLib.c **** }
 1216              		.loc 1 700 0
 1217 001e BD46     		mov	sp, r7
 1218 0020 80BC     		pop	{r7}
 1219 0022 7047     		bx	lr
 1220              		.cfi_endproc
 1221              	.LFE11:
 1222              		.size	CyIMO_DisableDoubler, .-CyIMO_DisableDoubler
 1223              		.section	.text.CyMasterClk_SetSource,"ax",%progbits
 1224              		.align	2
 1225              		.global	CyMasterClk_SetSource
 1226              		.thumb
 1227              		.thumb_func
 1228              		.type	CyMasterClk_SetSource, %function
 1229              	CyMasterClk_SetSource:
 1230              	.LFB12:
 701:.\Generated_Source\PSoC5/CyLib.c **** 
 702:.\Generated_Source\PSoC5/CyLib.c **** 
 703:.\Generated_Source\PSoC5/CyLib.c **** /*******************************************************************************
 704:.\Generated_Source\PSoC5/CyLib.c **** * Function Name: CyMasterClk_SetSource
ARM GAS  C:\Users\Heiwa\AppData\Local\Temp\ccuYQ69z.s 			page 35


 705:.\Generated_Source\PSoC5/CyLib.c **** ********************************************************************************
 706:.\Generated_Source\PSoC5/CyLib.c **** *
 707:.\Generated_Source\PSoC5/CyLib.c **** * Summary:
 708:.\Generated_Source\PSoC5/CyLib.c **** *  Sets the source of the master clock.
 709:.\Generated_Source\PSoC5/CyLib.c **** *
 710:.\Generated_Source\PSoC5/CyLib.c **** * Parameters:
 711:.\Generated_Source\PSoC5/CyLib.c **** *   source: One of the four available Master clock sources.
 712:.\Generated_Source\PSoC5/CyLib.c **** *     CY_MASTER_SOURCE_IMO
 713:.\Generated_Source\PSoC5/CyLib.c **** *     CY_MASTER_SOURCE_PLL
 714:.\Generated_Source\PSoC5/CyLib.c **** *     CY_MASTER_SOURCE_XTAL
 715:.\Generated_Source\PSoC5/CyLib.c **** *     CY_MASTER_SOURCE_DSI
 716:.\Generated_Source\PSoC5/CyLib.c **** *
 717:.\Generated_Source\PSoC5/CyLib.c **** * Return:
 718:.\Generated_Source\PSoC5/CyLib.c **** *  None
 719:.\Generated_Source\PSoC5/CyLib.c **** *
 720:.\Generated_Source\PSoC5/CyLib.c **** * Side Effects:
 721:.\Generated_Source\PSoC5/CyLib.c **** *  The current source and the new source must both be running and stable before
 722:.\Generated_Source\PSoC5/CyLib.c **** *  calling this function.
 723:.\Generated_Source\PSoC5/CyLib.c **** *
 724:.\Generated_Source\PSoC5/CyLib.c **** *  If as result of this function execution the CPU clock frequency is increased
 725:.\Generated_Source\PSoC5/CyLib.c **** *  then the number of clock cycles the cache will wait before it samples data
 726:.\Generated_Source\PSoC5/CyLib.c **** *  coming back from Flash must be adjusted by calling CyFlash_SetWaitCycles()
 727:.\Generated_Source\PSoC5/CyLib.c **** *  with appropriate parameter. It can be optionally called if CPU clock
 728:.\Generated_Source\PSoC5/CyLib.c **** *  frequency is lowered in order to improve CPU performance.
 729:.\Generated_Source\PSoC5/CyLib.c **** *  See CyFlash_SetWaitCycles() description for more information.
 730:.\Generated_Source\PSoC5/CyLib.c **** *
 731:.\Generated_Source\PSoC5/CyLib.c **** *******************************************************************************/
 732:.\Generated_Source\PSoC5/CyLib.c **** void CyMasterClk_SetSource(uint8 source) 
 733:.\Generated_Source\PSoC5/CyLib.c **** {
 1231              		.loc 1 733 0
 1232              		.cfi_startproc
 1233              		@ args = 0, pretend = 0, frame = 16
 1234              		@ frame_needed = 1, uses_anonymous_args = 0
 1235              		@ link register save eliminated.
 1236 0000 80B4     		push	{r7}
 1237              	.LCFI32:
 1238              		.cfi_def_cfa_offset 4
 1239 0002 85B0     		sub	sp, sp, #20
 1240              	.LCFI33:
 1241              		.cfi_def_cfa_offset 24
 1242 0004 00AF     		add	r7, sp, #0
 1243              		.cfi_offset 7, -4
 1244              	.LCFI34:
 1245              		.cfi_def_cfa_register 7
 1246 0006 0346     		mov	r3, r0
 1247 0008 FB71     		strb	r3, [r7, #7]
 734:.\Generated_Source\PSoC5/CyLib.c ****     uint8 master_reg_1;
 735:.\Generated_Source\PSoC5/CyLib.c **** 
 736:.\Generated_Source\PSoC5/CyLib.c ****     #if(CY_PSOC5A)
 737:.\Generated_Source\PSoC5/CyLib.c **** 
 738:.\Generated_Source\PSoC5/CyLib.c ****         uint8 master_reg_0;
 739:.\Generated_Source\PSoC5/CyLib.c **** 
 740:.\Generated_Source\PSoC5/CyLib.c ****         /* Read the current setting */
 741:.\Generated_Source\PSoC5/CyLib.c ****         master_reg_0 = CLKDIST_MSTR0;
 1248              		.loc 1 741 0
 1249 000a 44F20403 		movw	r3, #:lower16:1073758212
 1250 000e C4F20003 		movt	r3, #:upper16:1073758212
ARM GAS  C:\Users\Heiwa\AppData\Local\Temp\ccuYQ69z.s 			page 36


 1251 0012 1B78     		ldrb	r3, [r3, #0]
 1252 0014 FB73     		strb	r3, [r7, #15]
 742:.\Generated_Source\PSoC5/CyLib.c **** 
 743:.\Generated_Source\PSoC5/CyLib.c ****         /* Write a non-zero period to the master mux clock divider */
 744:.\Generated_Source\PSoC5/CyLib.c ****         if (master_reg_0 == 0x00u)
 1253              		.loc 1 744 0
 1254 0016 FB7B     		ldrb	r3, [r7, #15]	@ zero_extendqisi2
 1255 0018 002B     		cmp	r3, #0
 1256 001a 06D1     		bne	.L93
 745:.\Generated_Source\PSoC5/CyLib.c ****         {
 746:.\Generated_Source\PSoC5/CyLib.c ****             CLKDIST_MSTR0 = 3;
 1257              		.loc 1 746 0
 1258 001c 44F20403 		movw	r3, #:lower16:1073758212
 1259 0020 C4F20003 		movt	r3, #:upper16:1073758212
 1260 0024 4FF00302 		mov	r2, #3
 1261 0028 1A70     		strb	r2, [r3, #0]
 1262              	.L93:
 747:.\Generated_Source\PSoC5/CyLib.c ****         }
 748:.\Generated_Source\PSoC5/CyLib.c **** 
 749:.\Generated_Source\PSoC5/CyLib.c ****     #endif  /* (CY_PSOC5A) */
 750:.\Generated_Source\PSoC5/CyLib.c **** 
 751:.\Generated_Source\PSoC5/CyLib.c ****     /* Read the current setting */
 752:.\Generated_Source\PSoC5/CyLib.c ****     master_reg_1 = CLKDIST_MSTR1;
 1263              		.loc 1 752 0
 1264 002a 44F20503 		movw	r3, #:lower16:1073758213
 1265 002e C4F20003 		movt	r3, #:upper16:1073758213
 1266 0032 1B78     		ldrb	r3, [r3, #0]
 1267 0034 BB73     		strb	r3, [r7, #14]
 753:.\Generated_Source\PSoC5/CyLib.c ****     CLKDIST_MSTR1 = (master_reg_1 & MASTER_CLK_SRC_CLEAR) | (source & ~MASTER_CLK_SRC_CLEAR);
 1268              		.loc 1 753 0
 1269 0036 44F20503 		movw	r3, #:lower16:1073758213
 1270 003a C4F20003 		movt	r3, #:upper16:1073758213
 1271 003e B97B     		ldrb	r1, [r7, #14]	@ zero_extendqisi2
 1272 0040 01F0FC01 		and	r1, r1, #252
 1273 0044 FA79     		ldrb	r2, [r7, #7]	@ zero_extendqisi2
 1274 0046 02F00302 		and	r2, r2, #3
 1275 004a 41EA0202 		orr	r2, r1, r2
 1276 004e D2B2     		uxtb	r2, r2
 1277 0050 1A70     		strb	r2, [r3, #0]
 754:.\Generated_Source\PSoC5/CyLib.c **** 
 755:.\Generated_Source\PSoC5/CyLib.c ****     #if(CY_PSOC5A)
 756:.\Generated_Source\PSoC5/CyLib.c **** 
 757:.\Generated_Source\PSoC5/CyLib.c ****         /* Restore zero period (if desired) to the master mux clock divider */
 758:.\Generated_Source\PSoC5/CyLib.c ****         if (master_reg_0 == 0x00u)
 1278              		.loc 1 758 0
 1279 0052 FB7B     		ldrb	r3, [r7, #15]	@ zero_extendqisi2
 1280 0054 002B     		cmp	r3, #0
 1281 0056 06D1     		bne	.L95
 759:.\Generated_Source\PSoC5/CyLib.c ****         {
 760:.\Generated_Source\PSoC5/CyLib.c ****             CLKDIST_MSTR0 = 0;
 1282              		.loc 1 760 0
 1283 0058 44F20403 		movw	r3, #:lower16:1073758212
 1284 005c C4F20003 		movt	r3, #:upper16:1073758212
 1285 0060 4FF00002 		mov	r2, #0
 1286 0064 1A70     		strb	r2, [r3, #0]
 1287              	.L95:
 761:.\Generated_Source\PSoC5/CyLib.c ****         }
ARM GAS  C:\Users\Heiwa\AppData\Local\Temp\ccuYQ69z.s 			page 37


 762:.\Generated_Source\PSoC5/CyLib.c **** 
 763:.\Generated_Source\PSoC5/CyLib.c ****     #endif  /* (CY_PSOC5A) */
 764:.\Generated_Source\PSoC5/CyLib.c **** }
 1288              		.loc 1 764 0
 1289 0066 07F11407 		add	r7, r7, #20
 1290 006a BD46     		mov	sp, r7
 1291 006c 80BC     		pop	{r7}
 1292 006e 7047     		bx	lr
 1293              		.cfi_endproc
 1294              	.LFE12:
 1295              		.size	CyMasterClk_SetSource, .-CyMasterClk_SetSource
 1296              		.section	.text.CyMasterClk_SetDivider,"ax",%progbits
 1297              		.align	2
 1298              		.global	CyMasterClk_SetDivider
 1299              		.thumb
 1300              		.thumb_func
 1301              		.type	CyMasterClk_SetDivider, %function
 1302              	CyMasterClk_SetDivider:
 1303              	.LFB13:
 765:.\Generated_Source\PSoC5/CyLib.c **** 
 766:.\Generated_Source\PSoC5/CyLib.c **** 
 767:.\Generated_Source\PSoC5/CyLib.c **** /*******************************************************************************
 768:.\Generated_Source\PSoC5/CyLib.c **** * Function Name: CyMasterClk_SetDivider
 769:.\Generated_Source\PSoC5/CyLib.c **** ********************************************************************************
 770:.\Generated_Source\PSoC5/CyLib.c **** *
 771:.\Generated_Source\PSoC5/CyLib.c **** * Summary:
 772:.\Generated_Source\PSoC5/CyLib.c **** *  Sets the divider value used to generate Master Clock.
 773:.\Generated_Source\PSoC5/CyLib.c **** *
 774:.\Generated_Source\PSoC5/CyLib.c **** * Parameters:
 775:.\Generated_Source\PSoC5/CyLib.c **** *  uint8 divider:
 776:.\Generated_Source\PSoC5/CyLib.c **** *   Valid range [0-255]. The clock will be divided by this value + 1.
 777:.\Generated_Source\PSoC5/CyLib.c **** *   For example to divide by 2 this parameter should be set to 1.
 778:.\Generated_Source\PSoC5/CyLib.c **** *
 779:.\Generated_Source\PSoC5/CyLib.c **** * Return:
 780:.\Generated_Source\PSoC5/CyLib.c **** *  None
 781:.\Generated_Source\PSoC5/CyLib.c **** *
 782:.\Generated_Source\PSoC5/CyLib.c **** * Side Effects:
 783:.\Generated_Source\PSoC5/CyLib.c **** *  If as result of this function execution the CPU clock frequency is increased
 784:.\Generated_Source\PSoC5/CyLib.c **** *  then the number of clock cycles the cache will wait before it samples data
 785:.\Generated_Source\PSoC5/CyLib.c **** *  coming back from Flash must be adjusted by calling CyFlash_SetWaitCycles()
 786:.\Generated_Source\PSoC5/CyLib.c **** *  with appropriate parameter. It can be optionally called if CPU clock
 787:.\Generated_Source\PSoC5/CyLib.c **** *  frequency is lowered in order to improve CPU performance.
 788:.\Generated_Source\PSoC5/CyLib.c **** *  See CyFlash_SetWaitCycles() description for more information.
 789:.\Generated_Source\PSoC5/CyLib.c **** *
 790:.\Generated_Source\PSoC5/CyLib.c **** *  When changing the Master or Bus clock divider value from div-by-n to div-by-1
 791:.\Generated_Source\PSoC5/CyLib.c **** *  the first clock cycle output after the div-by-1 can be up to 4 ns shorter
 792:.\Generated_Source\PSoC5/CyLib.c **** *  than the final/expected div-by-1 period.
 793:.\Generated_Source\PSoC5/CyLib.c **** *
 794:.\Generated_Source\PSoC5/CyLib.c **** *******************************************************************************/
 795:.\Generated_Source\PSoC5/CyLib.c **** void CyMasterClk_SetDivider(uint8 divider) 
 796:.\Generated_Source\PSoC5/CyLib.c **** {
 1304              		.loc 1 796 0
 1305              		.cfi_startproc
 1306              		@ args = 0, pretend = 0, frame = 8
 1307              		@ frame_needed = 1, uses_anonymous_args = 0
 1308              		@ link register save eliminated.
 1309 0000 80B4     		push	{r7}
ARM GAS  C:\Users\Heiwa\AppData\Local\Temp\ccuYQ69z.s 			page 38


 1310              	.LCFI35:
 1311              		.cfi_def_cfa_offset 4
 1312 0002 83B0     		sub	sp, sp, #12
 1313              	.LCFI36:
 1314              		.cfi_def_cfa_offset 16
 1315 0004 00AF     		add	r7, sp, #0
 1316              		.cfi_offset 7, -4
 1317              	.LCFI37:
 1318              		.cfi_def_cfa_register 7
 1319 0006 0346     		mov	r3, r0
 1320 0008 FB71     		strb	r3, [r7, #7]
 797:.\Generated_Source\PSoC5/CyLib.c ****     CLKDIST_MSTR0 = divider;
 1321              		.loc 1 797 0
 1322 000a 44F20403 		movw	r3, #:lower16:1073758212
 1323 000e C4F20003 		movt	r3, #:upper16:1073758212
 1324 0012 FA79     		ldrb	r2, [r7, #7]
 1325 0014 1A70     		strb	r2, [r3, #0]
 798:.\Generated_Source\PSoC5/CyLib.c **** }
 1326              		.loc 1 798 0
 1327 0016 07F10C07 		add	r7, r7, #12
 1328 001a BD46     		mov	sp, r7
 1329 001c 80BC     		pop	{r7}
 1330 001e 7047     		bx	lr
 1331              		.cfi_endproc
 1332              	.LFE13:
 1333              		.size	CyMasterClk_SetDivider, .-CyMasterClk_SetDivider
 1334              		.section	.text.CyBusClk_Internal_SetDivider,"ax",%progbits
 1335              		.align	2
 1336              		.global	CyBusClk_Internal_SetDivider
 1337              		.thumb
 1338              		.thumb_func
 1339              		.type	CyBusClk_Internal_SetDivider, %function
 1340              	CyBusClk_Internal_SetDivider:
 1341              	.LFB14:
 799:.\Generated_Source\PSoC5/CyLib.c **** 
 800:.\Generated_Source\PSoC5/CyLib.c **** 
 801:.\Generated_Source\PSoC5/CyLib.c **** /*******************************************************************************
 802:.\Generated_Source\PSoC5/CyLib.c **** * Function Name: CyBusClk_Internal_SetDivider
 803:.\Generated_Source\PSoC5/CyLib.c **** ********************************************************************************
 804:.\Generated_Source\PSoC5/CyLib.c **** *
 805:.\Generated_Source\PSoC5/CyLib.c **** * Summary:
 806:.\Generated_Source\PSoC5/CyLib.c **** *  Function used by CyBusClk_SetDivider(). For internal use only.
 807:.\Generated_Source\PSoC5/CyLib.c **** *
 808:.\Generated_Source\PSoC5/CyLib.c **** * Parameters:
 809:.\Generated_Source\PSoC5/CyLib.c **** *   divider: Valid range [0-65535].
 810:.\Generated_Source\PSoC5/CyLib.c **** *   The clock will be divided by this value + 1.
 811:.\Generated_Source\PSoC5/CyLib.c **** *   For example to divide by 2 this parameter should be set to 1.
 812:.\Generated_Source\PSoC5/CyLib.c **** *
 813:.\Generated_Source\PSoC5/CyLib.c **** * Return:
 814:.\Generated_Source\PSoC5/CyLib.c **** *  None
 815:.\Generated_Source\PSoC5/CyLib.c **** *
 816:.\Generated_Source\PSoC5/CyLib.c **** *******************************************************************************/
 817:.\Generated_Source\PSoC5/CyLib.c **** void CyBusClk_Internal_SetDivider(uint16 divider)
 818:.\Generated_Source\PSoC5/CyLib.c **** {
 1342              		.loc 1 818 0
 1343              		.cfi_startproc
 1344              		@ args = 0, pretend = 0, frame = 8
ARM GAS  C:\Users\Heiwa\AppData\Local\Temp\ccuYQ69z.s 			page 39


 1345              		@ frame_needed = 1, uses_anonymous_args = 0
 1346              		@ link register save eliminated.
 1347 0000 80B4     		push	{r7}
 1348              	.LCFI38:
 1349              		.cfi_def_cfa_offset 4
 1350 0002 83B0     		sub	sp, sp, #12
 1351              	.LCFI39:
 1352              		.cfi_def_cfa_offset 16
 1353 0004 00AF     		add	r7, sp, #0
 1354              		.cfi_offset 7, -4
 1355              	.LCFI40:
 1356              		.cfi_def_cfa_register 7
 1357 0006 0346     		mov	r3, r0
 1358 0008 FB80     		strh	r3, [r7, #6]	@ movhi
 819:.\Generated_Source\PSoC5/CyLib.c ****     /* Clear all the masks (CLKDIST_AMASK, CLKDIST_DMASK) */
 820:.\Generated_Source\PSoC5/CyLib.c ****     CLKDIST_AMASK &= BUS_AMASK_CLEAR;
 1359              		.loc 1 820 0
 1360 000a 44F21403 		movw	r3, #:lower16:1073758228
 1361 000e C4F20003 		movt	r3, #:upper16:1073758228
 1362 0012 44F21402 		movw	r2, #:lower16:1073758228
 1363 0016 C4F20002 		movt	r2, #:upper16:1073758228
 1364 001a 1278     		ldrb	r2, [r2, #0]
 1365 001c D2B2     		uxtb	r2, r2
 1366 001e 02F0F002 		and	r2, r2, #240
 1367 0022 1A70     		strb	r2, [r3, #0]
 821:.\Generated_Source\PSoC5/CyLib.c ****     CLKDIST_DMASK = BUS_DMASK_CLEAR;
 1368              		.loc 1 821 0
 1369 0024 44F21003 		movw	r3, #:lower16:1073758224
 1370 0028 C4F20003 		movt	r3, #:upper16:1073758224
 1371 002c 4FF00002 		mov	r2, #0
 1372 0030 1A70     		strb	r2, [r3, #0]
 822:.\Generated_Source\PSoC5/CyLib.c **** 
 823:.\Generated_Source\PSoC5/CyLib.c ****     CLKDIST_BCFG2 |= CLKDIST_WRK0_MASK_SET;
 1373              		.loc 1 823 0
 1374 0032 44F20803 		movw	r3, #:lower16:1073758216
 1375 0036 C4F20003 		movt	r3, #:upper16:1073758216
 1376 003a 44F20802 		movw	r2, #:lower16:1073758216
 1377 003e C4F20002 		movt	r2, #:upper16:1073758216
 1378 0042 1278     		ldrb	r2, [r2, #0]
 1379 0044 D2B2     		uxtb	r2, r2
 1380 0046 6FEA4262 		mvn	r2, r2, lsl #25
 1381 004a 6FEA5262 		mvn	r2, r2, lsr #25
 1382 004e D2B2     		uxtb	r2, r2
 1383 0050 1A70     		strb	r2, [r3, #0]
 824:.\Generated_Source\PSoC5/CyLib.c **** 
 825:.\Generated_Source\PSoC5/CyLib.c ****     /* Change both bytes before we enable/start the clock. */
 826:.\Generated_Source\PSoC5/CyLib.c ****     CY_SET_REG16(CLKDIST_WRK0_PTR, divider);
 1384              		.loc 1 826 0
 1385 0052 44F20203 		movw	r3, #:lower16:1073758210
 1386 0056 C4F20003 		movt	r3, #:upper16:1073758210
 1387 005a FA88     		ldrh	r2, [r7, #6]	@ movhi
 1388 005c 1A80     		strh	r2, [r3, #0]	@ movhi
 827:.\Generated_Source\PSoC5/CyLib.c **** 
 828:.\Generated_Source\PSoC5/CyLib.c ****     /* Load the value, set the CLKDIST_LD LOAD bit*/
 829:.\Generated_Source\PSoC5/CyLib.c ****     CLKDIST_LD |= CLKDIST_LD_LOAD_SET;
 1389              		.loc 1 829 0
 1390 005e 44F20103 		movw	r3, #:lower16:1073758209
ARM GAS  C:\Users\Heiwa\AppData\Local\Temp\ccuYQ69z.s 			page 40


 1391 0062 C4F20003 		movt	r3, #:upper16:1073758209
 1392 0066 44F20102 		movw	r2, #:lower16:1073758209
 1393 006a C4F20002 		movt	r2, #:upper16:1073758209
 1394 006e 1278     		ldrb	r2, [r2, #0]
 1395 0070 D2B2     		uxtb	r2, r2
 1396 0072 42F00102 		orr	r2, r2, #1
 1397 0076 D2B2     		uxtb	r2, r2
 1398 0078 1A70     		strb	r2, [r3, #0]
 830:.\Generated_Source\PSoC5/CyLib.c **** }
 1399              		.loc 1 830 0
 1400 007a 07F10C07 		add	r7, r7, #12
 1401 007e BD46     		mov	sp, r7
 1402 0080 80BC     		pop	{r7}
 1403 0082 7047     		bx	lr
 1404              		.cfi_endproc
 1405              	.LFE14:
 1406              		.size	CyBusClk_Internal_SetDivider, .-CyBusClk_Internal_SetDivider
 1407              		.section	.text.CyBusClk_SetDivider,"ax",%progbits
 1408              		.align	2
 1409              		.global	CyBusClk_SetDivider
 1410              		.thumb
 1411              		.thumb_func
 1412              		.type	CyBusClk_SetDivider, %function
 1413              	CyBusClk_SetDivider:
 1414              	.LFB15:
 831:.\Generated_Source\PSoC5/CyLib.c **** 
 832:.\Generated_Source\PSoC5/CyLib.c **** 
 833:.\Generated_Source\PSoC5/CyLib.c **** /*******************************************************************************
 834:.\Generated_Source\PSoC5/CyLib.c **** * Function Name: CyBusClk_SetDivider
 835:.\Generated_Source\PSoC5/CyLib.c **** ********************************************************************************
 836:.\Generated_Source\PSoC5/CyLib.c **** *
 837:.\Generated_Source\PSoC5/CyLib.c **** * Summary:
 838:.\Generated_Source\PSoC5/CyLib.c **** *  Sets the divider value used to generate Bus Clock.
 839:.\Generated_Source\PSoC5/CyLib.c **** *
 840:.\Generated_Source\PSoC5/CyLib.c **** * Parameters:
 841:.\Generated_Source\PSoC5/CyLib.c **** *  divider: Valid range [0-65535]. The clock will be divided by this value + 1.
 842:.\Generated_Source\PSoC5/CyLib.c **** *  For example to divide by 2 this parameter should be set to 1.
 843:.\Generated_Source\PSoC5/CyLib.c **** *
 844:.\Generated_Source\PSoC5/CyLib.c **** * Return:
 845:.\Generated_Source\PSoC5/CyLib.c **** *  None
 846:.\Generated_Source\PSoC5/CyLib.c **** *
 847:.\Generated_Source\PSoC5/CyLib.c **** * Side Effects:
 848:.\Generated_Source\PSoC5/CyLib.c **** *  If as result of this function execution the CPU clock frequency is increased
 849:.\Generated_Source\PSoC5/CyLib.c **** *  then the number of clock cycles the cache will wait before it samples data
 850:.\Generated_Source\PSoC5/CyLib.c **** *  coming back from Flash must be adjusted by calling CyFlash_SetWaitCycles()
 851:.\Generated_Source\PSoC5/CyLib.c **** *  with appropriate parameter. It can be optionally called if CPU clock
 852:.\Generated_Source\PSoC5/CyLib.c **** *  frequency is lowered in order to improve CPU performance.
 853:.\Generated_Source\PSoC5/CyLib.c **** *  See CyFlash_SetWaitCycles() description for more information.
 854:.\Generated_Source\PSoC5/CyLib.c **** *
 855:.\Generated_Source\PSoC5/CyLib.c **** *******************************************************************************/
 856:.\Generated_Source\PSoC5/CyLib.c **** void CyBusClk_SetDivider(uint16 divider) 
 857:.\Generated_Source\PSoC5/CyLib.c **** {
 1415              		.loc 1 857 0
 1416              		.cfi_startproc
 1417              		@ args = 0, pretend = 0, frame = 16
 1418              		@ frame_needed = 1, uses_anonymous_args = 0
 1419 0000 80B5     		push	{r7, lr}
ARM GAS  C:\Users\Heiwa\AppData\Local\Temp\ccuYQ69z.s 			page 41


 1420              	.LCFI41:
 1421              		.cfi_def_cfa_offset 8
 1422 0002 84B0     		sub	sp, sp, #16
 1423              	.LCFI42:
 1424              		.cfi_def_cfa_offset 24
 1425 0004 00AF     		add	r7, sp, #0
 1426              		.cfi_offset 14, -4
 1427              		.cfi_offset 7, -8
 1428              	.LCFI43:
 1429              		.cfi_def_cfa_register 7
 1430 0006 0346     		mov	r3, r0
 1431 0008 FB80     		strh	r3, [r7, #6]	@ movhi
 858:.\Generated_Source\PSoC5/CyLib.c ****     uint16 current_busclk_divider;
 859:.\Generated_Source\PSoC5/CyLib.c ****     uint8 current_masterclk_divider;
 860:.\Generated_Source\PSoC5/CyLib.c **** 
 861:.\Generated_Source\PSoC5/CyLib.c ****     /* Bus clock divider value */
 862:.\Generated_Source\PSoC5/CyLib.c ****     current_busclk_divider = CY_GET_REG16(CLKDIST_BCFG0_PTR);
 1432              		.loc 1 862 0
 1433 000a 44F20603 		movw	r3, #:lower16:1073758214
 1434 000e C4F20003 		movt	r3, #:upper16:1073758214
 1435 0012 1B88     		ldrh	r3, [r3, #0]	@ movhi
 1436 0014 BB81     		strh	r3, [r7, #12]	@ movhi
 863:.\Generated_Source\PSoC5/CyLib.c **** 
 864:.\Generated_Source\PSoC5/CyLib.c ****     /* Work around to set the bus clock divider value */
 865:.\Generated_Source\PSoC5/CyLib.c ****     if ((divider == 0) || (current_busclk_divider == 0))
 1437              		.loc 1 865 0
 1438 0016 FB88     		ldrh	r3, [r7, #6]
 1439 0018 002B     		cmp	r3, #0
 1440 001a 02D0     		beq	.L101
 1441 001c BB89     		ldrh	r3, [r7, #12]
 1442 001e 002B     		cmp	r3, #0
 1443 0020 38D1     		bne	.L102
 1444              	.L101:
 866:.\Generated_Source\PSoC5/CyLib.c ****     {
 867:.\Generated_Source\PSoC5/CyLib.c ****         /* Save away the master clock divider value */
 868:.\Generated_Source\PSoC5/CyLib.c ****         current_masterclk_divider = CY_GET_REG8(CLKDIST_MSTR0_PTR);
 1445              		.loc 1 868 0
 1446 0022 44F20403 		movw	r3, #:lower16:1073758212
 1447 0026 C4F20003 		movt	r3, #:upper16:1073758212
 1448 002a 1B78     		ldrb	r3, [r3, #0]
 1449 002c FB73     		strb	r3, [r7, #15]
 869:.\Generated_Source\PSoC5/CyLib.c ****         if (current_masterclk_divider < MASTERCLK_DIVIDER_VALUE)
 1450              		.loc 1 869 0
 1451 002e FB7B     		ldrb	r3, [r7, #15]	@ zero_extendqisi2
 1452 0030 062B     		cmp	r3, #6
 1453 0032 03D8     		bhi	.L103
 870:.\Generated_Source\PSoC5/CyLib.c ****         {
 871:.\Generated_Source\PSoC5/CyLib.c ****             /* Set master clock divider to 7 */
 872:.\Generated_Source\PSoC5/CyLib.c ****             CyMasterClk_SetDivider(MASTERCLK_DIVIDER_VALUE);
 1454              		.loc 1 872 0
 1455 0034 4FF00700 		mov	r0, #7
 1456 0038 FFF7FEFF 		bl	CyMasterClk_SetDivider
 1457              	.L103:
 873:.\Generated_Source\PSoC5/CyLib.c ****         }
 874:.\Generated_Source\PSoC5/CyLib.c **** 
 875:.\Generated_Source\PSoC5/CyLib.c ****         if (divider == 0)
 1458              		.loc 1 875 0
ARM GAS  C:\Users\Heiwa\AppData\Local\Temp\ccuYQ69z.s 			page 42


 1459 003c FB88     		ldrh	r3, [r7, #6]
 1460 003e 002B     		cmp	r3, #0
 1461 0040 12D1     		bne	.L104
 876:.\Generated_Source\PSoC5/CyLib.c ****         {
 877:.\Generated_Source\PSoC5/CyLib.c ****             /* Set the SSS bit and the divider register desired value */
 878:.\Generated_Source\PSoC5/CyLib.c ****             CLKDIST_BCFG2 |= CLKDIST_BCFG2_SSS_SET;
 1462              		.loc 1 878 0
 1463 0042 44F20803 		movw	r3, #:lower16:1073758216
 1464 0046 C4F20003 		movt	r3, #:upper16:1073758216
 1465 004a 44F20802 		movw	r2, #:lower16:1073758216
 1466 004e C4F20002 		movt	r2, #:upper16:1073758216
 1467 0052 1278     		ldrb	r2, [r2, #0]
 1468 0054 D2B2     		uxtb	r2, r2
 1469 0056 42F04002 		orr	r2, r2, #64
 1470 005a D2B2     		uxtb	r2, r2
 1471 005c 1A70     		strb	r2, [r3, #0]
 879:.\Generated_Source\PSoC5/CyLib.c ****             CyBusClk_Internal_SetDivider(divider);
 1472              		.loc 1 879 0
 1473 005e FB88     		ldrh	r3, [r7, #6]
 1474 0060 1846     		mov	r0, r3
 1475 0062 FFF7FEFF 		bl	CyBusClk_Internal_SetDivider
 1476 0066 10E0     		b	.L105
 1477              	.L104:
 880:.\Generated_Source\PSoC5/CyLib.c ****         }
 881:.\Generated_Source\PSoC5/CyLib.c ****         else
 882:.\Generated_Source\PSoC5/CyLib.c ****         {
 883:.\Generated_Source\PSoC5/CyLib.c ****             CyBusClk_Internal_SetDivider(divider);
 1478              		.loc 1 883 0
 1479 0068 FB88     		ldrh	r3, [r7, #6]
 1480 006a 1846     		mov	r0, r3
 1481 006c FFF7FEFF 		bl	CyBusClk_Internal_SetDivider
 884:.\Generated_Source\PSoC5/CyLib.c ****             CLKDIST_BCFG2 &= ~CLKDIST_BCFG2_SSS_SET;
 1482              		.loc 1 884 0
 1483 0070 44F20803 		movw	r3, #:lower16:1073758216
 1484 0074 C4F20003 		movt	r3, #:upper16:1073758216
 1485 0078 44F20802 		movw	r2, #:lower16:1073758216
 1486 007c C4F20002 		movt	r2, #:upper16:1073758216
 1487 0080 1278     		ldrb	r2, [r2, #0]
 1488 0082 D2B2     		uxtb	r2, r2
 1489 0084 02F0BF02 		and	r2, r2, #191
 1490 0088 1A70     		strb	r2, [r3, #0]
 1491              	.L105:
 885:.\Generated_Source\PSoC5/CyLib.c ****         }
 886:.\Generated_Source\PSoC5/CyLib.c **** 
 887:.\Generated_Source\PSoC5/CyLib.c ****         /* Restore the master clock */
 888:.\Generated_Source\PSoC5/CyLib.c ****         CyMasterClk_SetDivider(current_masterclk_divider);
 1492              		.loc 1 888 0
 1493 008a FB7B     		ldrb	r3, [r7, #15]	@ zero_extendqisi2
 1494 008c 1846     		mov	r0, r3
 1495 008e FFF7FEFF 		bl	CyMasterClk_SetDivider
 1496              		.loc 1 865 0
 1497 0092 03E0     		b	.L107
 1498              	.L102:
 889:.\Generated_Source\PSoC5/CyLib.c ****     }
 890:.\Generated_Source\PSoC5/CyLib.c ****     else
 891:.\Generated_Source\PSoC5/CyLib.c ****     {
 892:.\Generated_Source\PSoC5/CyLib.c ****         CyBusClk_Internal_SetDivider(divider);
ARM GAS  C:\Users\Heiwa\AppData\Local\Temp\ccuYQ69z.s 			page 43


 1499              		.loc 1 892 0
 1500 0094 FB88     		ldrh	r3, [r7, #6]
 1501 0096 1846     		mov	r0, r3
 1502 0098 FFF7FEFF 		bl	CyBusClk_Internal_SetDivider
 1503              	.L107:
 893:.\Generated_Source\PSoC5/CyLib.c ****     }
 894:.\Generated_Source\PSoC5/CyLib.c **** }
 1504              		.loc 1 894 0
 1505 009c 07F11007 		add	r7, r7, #16
 1506 00a0 BD46     		mov	sp, r7
 1507 00a2 80BD     		pop	{r7, pc}
 1508              		.cfi_endproc
 1509              	.LFE15:
 1510              		.size	CyBusClk_SetDivider, .-CyBusClk_SetDivider
 1511              		.section	.text.CyUsbClk_SetSource,"ax",%progbits
 1512              		.align	2
 1513              		.global	CyUsbClk_SetSource
 1514              		.thumb
 1515              		.thumb_func
 1516              		.type	CyUsbClk_SetSource, %function
 1517              	CyUsbClk_SetSource:
 1518              	.LFB16:
 895:.\Generated_Source\PSoC5/CyLib.c **** 
 896:.\Generated_Source\PSoC5/CyLib.c **** 
 897:.\Generated_Source\PSoC5/CyLib.c **** #if(CY_PSOC3)
 898:.\Generated_Source\PSoC5/CyLib.c **** 
 899:.\Generated_Source\PSoC5/CyLib.c ****     /*******************************************************************************
 900:.\Generated_Source\PSoC5/CyLib.c ****     * Function Name: CyCpuClk_SetDivider
 901:.\Generated_Source\PSoC5/CyLib.c ****     ********************************************************************************
 902:.\Generated_Source\PSoC5/CyLib.c ****     *
 903:.\Generated_Source\PSoC5/CyLib.c ****     * Summary:
 904:.\Generated_Source\PSoC5/CyLib.c ****     *  Sets the divider value used to generate the CPU Clock. Only applicable for
 905:.\Generated_Source\PSoC5/CyLib.c ****     *  PSoC 3 parts.
 906:.\Generated_Source\PSoC5/CyLib.c ****     *
 907:.\Generated_Source\PSoC5/CyLib.c ****     * Parameters:
 908:.\Generated_Source\PSoC5/CyLib.c ****     *  divider: Valid range [0-15]. The clock will be divided by this value + 1.
 909:.\Generated_Source\PSoC5/CyLib.c ****     *  For example to divide by 2 this parameter should be set to 1.
 910:.\Generated_Source\PSoC5/CyLib.c ****     *
 911:.\Generated_Source\PSoC5/CyLib.c ****     * Return:
 912:.\Generated_Source\PSoC5/CyLib.c ****     *  None
 913:.\Generated_Source\PSoC5/CyLib.c ****     *
 914:.\Generated_Source\PSoC5/CyLib.c ****     * Side Effects:
 915:.\Generated_Source\PSoC5/CyLib.c ****     *  If as result of this function execution the CPU clock frequency is increased
 916:.\Generated_Source\PSoC5/CyLib.c ****     *  then the number of clock cycles the cache will wait before it samples data
 917:.\Generated_Source\PSoC5/CyLib.c ****     *  coming back from Flash must be adjusted by calling CyFlash_SetWaitCycles()
 918:.\Generated_Source\PSoC5/CyLib.c ****     *  with appropriate parameter. It can be optionally called if CPU clock
 919:.\Generated_Source\PSoC5/CyLib.c ****     *  frequency is lowered in order to improve CPU performance.
 920:.\Generated_Source\PSoC5/CyLib.c ****     *  See CyFlash_SetWaitCycles() description for more information.
 921:.\Generated_Source\PSoC5/CyLib.c ****     *
 922:.\Generated_Source\PSoC5/CyLib.c ****     *******************************************************************************/
 923:.\Generated_Source\PSoC5/CyLib.c ****     void CyCpuClk_SetDivider(uint8 divider) 
 924:.\Generated_Source\PSoC5/CyLib.c ****     {
 925:.\Generated_Source\PSoC5/CyLib.c ****             CLKDIST_MSTR1 = (CLKDIST_MSTR1 & CLKDIST_MSTR1_DIV_CLEAR) |
 926:.\Generated_Source\PSoC5/CyLib.c ****                                 (divider << CLKDIST_DIV_POSITION);
 927:.\Generated_Source\PSoC5/CyLib.c ****     }
 928:.\Generated_Source\PSoC5/CyLib.c **** 
 929:.\Generated_Source\PSoC5/CyLib.c **** #endif /* (CY_PSOC3) */
ARM GAS  C:\Users\Heiwa\AppData\Local\Temp\ccuYQ69z.s 			page 44


 930:.\Generated_Source\PSoC5/CyLib.c **** 
 931:.\Generated_Source\PSoC5/CyLib.c **** 
 932:.\Generated_Source\PSoC5/CyLib.c **** /*******************************************************************************
 933:.\Generated_Source\PSoC5/CyLib.c **** * Function Name: CyUsbClk_SetSource
 934:.\Generated_Source\PSoC5/CyLib.c **** ********************************************************************************
 935:.\Generated_Source\PSoC5/CyLib.c **** *
 936:.\Generated_Source\PSoC5/CyLib.c **** * Summary:
 937:.\Generated_Source\PSoC5/CyLib.c **** *  Sets the source of the USB clock.
 938:.\Generated_Source\PSoC5/CyLib.c **** *
 939:.\Generated_Source\PSoC5/CyLib.c **** * Parameters:
 940:.\Generated_Source\PSoC5/CyLib.c **** *  source: One of the four available USB clock sources
 941:.\Generated_Source\PSoC5/CyLib.c **** *             USB_CLK_IMO2X     - IMO 2x
 942:.\Generated_Source\PSoC5/CyLib.c **** *             USB_CLK_IMO       - IMO
 943:.\Generated_Source\PSoC5/CyLib.c **** *             USB_CLK_PLL       - PLL
 944:.\Generated_Source\PSoC5/CyLib.c **** *             USB_CLK_DSI       - DSI
 945:.\Generated_Source\PSoC5/CyLib.c **** *
 946:.\Generated_Source\PSoC5/CyLib.c **** * Return:
 947:.\Generated_Source\PSoC5/CyLib.c **** *  None
 948:.\Generated_Source\PSoC5/CyLib.c **** *
 949:.\Generated_Source\PSoC5/CyLib.c **** *******************************************************************************/
 950:.\Generated_Source\PSoC5/CyLib.c **** void CyUsbClk_SetSource(uint8 source) 
 951:.\Generated_Source\PSoC5/CyLib.c **** {
 1519              		.loc 1 951 0
 1520              		.cfi_startproc
 1521              		@ args = 0, pretend = 0, frame = 8
 1522              		@ frame_needed = 1, uses_anonymous_args = 0
 1523              		@ link register save eliminated.
 1524 0000 80B4     		push	{r7}
 1525              	.LCFI44:
 1526              		.cfi_def_cfa_offset 4
 1527 0002 83B0     		sub	sp, sp, #12
 1528              	.LCFI45:
 1529              		.cfi_def_cfa_offset 16
 1530 0004 00AF     		add	r7, sp, #0
 1531              		.cfi_offset 7, -4
 1532              	.LCFI46:
 1533              		.cfi_def_cfa_register 7
 1534 0006 0346     		mov	r3, r0
 1535 0008 FB71     		strb	r3, [r7, #7]
 952:.\Generated_Source\PSoC5/CyLib.c ****     CLKDIST_UCFG = (CLKDIST_UCFG & ~USB_CLKDIST_CONFIG_MASK) |
 1536              		.loc 1 952 0
 1537 000a 44F20903 		movw	r3, #:lower16:1073758217
 1538 000e C4F20003 		movt	r3, #:upper16:1073758217
 1539 0012 44F20902 		movw	r2, #:lower16:1073758217
 1540 0016 C4F20002 		movt	r2, #:upper16:1073758217
 1541 001a 1278     		ldrb	r2, [r2, #0]
 1542 001c D2B2     		uxtb	r2, r2
 1543 001e 1146     		mov	r1, r2
 1544 0020 01F0FC01 		and	r1, r1, #252
 1545 0024 FA79     		ldrb	r2, [r7, #7]	@ zero_extendqisi2
 1546 0026 02F00302 		and	r2, r2, #3
 1547 002a 41EA0202 		orr	r2, r1, r2
 1548 002e D2B2     		uxtb	r2, r2
 1549 0030 1A70     		strb	r2, [r3, #0]
 953:.\Generated_Source\PSoC5/CyLib.c ****                         (USB_CLKDIST_CONFIG_MASK & source);
 954:.\Generated_Source\PSoC5/CyLib.c **** }
 1550              		.loc 1 954 0
ARM GAS  C:\Users\Heiwa\AppData\Local\Temp\ccuYQ69z.s 			page 45


 1551 0032 07F10C07 		add	r7, r7, #12
 1552 0036 BD46     		mov	sp, r7
 1553 0038 80BC     		pop	{r7}
 1554 003a 7047     		bx	lr
 1555              		.cfi_endproc
 1556              	.LFE16:
 1557              		.size	CyUsbClk_SetSource, .-CyUsbClk_SetSource
 1558              		.section	.text.CyILO_Start1K,"ax",%progbits
 1559              		.align	2
 1560              		.global	CyILO_Start1K
 1561              		.thumb
 1562              		.thumb_func
 1563              		.type	CyILO_Start1K, %function
 1564              	CyILO_Start1K:
 1565              	.LFB17:
 955:.\Generated_Source\PSoC5/CyLib.c **** 
 956:.\Generated_Source\PSoC5/CyLib.c **** 
 957:.\Generated_Source\PSoC5/CyLib.c **** /*******************************************************************************
 958:.\Generated_Source\PSoC5/CyLib.c **** * Function Name: CyILO_Start1K
 959:.\Generated_Source\PSoC5/CyLib.c **** ********************************************************************************
 960:.\Generated_Source\PSoC5/CyLib.c **** *
 961:.\Generated_Source\PSoC5/CyLib.c **** * Summary:
 962:.\Generated_Source\PSoC5/CyLib.c **** *  Enables the ILO 1 KHz oscillator.
 963:.\Generated_Source\PSoC5/CyLib.c **** *
 964:.\Generated_Source\PSoC5/CyLib.c **** *  Note The ILO 1 KHz oscillator is always enabled by default, regardless of the
 965:.\Generated_Source\PSoC5/CyLib.c **** *  selection in the Clock Editor. Therefore, this API is only needed if the
 966:.\Generated_Source\PSoC5/CyLib.c **** *  oscillator was turned off manually.
 967:.\Generated_Source\PSoC5/CyLib.c **** *
 968:.\Generated_Source\PSoC5/CyLib.c **** * Parameters:
 969:.\Generated_Source\PSoC5/CyLib.c **** *  None
 970:.\Generated_Source\PSoC5/CyLib.c **** *
 971:.\Generated_Source\PSoC5/CyLib.c **** * Return:
 972:.\Generated_Source\PSoC5/CyLib.c **** *  None
 973:.\Generated_Source\PSoC5/CyLib.c **** *
 974:.\Generated_Source\PSoC5/CyLib.c **** *******************************************************************************/
 975:.\Generated_Source\PSoC5/CyLib.c **** void CyILO_Start1K(void) 
 976:.\Generated_Source\PSoC5/CyLib.c **** {
 1566              		.loc 1 976 0
 1567              		.cfi_startproc
 1568              		@ args = 0, pretend = 0, frame = 0
 1569              		@ frame_needed = 1, uses_anonymous_args = 0
 1570              		@ link register save eliminated.
 1571 0000 80B4     		push	{r7}
 1572              	.LCFI47:
 1573              		.cfi_def_cfa_offset 4
 1574 0002 00AF     		add	r7, sp, #0
 1575              		.cfi_offset 7, -4
 1576              	.LCFI48:
 1577              		.cfi_def_cfa_register 7
 977:.\Generated_Source\PSoC5/CyLib.c ****     /* Set the bit 1 of ILO RS */
 978:.\Generated_Source\PSoC5/CyLib.c ****     SLOWCLK_ILO_CR0 |= ILO_CONTROL_1KHZ_ON;
 1578              		.loc 1 978 0
 1579 0004 44F20033 		movw	r3, #:lower16:1073758976
 1580 0008 C4F20003 		movt	r3, #:upper16:1073758976
 1581 000c 44F20032 		movw	r2, #:lower16:1073758976
 1582 0010 C4F20002 		movt	r2, #:upper16:1073758976
 1583 0014 1278     		ldrb	r2, [r2, #0]
ARM GAS  C:\Users\Heiwa\AppData\Local\Temp\ccuYQ69z.s 			page 46


 1584 0016 D2B2     		uxtb	r2, r2
 1585 0018 42F00202 		orr	r2, r2, #2
 1586 001c D2B2     		uxtb	r2, r2
 1587 001e 1A70     		strb	r2, [r3, #0]
 979:.\Generated_Source\PSoC5/CyLib.c **** }
 1588              		.loc 1 979 0
 1589 0020 BD46     		mov	sp, r7
 1590 0022 80BC     		pop	{r7}
 1591 0024 7047     		bx	lr
 1592              		.cfi_endproc
 1593              	.LFE17:
 1594              		.size	CyILO_Start1K, .-CyILO_Start1K
 1595 0026 00BF     		.section	.text.CyILO_Stop1K,"ax",%progbits
 1596              		.align	2
 1597              		.global	CyILO_Stop1K
 1598              		.thumb
 1599              		.thumb_func
 1600              		.type	CyILO_Stop1K, %function
 1601              	CyILO_Stop1K:
 1602              	.LFB18:
 980:.\Generated_Source\PSoC5/CyLib.c **** 
 981:.\Generated_Source\PSoC5/CyLib.c **** 
 982:.\Generated_Source\PSoC5/CyLib.c **** /*******************************************************************************
 983:.\Generated_Source\PSoC5/CyLib.c **** * Function Name: CyILO_Stop1K
 984:.\Generated_Source\PSoC5/CyLib.c **** ********************************************************************************
 985:.\Generated_Source\PSoC5/CyLib.c **** *
 986:.\Generated_Source\PSoC5/CyLib.c **** * Summary:
 987:.\Generated_Source\PSoC5/CyLib.c **** *  Disables the ILO 1 KHz oscillator.
 988:.\Generated_Source\PSoC5/CyLib.c **** *
 989:.\Generated_Source\PSoC5/CyLib.c **** *  Note The ILO 1 KHz oscillator must be enabled if Sleep or Hibernate low power
 990:.\Generated_Source\PSoC5/CyLib.c **** *  mode APIs are expected to be used. For more information, refer to the Power
 991:.\Generated_Source\PSoC5/CyLib.c **** *  Management section of this document.
 992:.\Generated_Source\PSoC5/CyLib.c **** *
 993:.\Generated_Source\PSoC5/CyLib.c **** * Parameters:
 994:.\Generated_Source\PSoC5/CyLib.c **** *  None
 995:.\Generated_Source\PSoC5/CyLib.c **** *
 996:.\Generated_Source\PSoC5/CyLib.c **** * Return:
 997:.\Generated_Source\PSoC5/CyLib.c **** *  None
 998:.\Generated_Source\PSoC5/CyLib.c **** *
 999:.\Generated_Source\PSoC5/CyLib.c **** * Side Effects:
1000:.\Generated_Source\PSoC5/CyLib.c **** *  PSoC5: Stopping the ILO 1 kHz could break the active WDT functionality.
1001:.\Generated_Source\PSoC5/CyLib.c **** *
1002:.\Generated_Source\PSoC5/CyLib.c **** *******************************************************************************/
1003:.\Generated_Source\PSoC5/CyLib.c **** void CyILO_Stop1K(void) 
1004:.\Generated_Source\PSoC5/CyLib.c **** {
 1603              		.loc 1 1004 0
 1604              		.cfi_startproc
 1605              		@ args = 0, pretend = 0, frame = 0
 1606              		@ frame_needed = 1, uses_anonymous_args = 0
 1607              		@ link register save eliminated.
 1608 0000 80B4     		push	{r7}
 1609              	.LCFI49:
 1610              		.cfi_def_cfa_offset 4
 1611 0002 00AF     		add	r7, sp, #0
 1612              		.cfi_offset 7, -4
 1613              	.LCFI50:
 1614              		.cfi_def_cfa_register 7
ARM GAS  C:\Users\Heiwa\AppData\Local\Temp\ccuYQ69z.s 			page 47


1005:.\Generated_Source\PSoC5/CyLib.c ****     /* Clear the bit 1 of ILO RS */
1006:.\Generated_Source\PSoC5/CyLib.c ****     SLOWCLK_ILO_CR0 &= ~ILO_CONTROL_1KHZ_ON;
 1615              		.loc 1 1006 0
 1616 0004 44F20033 		movw	r3, #:lower16:1073758976
 1617 0008 C4F20003 		movt	r3, #:upper16:1073758976
 1618 000c 44F20032 		movw	r2, #:lower16:1073758976
 1619 0010 C4F20002 		movt	r2, #:upper16:1073758976
 1620 0014 1278     		ldrb	r2, [r2, #0]
 1621 0016 D2B2     		uxtb	r2, r2
 1622 0018 02F0FD02 		and	r2, r2, #253
 1623 001c 1A70     		strb	r2, [r3, #0]
1007:.\Generated_Source\PSoC5/CyLib.c **** }
 1624              		.loc 1 1007 0
 1625 001e BD46     		mov	sp, r7
 1626 0020 80BC     		pop	{r7}
 1627 0022 7047     		bx	lr
 1628              		.cfi_endproc
 1629              	.LFE18:
 1630              		.size	CyILO_Stop1K, .-CyILO_Stop1K
 1631              		.section	.text.CyILO_Start100K,"ax",%progbits
 1632              		.align	2
 1633              		.global	CyILO_Start100K
 1634              		.thumb
 1635              		.thumb_func
 1636              		.type	CyILO_Start100K, %function
 1637              	CyILO_Start100K:
 1638              	.LFB19:
1008:.\Generated_Source\PSoC5/CyLib.c **** 
1009:.\Generated_Source\PSoC5/CyLib.c **** 
1010:.\Generated_Source\PSoC5/CyLib.c **** /*******************************************************************************
1011:.\Generated_Source\PSoC5/CyLib.c **** * Function Name: CyILO_Start100K
1012:.\Generated_Source\PSoC5/CyLib.c **** ********************************************************************************
1013:.\Generated_Source\PSoC5/CyLib.c **** *
1014:.\Generated_Source\PSoC5/CyLib.c **** * Summary:
1015:.\Generated_Source\PSoC5/CyLib.c **** *  Enables the ILO 100 KHz oscillator.
1016:.\Generated_Source\PSoC5/CyLib.c **** *
1017:.\Generated_Source\PSoC5/CyLib.c **** * Parameters:
1018:.\Generated_Source\PSoC5/CyLib.c **** *  None
1019:.\Generated_Source\PSoC5/CyLib.c **** *
1020:.\Generated_Source\PSoC5/CyLib.c **** * Return:
1021:.\Generated_Source\PSoC5/CyLib.c **** *  None
1022:.\Generated_Source\PSoC5/CyLib.c **** *
1023:.\Generated_Source\PSoC5/CyLib.c **** *******************************************************************************/
1024:.\Generated_Source\PSoC5/CyLib.c **** void CyILO_Start100K(void) 
1025:.\Generated_Source\PSoC5/CyLib.c **** {
 1639              		.loc 1 1025 0
 1640              		.cfi_startproc
 1641              		@ args = 0, pretend = 0, frame = 0
 1642              		@ frame_needed = 1, uses_anonymous_args = 0
 1643              		@ link register save eliminated.
 1644 0000 80B4     		push	{r7}
 1645              	.LCFI51:
 1646              		.cfi_def_cfa_offset 4
 1647 0002 00AF     		add	r7, sp, #0
 1648              		.cfi_offset 7, -4
 1649              	.LCFI52:
 1650              		.cfi_def_cfa_register 7
ARM GAS  C:\Users\Heiwa\AppData\Local\Temp\ccuYQ69z.s 			page 48


1026:.\Generated_Source\PSoC5/CyLib.c ****     /* Set the bit 2 of ILO RS */
1027:.\Generated_Source\PSoC5/CyLib.c ****     SLOWCLK_ILO_CR0 |= ILO_CONTROL_100KHZ_ON;
 1651              		.loc 1 1027 0
 1652 0004 44F20033 		movw	r3, #:lower16:1073758976
 1653 0008 C4F20003 		movt	r3, #:upper16:1073758976
 1654 000c 44F20032 		movw	r2, #:lower16:1073758976
 1655 0010 C4F20002 		movt	r2, #:upper16:1073758976
 1656 0014 1278     		ldrb	r2, [r2, #0]
 1657 0016 D2B2     		uxtb	r2, r2
 1658 0018 42F00402 		orr	r2, r2, #4
 1659 001c D2B2     		uxtb	r2, r2
 1660 001e 1A70     		strb	r2, [r3, #0]
1028:.\Generated_Source\PSoC5/CyLib.c **** }
 1661              		.loc 1 1028 0
 1662 0020 BD46     		mov	sp, r7
 1663 0022 80BC     		pop	{r7}
 1664 0024 7047     		bx	lr
 1665              		.cfi_endproc
 1666              	.LFE19:
 1667              		.size	CyILO_Start100K, .-CyILO_Start100K
 1668 0026 00BF     		.section	.text.CyILO_Stop100K,"ax",%progbits
 1669              		.align	2
 1670              		.global	CyILO_Stop100K
 1671              		.thumb
 1672              		.thumb_func
 1673              		.type	CyILO_Stop100K, %function
 1674              	CyILO_Stop100K:
 1675              	.LFB20:
1029:.\Generated_Source\PSoC5/CyLib.c **** 
1030:.\Generated_Source\PSoC5/CyLib.c **** 
1031:.\Generated_Source\PSoC5/CyLib.c **** /*******************************************************************************
1032:.\Generated_Source\PSoC5/CyLib.c **** * Function Name: CyILO_Stop100K
1033:.\Generated_Source\PSoC5/CyLib.c **** ********************************************************************************
1034:.\Generated_Source\PSoC5/CyLib.c **** *
1035:.\Generated_Source\PSoC5/CyLib.c **** * Summary:
1036:.\Generated_Source\PSoC5/CyLib.c **** *  Disables the ILO 100 KHz oscillator.
1037:.\Generated_Source\PSoC5/CyLib.c **** *
1038:.\Generated_Source\PSoC5/CyLib.c **** * Parameters:
1039:.\Generated_Source\PSoC5/CyLib.c **** *  None
1040:.\Generated_Source\PSoC5/CyLib.c **** *
1041:.\Generated_Source\PSoC5/CyLib.c **** * Return:
1042:.\Generated_Source\PSoC5/CyLib.c **** *  None
1043:.\Generated_Source\PSoC5/CyLib.c **** *
1044:.\Generated_Source\PSoC5/CyLib.c **** *******************************************************************************/
1045:.\Generated_Source\PSoC5/CyLib.c **** void CyILO_Stop100K(void) 
1046:.\Generated_Source\PSoC5/CyLib.c **** {
 1676              		.loc 1 1046 0
 1677              		.cfi_startproc
 1678              		@ args = 0, pretend = 0, frame = 0
 1679              		@ frame_needed = 1, uses_anonymous_args = 0
 1680              		@ link register save eliminated.
 1681 0000 80B4     		push	{r7}
 1682              	.LCFI53:
 1683              		.cfi_def_cfa_offset 4
 1684 0002 00AF     		add	r7, sp, #0
 1685              		.cfi_offset 7, -4
 1686              	.LCFI54:
ARM GAS  C:\Users\Heiwa\AppData\Local\Temp\ccuYQ69z.s 			page 49


 1687              		.cfi_def_cfa_register 7
1047:.\Generated_Source\PSoC5/CyLib.c ****     /* Clear the bit 2 of ILO RS */
1048:.\Generated_Source\PSoC5/CyLib.c ****     SLOWCLK_ILO_CR0 &= ~ILO_CONTROL_100KHZ_ON;
 1688              		.loc 1 1048 0
 1689 0004 44F20033 		movw	r3, #:lower16:1073758976
 1690 0008 C4F20003 		movt	r3, #:upper16:1073758976
 1691 000c 44F20032 		movw	r2, #:lower16:1073758976
 1692 0010 C4F20002 		movt	r2, #:upper16:1073758976
 1693 0014 1278     		ldrb	r2, [r2, #0]
 1694 0016 D2B2     		uxtb	r2, r2
 1695 0018 02F0FB02 		and	r2, r2, #251
 1696 001c 1A70     		strb	r2, [r3, #0]
1049:.\Generated_Source\PSoC5/CyLib.c **** }
 1697              		.loc 1 1049 0
 1698 001e BD46     		mov	sp, r7
 1699 0020 80BC     		pop	{r7}
 1700 0022 7047     		bx	lr
 1701              		.cfi_endproc
 1702              	.LFE20:
 1703              		.size	CyILO_Stop100K, .-CyILO_Stop100K
 1704              		.section	.text.CyILO_Enable33K,"ax",%progbits
 1705              		.align	2
 1706              		.global	CyILO_Enable33K
 1707              		.thumb
 1708              		.thumb_func
 1709              		.type	CyILO_Enable33K, %function
 1710              	CyILO_Enable33K:
 1711              	.LFB21:
1050:.\Generated_Source\PSoC5/CyLib.c **** 
1051:.\Generated_Source\PSoC5/CyLib.c **** 
1052:.\Generated_Source\PSoC5/CyLib.c **** /*******************************************************************************
1053:.\Generated_Source\PSoC5/CyLib.c **** * Function Name: CyILO_Enable33K
1054:.\Generated_Source\PSoC5/CyLib.c **** ********************************************************************************
1055:.\Generated_Source\PSoC5/CyLib.c **** *
1056:.\Generated_Source\PSoC5/CyLib.c **** * Summary:
1057:.\Generated_Source\PSoC5/CyLib.c **** *  Enables the ILO 33 KHz divider.
1058:.\Generated_Source\PSoC5/CyLib.c **** *
1059:.\Generated_Source\PSoC5/CyLib.c **** *  Note that the 33 KHz clock is generated from the 100 KHz oscillator,
1060:.\Generated_Source\PSoC5/CyLib.c **** *  so it must also be running in order to generate the 33 KHz output.
1061:.\Generated_Source\PSoC5/CyLib.c **** *
1062:.\Generated_Source\PSoC5/CyLib.c **** * Parameters:
1063:.\Generated_Source\PSoC5/CyLib.c **** *  None
1064:.\Generated_Source\PSoC5/CyLib.c **** *
1065:.\Generated_Source\PSoC5/CyLib.c **** * Return:
1066:.\Generated_Source\PSoC5/CyLib.c **** *  None
1067:.\Generated_Source\PSoC5/CyLib.c **** *
1068:.\Generated_Source\PSoC5/CyLib.c **** *******************************************************************************/
1069:.\Generated_Source\PSoC5/CyLib.c **** void CyILO_Enable33K(void) 
1070:.\Generated_Source\PSoC5/CyLib.c **** {
 1712              		.loc 1 1070 0
 1713              		.cfi_startproc
 1714              		@ args = 0, pretend = 0, frame = 0
 1715              		@ frame_needed = 1, uses_anonymous_args = 0
 1716              		@ link register save eliminated.
 1717 0000 80B4     		push	{r7}
 1718              	.LCFI55:
 1719              		.cfi_def_cfa_offset 4
ARM GAS  C:\Users\Heiwa\AppData\Local\Temp\ccuYQ69z.s 			page 50


 1720 0002 00AF     		add	r7, sp, #0
 1721              		.cfi_offset 7, -4
 1722              	.LCFI56:
 1723              		.cfi_def_cfa_register 7
1071:.\Generated_Source\PSoC5/CyLib.c ****     /* Set the bit 5 of ILO RS */
1072:.\Generated_Source\PSoC5/CyLib.c ****     SLOWCLK_ILO_CR0 |= ILO_CONTROL_33KHZ_ON;
 1724              		.loc 1 1072 0
 1725 0004 44F20033 		movw	r3, #:lower16:1073758976
 1726 0008 C4F20003 		movt	r3, #:upper16:1073758976
 1727 000c 44F20032 		movw	r2, #:lower16:1073758976
 1728 0010 C4F20002 		movt	r2, #:upper16:1073758976
 1729 0014 1278     		ldrb	r2, [r2, #0]
 1730 0016 D2B2     		uxtb	r2, r2
 1731 0018 42F02002 		orr	r2, r2, #32
 1732 001c D2B2     		uxtb	r2, r2
 1733 001e 1A70     		strb	r2, [r3, #0]
1073:.\Generated_Source\PSoC5/CyLib.c **** }
 1734              		.loc 1 1073 0
 1735 0020 BD46     		mov	sp, r7
 1736 0022 80BC     		pop	{r7}
 1737 0024 7047     		bx	lr
 1738              		.cfi_endproc
 1739              	.LFE21:
 1740              		.size	CyILO_Enable33K, .-CyILO_Enable33K
 1741 0026 00BF     		.section	.text.CyILO_Disable33K,"ax",%progbits
 1742              		.align	2
 1743              		.global	CyILO_Disable33K
 1744              		.thumb
 1745              		.thumb_func
 1746              		.type	CyILO_Disable33K, %function
 1747              	CyILO_Disable33K:
 1748              	.LFB22:
1074:.\Generated_Source\PSoC5/CyLib.c **** 
1075:.\Generated_Source\PSoC5/CyLib.c **** 
1076:.\Generated_Source\PSoC5/CyLib.c **** /*******************************************************************************
1077:.\Generated_Source\PSoC5/CyLib.c **** * Function Name: CyILO_Disable33K
1078:.\Generated_Source\PSoC5/CyLib.c **** ********************************************************************************
1079:.\Generated_Source\PSoC5/CyLib.c **** *
1080:.\Generated_Source\PSoC5/CyLib.c **** * Summary:
1081:.\Generated_Source\PSoC5/CyLib.c **** *  Disables the ILO 33 KHz divider.
1082:.\Generated_Source\PSoC5/CyLib.c **** *
1083:.\Generated_Source\PSoC5/CyLib.c **** *  Note that the 33 KHz clock is generated from the 100 KHz oscillator, but this
1084:.\Generated_Source\PSoC5/CyLib.c **** *  API does not disable the 100 KHz clock.
1085:.\Generated_Source\PSoC5/CyLib.c **** *
1086:.\Generated_Source\PSoC5/CyLib.c **** * Parameters:
1087:.\Generated_Source\PSoC5/CyLib.c **** *  None
1088:.\Generated_Source\PSoC5/CyLib.c **** *
1089:.\Generated_Source\PSoC5/CyLib.c **** * Return:
1090:.\Generated_Source\PSoC5/CyLib.c **** *  None
1091:.\Generated_Source\PSoC5/CyLib.c **** *
1092:.\Generated_Source\PSoC5/CyLib.c **** *******************************************************************************/
1093:.\Generated_Source\PSoC5/CyLib.c **** void CyILO_Disable33K(void) 
1094:.\Generated_Source\PSoC5/CyLib.c **** {
 1749              		.loc 1 1094 0
 1750              		.cfi_startproc
 1751              		@ args = 0, pretend = 0, frame = 0
 1752              		@ frame_needed = 1, uses_anonymous_args = 0
ARM GAS  C:\Users\Heiwa\AppData\Local\Temp\ccuYQ69z.s 			page 51


 1753              		@ link register save eliminated.
 1754 0000 80B4     		push	{r7}
 1755              	.LCFI57:
 1756              		.cfi_def_cfa_offset 4
 1757 0002 00AF     		add	r7, sp, #0
 1758              		.cfi_offset 7, -4
 1759              	.LCFI58:
 1760              		.cfi_def_cfa_register 7
1095:.\Generated_Source\PSoC5/CyLib.c ****     /* Clear the bit 5 of ILO RS */
1096:.\Generated_Source\PSoC5/CyLib.c ****     SLOWCLK_ILO_CR0 &= ~ILO_CONTROL_33KHZ_ON;
 1761              		.loc 1 1096 0
 1762 0004 44F20033 		movw	r3, #:lower16:1073758976
 1763 0008 C4F20003 		movt	r3, #:upper16:1073758976
 1764 000c 44F20032 		movw	r2, #:lower16:1073758976
 1765 0010 C4F20002 		movt	r2, #:upper16:1073758976
 1766 0014 1278     		ldrb	r2, [r2, #0]
 1767 0016 D2B2     		uxtb	r2, r2
 1768 0018 02F0DF02 		and	r2, r2, #223
 1769 001c 1A70     		strb	r2, [r3, #0]
1097:.\Generated_Source\PSoC5/CyLib.c **** }
 1770              		.loc 1 1097 0
 1771 001e BD46     		mov	sp, r7
 1772 0020 80BC     		pop	{r7}
 1773 0022 7047     		bx	lr
 1774              		.cfi_endproc
 1775              	.LFE22:
 1776              		.size	CyILO_Disable33K, .-CyILO_Disable33K
 1777              		.section	.text.CyILO_SetSource,"ax",%progbits
 1778              		.align	2
 1779              		.global	CyILO_SetSource
 1780              		.thumb
 1781              		.thumb_func
 1782              		.type	CyILO_SetSource, %function
 1783              	CyILO_SetSource:
 1784              	.LFB23:
1098:.\Generated_Source\PSoC5/CyLib.c **** 
1099:.\Generated_Source\PSoC5/CyLib.c **** 
1100:.\Generated_Source\PSoC5/CyLib.c **** /*******************************************************************************
1101:.\Generated_Source\PSoC5/CyLib.c **** * Function Name: CyILO_SetSource
1102:.\Generated_Source\PSoC5/CyLib.c **** ********************************************************************************
1103:.\Generated_Source\PSoC5/CyLib.c **** *
1104:.\Generated_Source\PSoC5/CyLib.c **** * Summary:
1105:.\Generated_Source\PSoC5/CyLib.c **** *  Sets the source of the clock output from the ILO block.
1106:.\Generated_Source\PSoC5/CyLib.c **** *
1107:.\Generated_Source\PSoC5/CyLib.c **** * Parameters:
1108:.\Generated_Source\PSoC5/CyLib.c **** *  source: One of the three available ILO output sources
1109:.\Generated_Source\PSoC5/CyLib.c **** *       Value        Define                Source
1110:.\Generated_Source\PSoC5/CyLib.c **** *       0            CY_ILO_SOURCE_100K    ILO 100 KHz
1111:.\Generated_Source\PSoC5/CyLib.c **** *       1            CY_ILO_SOURCE_33K     ILO 33 KHz
1112:.\Generated_Source\PSoC5/CyLib.c **** *       2            CY_ILO_SOURCE_1K      ILO 1 KHz
1113:.\Generated_Source\PSoC5/CyLib.c **** *
1114:.\Generated_Source\PSoC5/CyLib.c **** * Return:
1115:.\Generated_Source\PSoC5/CyLib.c **** *  None
1116:.\Generated_Source\PSoC5/CyLib.c **** *
1117:.\Generated_Source\PSoC5/CyLib.c **** *******************************************************************************/
1118:.\Generated_Source\PSoC5/CyLib.c **** void CyILO_SetSource(uint8 source) 
1119:.\Generated_Source\PSoC5/CyLib.c **** {
ARM GAS  C:\Users\Heiwa\AppData\Local\Temp\ccuYQ69z.s 			page 52


 1785              		.loc 1 1119 0
 1786              		.cfi_startproc
 1787              		@ args = 0, pretend = 0, frame = 8
 1788              		@ frame_needed = 1, uses_anonymous_args = 0
 1789              		@ link register save eliminated.
 1790 0000 80B4     		push	{r7}
 1791              	.LCFI59:
 1792              		.cfi_def_cfa_offset 4
 1793 0002 83B0     		sub	sp, sp, #12
 1794              	.LCFI60:
 1795              		.cfi_def_cfa_offset 16
 1796 0004 00AF     		add	r7, sp, #0
 1797              		.cfi_offset 7, -4
 1798              	.LCFI61:
 1799              		.cfi_def_cfa_register 7
 1800 0006 0346     		mov	r3, r0
 1801 0008 FB71     		strb	r3, [r7, #7]
1120:.\Generated_Source\PSoC5/CyLib.c ****     CLKDIST_CR = (CLKDIST_CR & CY_ILO_SOURCE_BITS_CLEAR) |
 1802              		.loc 1 1120 0
 1803 000a 44F20003 		movw	r3, #:lower16:1073758208
 1804 000e C4F20003 		movt	r3, #:upper16:1073758208
 1805 0012 44F20002 		movw	r2, #:lower16:1073758208
 1806 0016 C4F20002 		movt	r2, #:upper16:1073758208
 1807 001a 1278     		ldrb	r2, [r2, #0]
 1808 001c D2B2     		uxtb	r2, r2
 1809 001e 1146     		mov	r1, r2
 1810 0020 01F0F301 		and	r1, r1, #243
 1811 0024 FA79     		ldrb	r2, [r7, #7]
 1812 0026 4FEA8202 		lsl	r2, r2, #2
 1813 002a D2B2     		uxtb	r2, r2
 1814 002c 02F00C02 		and	r2, r2, #12
 1815 0030 41EA0202 		orr	r2, r1, r2
 1816 0034 D2B2     		uxtb	r2, r2
 1817 0036 1A70     		strb	r2, [r3, #0]
1121:.\Generated_Source\PSoC5/CyLib.c ****                     ((source << 2) & ~CY_ILO_SOURCE_BITS_CLEAR);
1122:.\Generated_Source\PSoC5/CyLib.c **** }
 1818              		.loc 1 1122 0
 1819 0038 07F10C07 		add	r7, r7, #12
 1820 003c BD46     		mov	sp, r7
 1821 003e 80BC     		pop	{r7}
 1822 0040 7047     		bx	lr
 1823              		.cfi_endproc
 1824              	.LFE23:
 1825              		.size	CyILO_SetSource, .-CyILO_SetSource
 1826 0042 00BF     		.section	.text.CyILO_SetPowerMode,"ax",%progbits
 1827              		.align	2
 1828              		.global	CyILO_SetPowerMode
 1829              		.thumb
 1830              		.thumb_func
 1831              		.type	CyILO_SetPowerMode, %function
 1832              	CyILO_SetPowerMode:
 1833              	.LFB24:
1123:.\Generated_Source\PSoC5/CyLib.c **** 
1124:.\Generated_Source\PSoC5/CyLib.c **** 
1125:.\Generated_Source\PSoC5/CyLib.c **** /*******************************************************************************
1126:.\Generated_Source\PSoC5/CyLib.c **** * Function Name: CyILO_SetPowerMode
1127:.\Generated_Source\PSoC5/CyLib.c **** ********************************************************************************
ARM GAS  C:\Users\Heiwa\AppData\Local\Temp\ccuYQ69z.s 			page 53


1128:.\Generated_Source\PSoC5/CyLib.c **** *
1129:.\Generated_Source\PSoC5/CyLib.c **** * Summary:
1130:.\Generated_Source\PSoC5/CyLib.c **** *  Sets the power mode used by the ILO during power down. Allows for lower power
1131:.\Generated_Source\PSoC5/CyLib.c **** *  down power usage resulting in a slower startup time.
1132:.\Generated_Source\PSoC5/CyLib.c **** *
1133:.\Generated_Source\PSoC5/CyLib.c **** * Parameters:
1134:.\Generated_Source\PSoC5/CyLib.c **** *  uint8 mode
1135:.\Generated_Source\PSoC5/CyLib.c **** *   CY_ILO_FAST_START - Faster start-up, internal bias left on when powered down
1136:.\Generated_Source\PSoC5/CyLib.c **** *   CY_ILO_SLOW_START - Slower start-up, internal bias off when powered down
1137:.\Generated_Source\PSoC5/CyLib.c **** *
1138:.\Generated_Source\PSoC5/CyLib.c **** * Return:
1139:.\Generated_Source\PSoC5/CyLib.c **** *   Prevous power mode state.
1140:.\Generated_Source\PSoC5/CyLib.c **** *
1141:.\Generated_Source\PSoC5/CyLib.c **** *******************************************************************************/
1142:.\Generated_Source\PSoC5/CyLib.c **** uint8 CyILO_SetPowerMode(uint8 mode) 
1143:.\Generated_Source\PSoC5/CyLib.c **** {
 1834              		.loc 1 1143 0
 1835              		.cfi_startproc
 1836              		@ args = 0, pretend = 0, frame = 16
 1837              		@ frame_needed = 1, uses_anonymous_args = 0
 1838              		@ link register save eliminated.
 1839 0000 80B4     		push	{r7}
 1840              	.LCFI62:
 1841              		.cfi_def_cfa_offset 4
 1842 0002 85B0     		sub	sp, sp, #20
 1843              	.LCFI63:
 1844              		.cfi_def_cfa_offset 24
 1845 0004 00AF     		add	r7, sp, #0
 1846              		.cfi_offset 7, -4
 1847              	.LCFI64:
 1848              		.cfi_def_cfa_register 7
 1849 0006 0346     		mov	r3, r0
 1850 0008 FB71     		strb	r3, [r7, #7]
1144:.\Generated_Source\PSoC5/CyLib.c ****     uint8 state;
1145:.\Generated_Source\PSoC5/CyLib.c **** 
1146:.\Generated_Source\PSoC5/CyLib.c ****     /* Get current state. */
1147:.\Generated_Source\PSoC5/CyLib.c ****     state = SLOWCLK_ILO_CR0;
 1851              		.loc 1 1147 0
 1852 000a 44F20033 		movw	r3, #:lower16:1073758976
 1853 000e C4F20003 		movt	r3, #:upper16:1073758976
 1854 0012 1B78     		ldrb	r3, [r3, #0]
 1855 0014 FB73     		strb	r3, [r7, #15]
1148:.\Generated_Source\PSoC5/CyLib.c **** 
1149:.\Generated_Source\PSoC5/CyLib.c ****     /* Set the the oscillator power mode. */
1150:.\Generated_Source\PSoC5/CyLib.c ****     if(mode != CY_ILO_FAST_START)
 1856              		.loc 1 1150 0
 1857 0016 FB79     		ldrb	r3, [r7, #7]	@ zero_extendqisi2
 1858 0018 002B     		cmp	r3, #0
 1859 001a 09D0     		beq	.L125
1151:.\Generated_Source\PSoC5/CyLib.c ****     {
1152:.\Generated_Source\PSoC5/CyLib.c ****         SLOWCLK_ILO_CR0 = (state | ILO_CONTROL_PD_MODE);
 1860              		.loc 1 1152 0
 1861 001c 44F20033 		movw	r3, #:lower16:1073758976
 1862 0020 C4F20003 		movt	r3, #:upper16:1073758976
 1863 0024 FA7B     		ldrb	r2, [r7, #15]
 1864 0026 42F01002 		orr	r2, r2, #16
 1865 002a D2B2     		uxtb	r2, r2
ARM GAS  C:\Users\Heiwa\AppData\Local\Temp\ccuYQ69z.s 			page 54


 1866 002c 1A70     		strb	r2, [r3, #0]
 1867 002e 07E0     		b	.L126
 1868              	.L125:
1153:.\Generated_Source\PSoC5/CyLib.c ****     }
1154:.\Generated_Source\PSoC5/CyLib.c ****     else
1155:.\Generated_Source\PSoC5/CyLib.c ****     {
1156:.\Generated_Source\PSoC5/CyLib.c ****         SLOWCLK_ILO_CR0 = (state & ~ILO_CONTROL_PD_MODE);
 1869              		.loc 1 1156 0
 1870 0030 44F20033 		movw	r3, #:lower16:1073758976
 1871 0034 C4F20003 		movt	r3, #:upper16:1073758976
 1872 0038 FA7B     		ldrb	r2, [r7, #15]	@ zero_extendqisi2
 1873 003a 02F0EF02 		and	r2, r2, #239
 1874 003e 1A70     		strb	r2, [r3, #0]
 1875              	.L126:
1157:.\Generated_Source\PSoC5/CyLib.c ****     }
1158:.\Generated_Source\PSoC5/CyLib.c **** 
1159:.\Generated_Source\PSoC5/CyLib.c ****     /* Return the old mode. */
1160:.\Generated_Source\PSoC5/CyLib.c ****     return ((state & ILO_CONTROL_PD_MODE) >> ILO_CONTROL_PD_POSITION);
 1876              		.loc 1 1160 0
 1877 0040 FB7B     		ldrb	r3, [r7, #15]	@ zero_extendqisi2
 1878 0042 03F01003 		and	r3, r3, #16
 1879 0046 4FEA2313 		asr	r3, r3, #4
 1880 004a DBB2     		uxtb	r3, r3
1161:.\Generated_Source\PSoC5/CyLib.c **** }
 1881              		.loc 1 1161 0
 1882 004c 1846     		mov	r0, r3
 1883 004e 07F11407 		add	r7, r7, #20
 1884 0052 BD46     		mov	sp, r7
 1885 0054 80BC     		pop	{r7}
 1886 0056 7047     		bx	lr
 1887              		.cfi_endproc
 1888              	.LFE24:
 1889              		.size	CyILO_SetPowerMode, .-CyILO_SetPowerMode
 1890              		.section	.text.CyXTAL_32KHZ_Start,"ax",%progbits
 1891              		.align	2
 1892              		.global	CyXTAL_32KHZ_Start
 1893              		.thumb
 1894              		.thumb_func
 1895              		.type	CyXTAL_32KHZ_Start, %function
 1896              	CyXTAL_32KHZ_Start:
 1897              	.LFB25:
1162:.\Generated_Source\PSoC5/CyLib.c **** 
1163:.\Generated_Source\PSoC5/CyLib.c **** 
1164:.\Generated_Source\PSoC5/CyLib.c **** /*******************************************************************************
1165:.\Generated_Source\PSoC5/CyLib.c **** * Function Name: CyXTAL_32KHZ_Start
1166:.\Generated_Source\PSoC5/CyLib.c **** ********************************************************************************
1167:.\Generated_Source\PSoC5/CyLib.c **** *
1168:.\Generated_Source\PSoC5/CyLib.c **** * Summary:
1169:.\Generated_Source\PSoC5/CyLib.c **** *  Enables the 32 KHz Crystal Oscillator.
1170:.\Generated_Source\PSoC5/CyLib.c **** *
1171:.\Generated_Source\PSoC5/CyLib.c **** * Parameters:
1172:.\Generated_Source\PSoC5/CyLib.c **** *  None
1173:.\Generated_Source\PSoC5/CyLib.c **** *
1174:.\Generated_Source\PSoC5/CyLib.c **** * Return:
1175:.\Generated_Source\PSoC5/CyLib.c **** *  None
1176:.\Generated_Source\PSoC5/CyLib.c **** *
1177:.\Generated_Source\PSoC5/CyLib.c **** *******************************************************************************/
ARM GAS  C:\Users\Heiwa\AppData\Local\Temp\ccuYQ69z.s 			page 55


1178:.\Generated_Source\PSoC5/CyLib.c **** void CyXTAL_32KHZ_Start(void) 
1179:.\Generated_Source\PSoC5/CyLib.c **** {
 1898              		.loc 1 1179 0
 1899              		.cfi_startproc
 1900              		@ args = 0, pretend = 0, frame = 8
 1901              		@ frame_needed = 1, uses_anonymous_args = 0
 1902 0000 80B5     		push	{r7, lr}
 1903              	.LCFI65:
 1904              		.cfi_def_cfa_offset 8
 1905 0002 82B0     		sub	sp, sp, #8
 1906              	.LCFI66:
 1907              		.cfi_def_cfa_offset 16
 1908 0004 00AF     		add	r7, sp, #0
 1909              		.cfi_offset 14, -4
 1910              		.cfi_offset 7, -8
 1911              	.LCFI67:
 1912              		.cfi_def_cfa_register 7
1180:.\Generated_Source\PSoC5/CyLib.c ****     volatile uint32 i;
1181:.\Generated_Source\PSoC5/CyLib.c **** 
1182:.\Generated_Source\PSoC5/CyLib.c ****     CY_CLK_XTAL32_TST_REG = CY_CLK_XTAL32_TST_DEFAULT;
 1913              		.loc 1 1182 0
 1914 0006 44F20A33 		movw	r3, #:lower16:1073758986
 1915 000a C4F20003 		movt	r3, #:upper16:1073758986
 1916 000e 6FF00C02 		mvn	r2, #12
 1917 0012 1A70     		strb	r2, [r3, #0]
1183:.\Generated_Source\PSoC5/CyLib.c ****     CY_CLK_XTAL32_TR_REG  = CY_CLK_XTAL32_TR_STARTUP;
 1918              		.loc 1 1183 0
 1919 0014 44F29863 		movw	r3, #:lower16:1073759896
 1920 0018 C4F20003 		movt	r3, #:upper16:1073759896
 1921 001c 4FF00302 		mov	r2, #3
 1922 0020 1A70     		strb	r2, [r3, #0]
1184:.\Generated_Source\PSoC5/CyLib.c ****     CY_CLK_XTAL32_CFG_REG = (CY_CLK_XTAL32_CFG_REG & ~CY_CLK_XTAL32_CFG_LP_MASK) | CY_CLK_XTAL32_CF
 1923              		.loc 1 1184 0
 1924 0022 44F20933 		movw	r3, #:lower16:1073758985
 1925 0026 C4F20003 		movt	r3, #:upper16:1073758985
 1926 002a 44F20932 		movw	r2, #:lower16:1073758985
 1927 002e C4F20002 		movt	r2, #:upper16:1073758985
 1928 0032 1278     		ldrb	r2, [r2, #0]
 1929 0034 D2B2     		uxtb	r2, r2
 1930 0036 02F0F302 		and	r2, r2, #243
 1931 003a 42F00402 		orr	r2, r2, #4
 1932 003e D2B2     		uxtb	r2, r2
 1933 0040 1A70     		strb	r2, [r3, #0]
1185:.\Generated_Source\PSoC5/CyLib.c **** 
1186:.\Generated_Source\PSoC5/CyLib.c ****     #if(CY_PSOC3)
1187:.\Generated_Source\PSoC5/CyLib.c ****         CY_CLK_XTAL32_CR_REG |= CY_CLK_XTAL32_CR_PDBEN;
1188:.\Generated_Source\PSoC5/CyLib.c ****     #endif  /* (CY_PSOC3) */
1189:.\Generated_Source\PSoC5/CyLib.c **** 
1190:.\Generated_Source\PSoC5/CyLib.c ****     /* Enable operation of the 32K Crystal Oscillator */
1191:.\Generated_Source\PSoC5/CyLib.c ****     CY_CLK_XTAL32_CR_REG |= CY_CLK_XTAL32_CR_EN;
 1934              		.loc 1 1191 0
 1935 0042 44F20833 		movw	r3, #:lower16:1073758984
 1936 0046 C4F20003 		movt	r3, #:upper16:1073758984
 1937 004a 44F20832 		movw	r2, #:lower16:1073758984
 1938 004e C4F20002 		movt	r2, #:upper16:1073758984
 1939 0052 1278     		ldrb	r2, [r2, #0]
 1940 0054 D2B2     		uxtb	r2, r2
ARM GAS  C:\Users\Heiwa\AppData\Local\Temp\ccuYQ69z.s 			page 56


 1941 0056 42F00102 		orr	r2, r2, #1
 1942 005a D2B2     		uxtb	r2, r2
 1943 005c 1A70     		strb	r2, [r3, #0]
1192:.\Generated_Source\PSoC5/CyLib.c **** 
1193:.\Generated_Source\PSoC5/CyLib.c ****     for (i = 1000u; i > 0u; i--)
 1944              		.loc 1 1193 0
 1945 005e 4FF47A73 		mov	r3, #1000
 1946 0062 7B60     		str	r3, [r7, #4]
 1947 0064 13E0     		b	.L129
 1948              	.L132:
1194:.\Generated_Source\PSoC5/CyLib.c ****     {
1195:.\Generated_Source\PSoC5/CyLib.c ****         if(0u != (CyXTAL_32KHZ_ReadStatus() & CY_XTAL32K_ANA_STAT))
 1949              		.loc 1 1195 0
 1950 0066 FFF7FEFF 		bl	CyXTAL_32KHZ_ReadStatus
 1951 006a 0346     		mov	r3, r0
 1952 006c 03F02003 		and	r3, r3, #32
 1953 0070 002B     		cmp	r3, #0
 1954 0072 04D0     		beq	.L130
1196:.\Generated_Source\PSoC5/CyLib.c ****         {
1197:.\Generated_Source\PSoC5/CyLib.c ****             /* Ready - switch to the hign power mode */
1198:.\Generated_Source\PSoC5/CyLib.c ****             (void) CyXTAL_32KHZ_SetPowerMode(0u);
 1955              		.loc 1 1198 0
 1956 0074 4FF00000 		mov	r0, #0
 1957 0078 FFF7FEFF 		bl	CyXTAL_32KHZ_SetPowerMode
1199:.\Generated_Source\PSoC5/CyLib.c **** 
1200:.\Generated_Source\PSoC5/CyLib.c ****             break;
 1958              		.loc 1 1200 0
 1959 007c 0AE0     		b	.L133
 1960              	.L130:
1201:.\Generated_Source\PSoC5/CyLib.c ****         }
1202:.\Generated_Source\PSoC5/CyLib.c ****         CyDelayUs(1u);
 1961              		.loc 1 1202 0
 1962 007e 4FF00100 		mov	r0, #1
 1963 0082 FFF7FEFF 		bl	CyDelayUs
 1964              		.loc 1 1193 0
 1965 0086 7B68     		ldr	r3, [r7, #4]
 1966 0088 03F1FF33 		add	r3, r3, #-1
 1967 008c 7B60     		str	r3, [r7, #4]
 1968              	.L129:
 1969 008e 7B68     		ldr	r3, [r7, #4]
 1970 0090 002B     		cmp	r3, #0
 1971 0092 E8D1     		bne	.L132
 1972              	.L133:
1203:.\Generated_Source\PSoC5/CyLib.c ****     }
1204:.\Generated_Source\PSoC5/CyLib.c **** }
 1973              		.loc 1 1204 0
 1974 0094 07F10807 		add	r7, r7, #8
 1975 0098 BD46     		mov	sp, r7
 1976 009a 80BD     		pop	{r7, pc}
 1977              		.cfi_endproc
 1978              	.LFE25:
 1979              		.size	CyXTAL_32KHZ_Start, .-CyXTAL_32KHZ_Start
 1980              		.section	.text.CyXTAL_32KHZ_Stop,"ax",%progbits
 1981              		.align	2
 1982              		.global	CyXTAL_32KHZ_Stop
 1983              		.thumb
 1984              		.thumb_func
ARM GAS  C:\Users\Heiwa\AppData\Local\Temp\ccuYQ69z.s 			page 57


 1985              		.type	CyXTAL_32KHZ_Stop, %function
 1986              	CyXTAL_32KHZ_Stop:
 1987              	.LFB26:
1205:.\Generated_Source\PSoC5/CyLib.c **** 
1206:.\Generated_Source\PSoC5/CyLib.c **** 
1207:.\Generated_Source\PSoC5/CyLib.c **** /*******************************************************************************
1208:.\Generated_Source\PSoC5/CyLib.c **** * Function Name: CyXTAL_32KHZ_Stop
1209:.\Generated_Source\PSoC5/CyLib.c **** ********************************************************************************
1210:.\Generated_Source\PSoC5/CyLib.c **** *
1211:.\Generated_Source\PSoC5/CyLib.c **** * Summary:
1212:.\Generated_Source\PSoC5/CyLib.c **** *  Disables the 32KHz Crystal Oscillator.
1213:.\Generated_Source\PSoC5/CyLib.c **** *
1214:.\Generated_Source\PSoC5/CyLib.c **** * Parameters:
1215:.\Generated_Source\PSoC5/CyLib.c **** *  None
1216:.\Generated_Source\PSoC5/CyLib.c **** *
1217:.\Generated_Source\PSoC5/CyLib.c **** * Return:
1218:.\Generated_Source\PSoC5/CyLib.c **** *  None
1219:.\Generated_Source\PSoC5/CyLib.c **** *
1220:.\Generated_Source\PSoC5/CyLib.c **** *******************************************************************************/
1221:.\Generated_Source\PSoC5/CyLib.c **** void CyXTAL_32KHZ_Stop(void) 
1222:.\Generated_Source\PSoC5/CyLib.c **** {
 1988              		.loc 1 1222 0
 1989              		.cfi_startproc
 1990              		@ args = 0, pretend = 0, frame = 0
 1991              		@ frame_needed = 1, uses_anonymous_args = 0
 1992              		@ link register save eliminated.
 1993 0000 80B4     		push	{r7}
 1994              	.LCFI68:
 1995              		.cfi_def_cfa_offset 4
 1996 0002 00AF     		add	r7, sp, #0
 1997              		.cfi_offset 7, -4
 1998              	.LCFI69:
 1999              		.cfi_def_cfa_register 7
1223:.\Generated_Source\PSoC5/CyLib.c ****     CY_CLK_XTAL32_TST_REG  = CY_CLK_XTAL32_TST_DEFAULT;
 2000              		.loc 1 1223 0
 2001 0004 44F20A33 		movw	r3, #:lower16:1073758986
 2002 0008 C4F20003 		movt	r3, #:upper16:1073758986
 2003 000c 6FF00C02 		mvn	r2, #12
 2004 0010 1A70     		strb	r2, [r3, #0]
1224:.\Generated_Source\PSoC5/CyLib.c ****     CY_CLK_XTAL32_TR_REG   = CY_CLK_XTAL32_TR_POWERDOWN;
 2005              		.loc 1 1224 0
 2006 0012 44F29863 		movw	r3, #:lower16:1073759896
 2007 0016 C4F20003 		movt	r3, #:upper16:1073759896
 2008 001a 4FF00002 		mov	r2, #0
 2009 001e 1A70     		strb	r2, [r3, #0]
1225:.\Generated_Source\PSoC5/CyLib.c ****     CY_CLK_XTAL32_CFG_REG = (CY_CLK_XTAL32_CFG_REG & ~CY_CLK_XTAL32_CFG_LP_MASK) | CY_CLK_XTAL32_CF
 2010              		.loc 1 1225 0
 2011 0020 44F20933 		movw	r3, #:lower16:1073758985
 2012 0024 C4F20003 		movt	r3, #:upper16:1073758985
 2013 0028 44F20932 		movw	r2, #:lower16:1073758985
 2014 002c C4F20002 		movt	r2, #:upper16:1073758985
 2015 0030 1278     		ldrb	r2, [r2, #0]
 2016 0032 D2B2     		uxtb	r2, r2
 2017 0034 02F0F302 		and	r2, r2, #243
 2018 0038 42F00402 		orr	r2, r2, #4
 2019 003c D2B2     		uxtb	r2, r2
 2020 003e 1A70     		strb	r2, [r3, #0]
ARM GAS  C:\Users\Heiwa\AppData\Local\Temp\ccuYQ69z.s 			page 58


1226:.\Generated_Source\PSoC5/CyLib.c ****     CY_CLK_XTAL32_CR_REG &= ~(CY_CLK_XTAL32_CR_EN | CY_CLK_XTAL32_CR_LPM);
 2021              		.loc 1 1226 0
 2022 0040 44F20833 		movw	r3, #:lower16:1073758984
 2023 0044 C4F20003 		movt	r3, #:upper16:1073758984
 2024 0048 44F20832 		movw	r2, #:lower16:1073758984
 2025 004c C4F20002 		movt	r2, #:upper16:1073758984
 2026 0050 1278     		ldrb	r2, [r2, #0]
 2027 0052 D2B2     		uxtb	r2, r2
 2028 0054 02F0FC02 		and	r2, r2, #252
 2029 0058 1A70     		strb	r2, [r3, #0]
1227:.\Generated_Source\PSoC5/CyLib.c **** 
1228:.\Generated_Source\PSoC5/CyLib.c ****     #if(CY_PSOC3)
1229:.\Generated_Source\PSoC5/CyLib.c ****         CY_CLK_XTAL32_CR_REG &= ~CY_CLK_XTAL32_CR_PDBEN;
1230:.\Generated_Source\PSoC5/CyLib.c ****     #endif  /* (CY_PSOC3) */
1231:.\Generated_Source\PSoC5/CyLib.c **** }
 2030              		.loc 1 1231 0
 2031 005a BD46     		mov	sp, r7
 2032 005c 80BC     		pop	{r7}
 2033 005e 7047     		bx	lr
 2034              		.cfi_endproc
 2035              	.LFE26:
 2036              		.size	CyXTAL_32KHZ_Stop, .-CyXTAL_32KHZ_Stop
 2037              		.section	.text.CyXTAL_32KHZ_ReadStatus,"ax",%progbits
 2038              		.align	2
 2039              		.global	CyXTAL_32KHZ_ReadStatus
 2040              		.thumb
 2041              		.thumb_func
 2042              		.type	CyXTAL_32KHZ_ReadStatus, %function
 2043              	CyXTAL_32KHZ_ReadStatus:
 2044              	.LFB27:
1232:.\Generated_Source\PSoC5/CyLib.c **** 
1233:.\Generated_Source\PSoC5/CyLib.c **** 
1234:.\Generated_Source\PSoC5/CyLib.c **** /*******************************************************************************
1235:.\Generated_Source\PSoC5/CyLib.c **** * Function Name: CyXTAL_32KHZ_ReadStatus
1236:.\Generated_Source\PSoC5/CyLib.c **** ********************************************************************************
1237:.\Generated_Source\PSoC5/CyLib.c **** *
1238:.\Generated_Source\PSoC5/CyLib.c **** * Summary:
1239:.\Generated_Source\PSoC5/CyLib.c **** *  Returns status of the 32 KHz oscillator.
1240:.\Generated_Source\PSoC5/CyLib.c **** *
1241:.\Generated_Source\PSoC5/CyLib.c **** * Parameters:
1242:.\Generated_Source\PSoC5/CyLib.c **** *  None
1243:.\Generated_Source\PSoC5/CyLib.c **** *
1244:.\Generated_Source\PSoC5/CyLib.c **** * Return:
1245:.\Generated_Source\PSoC5/CyLib.c **** *  Value     Define                    Source
1246:.\Generated_Source\PSoC5/CyLib.c **** *  20        CY_XTAL32K_ANA_STAT       Analog measurement
1247:.\Generated_Source\PSoC5/CyLib.c **** *                                       1: Stable
1248:.\Generated_Source\PSoC5/CyLib.c **** *                                       0: Not stable
1249:.\Generated_Source\PSoC5/CyLib.c **** *
1250:.\Generated_Source\PSoC5/CyLib.c **** *******************************************************************************/
1251:.\Generated_Source\PSoC5/CyLib.c **** uint8 CyXTAL_32KHZ_ReadStatus(void) 
1252:.\Generated_Source\PSoC5/CyLib.c **** {
 2045              		.loc 1 1252 0
 2046              		.cfi_startproc
 2047              		@ args = 0, pretend = 0, frame = 0
 2048              		@ frame_needed = 1, uses_anonymous_args = 0
 2049              		@ link register save eliminated.
 2050 0000 80B4     		push	{r7}
ARM GAS  C:\Users\Heiwa\AppData\Local\Temp\ccuYQ69z.s 			page 59


 2051              	.LCFI70:
 2052              		.cfi_def_cfa_offset 4
 2053 0002 00AF     		add	r7, sp, #0
 2054              		.cfi_offset 7, -4
 2055              	.LCFI71:
 2056              		.cfi_def_cfa_register 7
1253:.\Generated_Source\PSoC5/CyLib.c ****     return(CY_CLK_XTAL32_CR_REG & CY_XTAL32K_ANA_STAT);
 2057              		.loc 1 1253 0
 2058 0004 44F20833 		movw	r3, #:lower16:1073758984
 2059 0008 C4F20003 		movt	r3, #:upper16:1073758984
 2060 000c 1B78     		ldrb	r3, [r3, #0]
 2061 000e DBB2     		uxtb	r3, r3
 2062 0010 03F02003 		and	r3, r3, #32
1254:.\Generated_Source\PSoC5/CyLib.c **** }
 2063              		.loc 1 1254 0
 2064 0014 1846     		mov	r0, r3
 2065 0016 BD46     		mov	sp, r7
 2066 0018 80BC     		pop	{r7}
 2067 001a 7047     		bx	lr
 2068              		.cfi_endproc
 2069              	.LFE27:
 2070              		.size	CyXTAL_32KHZ_ReadStatus, .-CyXTAL_32KHZ_ReadStatus
 2071              		.section	.text.CyXTAL_32KHZ_SetPowerMode,"ax",%progbits
 2072              		.align	2
 2073              		.global	CyXTAL_32KHZ_SetPowerMode
 2074              		.thumb
 2075              		.thumb_func
 2076              		.type	CyXTAL_32KHZ_SetPowerMode, %function
 2077              	CyXTAL_32KHZ_SetPowerMode:
 2078              	.LFB28:
1255:.\Generated_Source\PSoC5/CyLib.c **** 
1256:.\Generated_Source\PSoC5/CyLib.c **** 
1257:.\Generated_Source\PSoC5/CyLib.c **** /*******************************************************************************
1258:.\Generated_Source\PSoC5/CyLib.c **** * Function Name: CyXTAL_32KHZ_SetPowerMode
1259:.\Generated_Source\PSoC5/CyLib.c **** ********************************************************************************
1260:.\Generated_Source\PSoC5/CyLib.c **** *
1261:.\Generated_Source\PSoC5/CyLib.c **** * Summary:
1262:.\Generated_Source\PSoC5/CyLib.c **** *  Sets the power mode for the 32 KHz oscillator used during sleep mode.
1263:.\Generated_Source\PSoC5/CyLib.c **** *  Allows for lower power during sleep when there are fewer sources of noise.
1264:.\Generated_Source\PSoC5/CyLib.c **** *  During active mode the oscillator is always run in high power mode.
1265:.\Generated_Source\PSoC5/CyLib.c **** *
1266:.\Generated_Source\PSoC5/CyLib.c **** * Parameters:
1267:.\Generated_Source\PSoC5/CyLib.c **** *  uint8 mode
1268:.\Generated_Source\PSoC5/CyLib.c **** *       0: High power mode
1269:.\Generated_Source\PSoC5/CyLib.c **** *       1: Low power mode during sleep
1270:.\Generated_Source\PSoC5/CyLib.c **** *
1271:.\Generated_Source\PSoC5/CyLib.c **** * Return:
1272:.\Generated_Source\PSoC5/CyLib.c **** *  Previous power mode.
1273:.\Generated_Source\PSoC5/CyLib.c **** *
1274:.\Generated_Source\PSoC5/CyLib.c **** *******************************************************************************/
1275:.\Generated_Source\PSoC5/CyLib.c **** uint8 CyXTAL_32KHZ_SetPowerMode(uint8 mode) 
1276:.\Generated_Source\PSoC5/CyLib.c **** {
 2079              		.loc 1 1276 0
 2080              		.cfi_startproc
 2081              		@ args = 0, pretend = 0, frame = 16
 2082              		@ frame_needed = 1, uses_anonymous_args = 0
 2083 0000 80B5     		push	{r7, lr}
ARM GAS  C:\Users\Heiwa\AppData\Local\Temp\ccuYQ69z.s 			page 60


 2084              	.LCFI72:
 2085              		.cfi_def_cfa_offset 8
 2086 0002 84B0     		sub	sp, sp, #16
 2087              	.LCFI73:
 2088              		.cfi_def_cfa_offset 24
 2089 0004 00AF     		add	r7, sp, #0
 2090              		.cfi_offset 14, -4
 2091              		.cfi_offset 7, -8
 2092              	.LCFI74:
 2093              		.cfi_def_cfa_register 7
 2094 0006 0346     		mov	r3, r0
 2095 0008 FB71     		strb	r3, [r7, #7]
1277:.\Generated_Source\PSoC5/CyLib.c ****     uint8 state = (0u != (CY_CLK_XTAL32_CR_REG & CY_CLK_XTAL32_CR_LPM)) ? 1u : 0u;
 2096              		.loc 1 1277 0
 2097 000a 44F20833 		movw	r3, #:lower16:1073758984
 2098 000e C4F20003 		movt	r3, #:upper16:1073758984
 2099 0012 1B78     		ldrb	r3, [r3, #0]
 2100 0014 DBB2     		uxtb	r3, r3
 2101 0016 03F00203 		and	r3, r3, #2
 2102 001a 002B     		cmp	r3, #0
 2103 001c 02D0     		beq	.L139
 2104 001e 4FF00103 		mov	r3, #1
 2105 0022 01E0     		b	.L140
 2106              	.L139:
 2107 0024 4FF00003 		mov	r3, #0
 2108              	.L140:
 2109 0028 FB73     		strb	r3, [r7, #15]
1278:.\Generated_Source\PSoC5/CyLib.c **** 
1279:.\Generated_Source\PSoC5/CyLib.c ****     CY_CLK_XTAL32_TST_REG = CY_CLK_XTAL32_TST_DEFAULT;
 2110              		.loc 1 1279 0
 2111 002a 44F20A33 		movw	r3, #:lower16:1073758986
 2112 002e C4F20003 		movt	r3, #:upper16:1073758986
 2113 0032 6FF00C02 		mvn	r2, #12
 2114 0036 1A70     		strb	r2, [r3, #0]
1280:.\Generated_Source\PSoC5/CyLib.c **** 
1281:.\Generated_Source\PSoC5/CyLib.c ****     if(1u == mode)
 2115              		.loc 1 1281 0
 2116 0038 FB79     		ldrb	r3, [r7, #7]	@ zero_extendqisi2
 2117 003a 012B     		cmp	r3, #1
 2118 003c 2DD1     		bne	.L141
1282:.\Generated_Source\PSoC5/CyLib.c ****     {
1283:.\Generated_Source\PSoC5/CyLib.c ****         /* Low power mode during Sleep */
1284:.\Generated_Source\PSoC5/CyLib.c ****         CY_CLK_XTAL32_TR_REG  = CY_CLK_XTAL32_TR_LOW_POWER;
 2119              		.loc 1 1284 0
 2120 003e 44F29863 		movw	r3, #:lower16:1073759896
 2121 0042 C4F20003 		movt	r3, #:upper16:1073759896
 2122 0046 4FF00102 		mov	r2, #1
 2123 004a 1A70     		strb	r2, [r3, #0]
1285:.\Generated_Source\PSoC5/CyLib.c ****         CyDelayUs(10u);
 2124              		.loc 1 1285 0
 2125 004c 4FF00A00 		mov	r0, #10
 2126 0050 FFF7FEFF 		bl	CyDelayUs
1286:.\Generated_Source\PSoC5/CyLib.c ****         CY_CLK_XTAL32_CFG_REG = (CY_CLK_XTAL32_CFG_REG & ~CY_CLK_XTAL32_CFG_LP_MASK) | CY_CLK_XTAL3
 2127              		.loc 1 1286 0
 2128 0054 44F20933 		movw	r3, #:lower16:1073758985
 2129 0058 C4F20003 		movt	r3, #:upper16:1073758985
 2130 005c 44F20932 		movw	r2, #:lower16:1073758985
ARM GAS  C:\Users\Heiwa\AppData\Local\Temp\ccuYQ69z.s 			page 61


 2131 0060 C4F20002 		movt	r2, #:upper16:1073758985
 2132 0064 1278     		ldrb	r2, [r2, #0]
 2133 0066 D2B2     		uxtb	r2, r2
 2134 0068 02F0F302 		and	r2, r2, #243
 2135 006c 42F00802 		orr	r2, r2, #8
 2136 0070 D2B2     		uxtb	r2, r2
 2137 0072 1A70     		strb	r2, [r3, #0]
1287:.\Generated_Source\PSoC5/CyLib.c ****         CyDelayUs(20u);
 2138              		.loc 1 1287 0
 2139 0074 4FF01400 		mov	r0, #20
 2140 0078 FFF7FEFF 		bl	CyDelayUs
1288:.\Generated_Source\PSoC5/CyLib.c ****         CY_CLK_XTAL32_CR_REG |= CY_CLK_XTAL32_CR_LPM;
 2141              		.loc 1 1288 0
 2142 007c 44F20833 		movw	r3, #:lower16:1073758984
 2143 0080 C4F20003 		movt	r3, #:upper16:1073758984
 2144 0084 44F20832 		movw	r2, #:lower16:1073758984
 2145 0088 C4F20002 		movt	r2, #:upper16:1073758984
 2146 008c 1278     		ldrb	r2, [r2, #0]
 2147 008e D2B2     		uxtb	r2, r2
 2148 0090 42F00202 		orr	r2, r2, #2
 2149 0094 D2B2     		uxtb	r2, r2
 2150 0096 1A70     		strb	r2, [r3, #0]
 2151 0098 27E0     		b	.L142
 2152              	.L141:
1289:.\Generated_Source\PSoC5/CyLib.c ****     }
1290:.\Generated_Source\PSoC5/CyLib.c ****     else
1291:.\Generated_Source\PSoC5/CyLib.c ****     {
1292:.\Generated_Source\PSoC5/CyLib.c ****         /* High power mode */
1293:.\Generated_Source\PSoC5/CyLib.c ****         CY_CLK_XTAL32_TR_REG  = CY_CLK_XTAL32_TR_HIGH_POWER;
 2153              		.loc 1 1293 0
 2154 009a 44F29863 		movw	r3, #:lower16:1073759896
 2155 009e C4F20003 		movt	r3, #:upper16:1073759896
 2156 00a2 4FF00602 		mov	r2, #6
 2157 00a6 1A70     		strb	r2, [r3, #0]
1294:.\Generated_Source\PSoC5/CyLib.c ****         CyDelayUs(10u);
 2158              		.loc 1 1294 0
 2159 00a8 4FF00A00 		mov	r0, #10
 2160 00ac FFF7FEFF 		bl	CyDelayUs
1295:.\Generated_Source\PSoC5/CyLib.c ****         CY_CLK_XTAL32_CFG_REG = (CY_CLK_XTAL32_CFG_REG & ~CY_CLK_XTAL32_CFG_LP_MASK) | CY_CLK_XTAL3
 2161              		.loc 1 1295 0
 2162 00b0 44F20933 		movw	r3, #:lower16:1073758985
 2163 00b4 C4F20003 		movt	r3, #:upper16:1073758985
 2164 00b8 44F20932 		movw	r2, #:lower16:1073758985
 2165 00bc C4F20002 		movt	r2, #:upper16:1073758985
 2166 00c0 1278     		ldrb	r2, [r2, #0]
 2167 00c2 D2B2     		uxtb	r2, r2
 2168 00c4 02F0F302 		and	r2, r2, #243
 2169 00c8 42F00402 		orr	r2, r2, #4
 2170 00cc D2B2     		uxtb	r2, r2
 2171 00ce 1A70     		strb	r2, [r3, #0]
1296:.\Generated_Source\PSoC5/CyLib.c ****         CY_CLK_XTAL32_CR_REG &= ~CY_CLK_XTAL32_CR_LPM;
 2172              		.loc 1 1296 0
 2173 00d0 44F20833 		movw	r3, #:lower16:1073758984
 2174 00d4 C4F20003 		movt	r3, #:upper16:1073758984
 2175 00d8 44F20832 		movw	r2, #:lower16:1073758984
 2176 00dc C4F20002 		movt	r2, #:upper16:1073758984
 2177 00e0 1278     		ldrb	r2, [r2, #0]
ARM GAS  C:\Users\Heiwa\AppData\Local\Temp\ccuYQ69z.s 			page 62


 2178 00e2 D2B2     		uxtb	r2, r2
 2179 00e4 02F0FD02 		and	r2, r2, #253
 2180 00e8 1A70     		strb	r2, [r3, #0]
 2181              	.L142:
1297:.\Generated_Source\PSoC5/CyLib.c ****     }
1298:.\Generated_Source\PSoC5/CyLib.c **** 
1299:.\Generated_Source\PSoC5/CyLib.c ****     return(state);
 2182              		.loc 1 1299 0
 2183 00ea FB7B     		ldrb	r3, [r7, #15]	@ zero_extendqisi2
1300:.\Generated_Source\PSoC5/CyLib.c **** }
 2184              		.loc 1 1300 0
 2185 00ec 1846     		mov	r0, r3
 2186 00ee 07F11007 		add	r7, r7, #16
 2187 00f2 BD46     		mov	sp, r7
 2188 00f4 80BD     		pop	{r7, pc}
 2189              		.cfi_endproc
 2190              	.LFE28:
 2191              		.size	CyXTAL_32KHZ_SetPowerMode, .-CyXTAL_32KHZ_SetPowerMode
 2192 00f6 00BF     		.section	.text.CyXTAL_Start,"ax",%progbits
 2193              		.align	2
 2194              		.global	CyXTAL_Start
 2195              		.thumb
 2196              		.thumb_func
 2197              		.type	CyXTAL_Start, %function
 2198              	CyXTAL_Start:
 2199              	.LFB29:
1301:.\Generated_Source\PSoC5/CyLib.c **** 
1302:.\Generated_Source\PSoC5/CyLib.c **** 
1303:.\Generated_Source\PSoC5/CyLib.c **** /*******************************************************************************
1304:.\Generated_Source\PSoC5/CyLib.c **** * Function Name: CyXTAL_Start
1305:.\Generated_Source\PSoC5/CyLib.c **** ********************************************************************************
1306:.\Generated_Source\PSoC5/CyLib.c **** *
1307:.\Generated_Source\PSoC5/CyLib.c **** * Summary:
1308:.\Generated_Source\PSoC5/CyLib.c **** *  Enables the megahertz crystal.
1309:.\Generated_Source\PSoC5/CyLib.c **** *
1310:.\Generated_Source\PSoC5/CyLib.c **** *  PSoC3:
1311:.\Generated_Source\PSoC5/CyLib.c **** *  Waits until the XERR bit is low (no error) for a millisecond or until the
1312:.\Generated_Source\PSoC5/CyLib.c **** *  number of milliseconds specified by the wait parameter has expired.
1313:.\Generated_Source\PSoC5/CyLib.c **** *
1314:.\Generated_Source\PSoC5/CyLib.c **** *  PSoC5:
1315:.\Generated_Source\PSoC5/CyLib.c **** *  Waits for CY_CLK_XMHZ_MIN_TIMEOUT milliseconds (or number of milliseconds
1316:.\Generated_Source\PSoC5/CyLib.c **** *  specified by parameter if it is greater than CY_CLK_XMHZ_MIN_TIMEOUT. The
1317:.\Generated_Source\PSoC5/CyLib.c **** *  XERR bit status is not checked.
1318:.\Generated_Source\PSoC5/CyLib.c **** *
1319:.\Generated_Source\PSoC5/CyLib.c **** * Parameters:
1320:.\Generated_Source\PSoC5/CyLib.c **** *   wait: Valid range [0-255].
1321:.\Generated_Source\PSoC5/CyLib.c **** *   This is the timeout value in milliseconds.
1322:.\Generated_Source\PSoC5/CyLib.c **** *   The appropriate value is crystal specific.
1323:.\Generated_Source\PSoC5/CyLib.c **** *
1324:.\Generated_Source\PSoC5/CyLib.c **** * Return:
1325:.\Generated_Source\PSoC5/CyLib.c **** *   CYRET_SUCCESS - Completed successfully
1326:.\Generated_Source\PSoC5/CyLib.c **** *   CYRET_TIMEOUT - Timeout occurred without detecting a low value on XERR.
1327:.\Generated_Source\PSoC5/CyLib.c **** *
1328:.\Generated_Source\PSoC5/CyLib.c **** * Side Effects and Restrictions:
1329:.\Generated_Source\PSoC5/CyLib.c **** *  If wait is enabled (non-zero wait). Uses the Fast Timewheel to time the wait.
1330:.\Generated_Source\PSoC5/CyLib.c **** *  Any other use of the Fast Timewheel (FTW) will be stopped during the period
1331:.\Generated_Source\PSoC5/CyLib.c **** *  of this function and then restored.
ARM GAS  C:\Users\Heiwa\AppData\Local\Temp\ccuYQ69z.s 			page 63


1332:.\Generated_Source\PSoC5/CyLib.c **** *
1333:.\Generated_Source\PSoC5/CyLib.c **** *  Uses the 100KHz ILO.  If not enabled, this function will enable the 100KHz
1334:.\Generated_Source\PSoC5/CyLib.c **** *  ILO for the period of this function. No changes to the setup of the ILO,
1335:.\Generated_Source\PSoC5/CyLib.c **** *  Fast Timewheel, Central Timewheel or Once Per Second interrupt may be made
1336:.\Generated_Source\PSoC5/CyLib.c **** *  by interrupt routines during the period of this function.
1337:.\Generated_Source\PSoC5/CyLib.c **** *
1338:.\Generated_Source\PSoC5/CyLib.c **** *  The current operation of the ILO, Central Timewheel and Once Per Second
1339:.\Generated_Source\PSoC5/CyLib.c **** *  interrupt are maintained during the operation of this function provided the
1340:.\Generated_Source\PSoC5/CyLib.c **** *  reading of the Power Manager Interrupt Status Register is only done using the
1341:.\Generated_Source\PSoC5/CyLib.c **** *  CyPmReadStatus() function.
1342:.\Generated_Source\PSoC5/CyLib.c **** *
1343:.\Generated_Source\PSoC5/CyLib.c **** *******************************************************************************/
1344:.\Generated_Source\PSoC5/CyLib.c **** cystatus CyXTAL_Start(uint8 wait) 
1345:.\Generated_Source\PSoC5/CyLib.c **** {
 2200              		.loc 1 1345 0
 2201              		.cfi_startproc
 2202              		@ args = 0, pretend = 0, frame = 24
 2203              		@ frame_needed = 1, uses_anonymous_args = 0
 2204 0000 80B5     		push	{r7, lr}
 2205              	.LCFI75:
 2206              		.cfi_def_cfa_offset 8
 2207 0002 86B0     		sub	sp, sp, #24
 2208              	.LCFI76:
 2209              		.cfi_def_cfa_offset 32
 2210 0004 00AF     		add	r7, sp, #0
 2211              		.cfi_offset 14, -4
 2212              		.cfi_offset 7, -8
 2213              	.LCFI77:
 2214              		.cfi_def_cfa_register 7
 2215 0006 0346     		mov	r3, r0
 2216 0008 FB71     		strb	r3, [r7, #7]
1346:.\Generated_Source\PSoC5/CyLib.c ****     cystatus status = CYRET_SUCCESS;
 2217              		.loc 1 1346 0
 2218 000a 4FF00003 		mov	r3, #0
 2219 000e 3B61     		str	r3, [r7, #16]
1347:.\Generated_Source\PSoC5/CyLib.c **** 
1348:.\Generated_Source\PSoC5/CyLib.c ****     #if(CY_PSOC5A)
1349:.\Generated_Source\PSoC5/CyLib.c ****         volatile uint8  timeout = (wait < CY_CLK_XMHZ_MIN_TIMEOUT) ? CY_CLK_XMHZ_MIN_TIMEOUT : wait
 2220              		.loc 1 1349 0
 2221 0010 FB79     		ldrb	r3, [r7, #7]	@ zero_extendqisi2
 2222 0012 822B     		cmp	r3, #130
 2223 0014 38BF     		it	cc
 2224 0016 8223     		movcc	r3, #130
 2225 0018 DBB2     		uxtb	r3, r3
 2226 001a FB73     		strb	r3, [r7, #15]
1350:.\Generated_Source\PSoC5/CyLib.c ****     #else
1351:.\Generated_Source\PSoC5/CyLib.c ****         volatile uint8  timeout = wait;
1352:.\Generated_Source\PSoC5/CyLib.c ****     #endif  /* (CY_PSOC5A) */
1353:.\Generated_Source\PSoC5/CyLib.c **** 
1354:.\Generated_Source\PSoC5/CyLib.c ****     volatile uint8 count;
1355:.\Generated_Source\PSoC5/CyLib.c ****     uint8 iloEnableState;
1356:.\Generated_Source\PSoC5/CyLib.c ****     uint8 pmTwCfg0;
1357:.\Generated_Source\PSoC5/CyLib.c ****     uint8 pmTwCfg2;
1358:.\Generated_Source\PSoC5/CyLib.c **** 
1359:.\Generated_Source\PSoC5/CyLib.c **** 
1360:.\Generated_Source\PSoC5/CyLib.c ****     /* Enables the MHz crystal oscillator circuit  */
1361:.\Generated_Source\PSoC5/CyLib.c ****     CY_CLK_XMHZ_CSR_REG |= CY_CLK_XMHZ_CSR_ENABLE;
ARM GAS  C:\Users\Heiwa\AppData\Local\Temp\ccuYQ69z.s 			page 64


 2227              		.loc 1 1361 0
 2228 001c 44F21023 		movw	r3, #:lower16:1073758736
 2229 0020 C4F20003 		movt	r3, #:upper16:1073758736
 2230 0024 44F21022 		movw	r2, #:lower16:1073758736
 2231 0028 C4F20002 		movt	r2, #:upper16:1073758736
 2232 002c 1278     		ldrb	r2, [r2, #0]
 2233 002e D2B2     		uxtb	r2, r2
 2234 0030 42F00102 		orr	r2, r2, #1
 2235 0034 D2B2     		uxtb	r2, r2
 2236 0036 1A70     		strb	r2, [r3, #0]
1362:.\Generated_Source\PSoC5/CyLib.c **** 
1363:.\Generated_Source\PSoC5/CyLib.c **** 
1364:.\Generated_Source\PSoC5/CyLib.c ****     if(wait > 0)
 2237              		.loc 1 1364 0
 2238 0038 FB79     		ldrb	r3, [r7, #7]	@ zero_extendqisi2
 2239 003a 002B     		cmp	r3, #0
 2240 003c 4BD0     		beq	.L145
1365:.\Generated_Source\PSoC5/CyLib.c ****     {
1366:.\Generated_Source\PSoC5/CyLib.c ****         /* Save 100 KHz ILO, FTW interval, enable and interrupt enable */
1367:.\Generated_Source\PSoC5/CyLib.c ****         iloEnableState = SLOWCLK_ILO_CR0;
 2241              		.loc 1 1367 0
 2242 003e 44F20033 		movw	r3, #:lower16:1073758976
 2243 0042 C4F20003 		movt	r3, #:upper16:1073758976
 2244 0046 1B78     		ldrb	r3, [r3, #0]
 2245 0048 7B75     		strb	r3, [r7, #21]
1368:.\Generated_Source\PSoC5/CyLib.c ****         pmTwCfg0 = CY_PM_TW_CFG0_REG;
 2246              		.loc 1 1368 0
 2247 004a 44F28033 		movw	r3, #:lower16:1073759104
 2248 004e C4F20003 		movt	r3, #:upper16:1073759104
 2249 0052 1B78     		ldrb	r3, [r3, #0]
 2250 0054 BB75     		strb	r3, [r7, #22]
1369:.\Generated_Source\PSoC5/CyLib.c ****         pmTwCfg2 = CY_PM_TW_CFG2_REG;
 2251              		.loc 1 1369 0
 2252 0056 44F28233 		movw	r3, #:lower16:1073759106
 2253 005a C4F20003 		movt	r3, #:upper16:1073759106
 2254 005e 1B78     		ldrb	r3, [r3, #0]
 2255 0060 FB75     		strb	r3, [r7, #23]
1370:.\Generated_Source\PSoC5/CyLib.c **** 
1371:.\Generated_Source\PSoC5/CyLib.c ****         /* Set 250 us interval */
1372:.\Generated_Source\PSoC5/CyLib.c ****         CyPmFtwSetInterval(CY_CLK_XMHZ_FTW_INTERVAL);
 2256              		.loc 1 1372 0
 2257 0062 4FF01800 		mov	r0, #24
 2258 0066 FFF7FEFF 		bl	CyPmFtwSetInterval
1373:.\Generated_Source\PSoC5/CyLib.c ****         status = CYRET_TIMEOUT;
 2259              		.loc 1 1373 0
 2260 006a 4FF01003 		mov	r3, #16
 2261 006e 3B61     		str	r3, [r7, #16]
1374:.\Generated_Source\PSoC5/CyLib.c **** 
1375:.\Generated_Source\PSoC5/CyLib.c **** 
1376:.\Generated_Source\PSoC5/CyLib.c ****         for( ; timeout > 0; timeout--)
 2262              		.loc 1 1376 0
 2263 0070 1AE0     		b	.L146
 2264              	.L149:
1377:.\Generated_Source\PSoC5/CyLib.c ****         {
1378:.\Generated_Source\PSoC5/CyLib.c ****             #if(!CY_PSOC5A)
1379:.\Generated_Source\PSoC5/CyLib.c **** 
1380:.\Generated_Source\PSoC5/CyLib.c ****                 /* Read XERR bit to clear it */
ARM GAS  C:\Users\Heiwa\AppData\Local\Temp\ccuYQ69z.s 			page 65


1381:.\Generated_Source\PSoC5/CyLib.c ****                 (void) CY_CLK_XMHZ_CSR_REG;
1382:.\Generated_Source\PSoC5/CyLib.c **** 
1383:.\Generated_Source\PSoC5/CyLib.c ****             #endif  /* (!CY_PSOC5A) */
1384:.\Generated_Source\PSoC5/CyLib.c **** 
1385:.\Generated_Source\PSoC5/CyLib.c **** 
1386:.\Generated_Source\PSoC5/CyLib.c ****             /* Wait for a millisecond - 4 x 250 us */
1387:.\Generated_Source\PSoC5/CyLib.c ****             for(count = 4u; count > 0u; count--)
 2265              		.loc 1 1387 0
 2266 0072 4FF00403 		mov	r3, #4
 2267 0076 BB73     		strb	r3, [r7, #14]
 2268 0078 0CE0     		b	.L147
 2269              	.L148:
1388:.\Generated_Source\PSoC5/CyLib.c ****             {
1389:.\Generated_Source\PSoC5/CyLib.c ****                 while(!(CY_PM_FTW_INT == CyPmReadStatus(CY_PM_FTW_INT)))
 2270              		.loc 1 1389 0
 2271 007a 4FF00100 		mov	r0, #1
 2272 007e FFF7FEFF 		bl	CyPmReadStatus
 2273 0082 0346     		mov	r3, r0
 2274 0084 012B     		cmp	r3, #1
 2275 0086 F8D1     		bne	.L148
 2276              		.loc 1 1387 0
 2277 0088 BB7B     		ldrb	r3, [r7, #14]
 2278 008a DBB2     		uxtb	r3, r3
 2279 008c 03F1FF33 		add	r3, r3, #-1
 2280 0090 DBB2     		uxtb	r3, r3
 2281 0092 BB73     		strb	r3, [r7, #14]
 2282              	.L147:
 2283 0094 BB7B     		ldrb	r3, [r7, #14]
 2284 0096 DBB2     		uxtb	r3, r3
 2285 0098 002B     		cmp	r3, #0
 2286 009a EED1     		bne	.L148
 2287              		.loc 1 1376 0
 2288 009c FB7B     		ldrb	r3, [r7, #15]
 2289 009e DBB2     		uxtb	r3, r3
 2290 00a0 03F1FF33 		add	r3, r3, #-1
 2291 00a4 DBB2     		uxtb	r3, r3
 2292 00a6 FB73     		strb	r3, [r7, #15]
 2293              	.L146:
 2294 00a8 FB7B     		ldrb	r3, [r7, #15]
 2295 00aa DBB2     		uxtb	r3, r3
 2296 00ac 002B     		cmp	r3, #0
 2297 00ae E0D1     		bne	.L149
1390:.\Generated_Source\PSoC5/CyLib.c ****                 {
1391:.\Generated_Source\PSoC5/CyLib.c ****                     /* Wait for the FTW interrupt event */
1392:.\Generated_Source\PSoC5/CyLib.c ****                 }
1393:.\Generated_Source\PSoC5/CyLib.c ****             }
1394:.\Generated_Source\PSoC5/CyLib.c **** 
1395:.\Generated_Source\PSoC5/CyLib.c **** 
1396:.\Generated_Source\PSoC5/CyLib.c ****             #if(!CY_PSOC5A)
1397:.\Generated_Source\PSoC5/CyLib.c **** 
1398:.\Generated_Source\PSoC5/CyLib.c ****                 /*******************************************************************
1399:.\Generated_Source\PSoC5/CyLib.c ****                 * High output indicates oscillator failure.
1400:.\Generated_Source\PSoC5/CyLib.c ****                 * Only can be used after start-up interval (1 ms) is completed.
1401:.\Generated_Source\PSoC5/CyLib.c ****                 *******************************************************************/
1402:.\Generated_Source\PSoC5/CyLib.c ****                 if(0u == (CY_CLK_XMHZ_CSR_REG & CY_CLK_XMHZ_CSR_XERR))
1403:.\Generated_Source\PSoC5/CyLib.c ****                 {
1404:.\Generated_Source\PSoC5/CyLib.c ****                     status = CYRET_SUCCESS;
ARM GAS  C:\Users\Heiwa\AppData\Local\Temp\ccuYQ69z.s 			page 66


1405:.\Generated_Source\PSoC5/CyLib.c ****                     break;
1406:.\Generated_Source\PSoC5/CyLib.c ****                 }
1407:.\Generated_Source\PSoC5/CyLib.c **** 
1408:.\Generated_Source\PSoC5/CyLib.c ****             #endif  /* (!CY_PSOC5A) */
1409:.\Generated_Source\PSoC5/CyLib.c ****         }
1410:.\Generated_Source\PSoC5/CyLib.c **** 
1411:.\Generated_Source\PSoC5/CyLib.c **** 
1412:.\Generated_Source\PSoC5/CyLib.c ****         /* Restore 100 KHz ILO, FTW interval, enable and interrupt enable */
1413:.\Generated_Source\PSoC5/CyLib.c ****         if(0u == (iloEnableState & ILO_CONTROL_100KHZ_ON))
 2298              		.loc 1 1413 0
 2299 00b0 7B7D     		ldrb	r3, [r7, #21]	@ zero_extendqisi2
 2300 00b2 03F00403 		and	r3, r3, #4
 2301 00b6 002B     		cmp	r3, #0
 2302 00b8 01D1     		bne	.L150
1414:.\Generated_Source\PSoC5/CyLib.c ****         {
1415:.\Generated_Source\PSoC5/CyLib.c ****             CyILO_Stop100K();
 2303              		.loc 1 1415 0
 2304 00ba FFF7FEFF 		bl	CyILO_Stop100K
 2305              	.L150:
1416:.\Generated_Source\PSoC5/CyLib.c ****         }
1417:.\Generated_Source\PSoC5/CyLib.c ****         CY_PM_TW_CFG0_REG = pmTwCfg0;
 2306              		.loc 1 1417 0
 2307 00be 44F28033 		movw	r3, #:lower16:1073759104
 2308 00c2 C4F20003 		movt	r3, #:upper16:1073759104
 2309 00c6 BA7D     		ldrb	r2, [r7, #22]
 2310 00c8 1A70     		strb	r2, [r3, #0]
1418:.\Generated_Source\PSoC5/CyLib.c ****         CY_PM_TW_CFG2_REG = pmTwCfg2;
 2311              		.loc 1 1418 0
 2312 00ca 44F28233 		movw	r3, #:lower16:1073759106
 2313 00ce C4F20003 		movt	r3, #:upper16:1073759106
 2314 00d2 FA7D     		ldrb	r2, [r7, #23]
 2315 00d4 1A70     		strb	r2, [r3, #0]
 2316              	.L145:
1419:.\Generated_Source\PSoC5/CyLib.c ****     }
1420:.\Generated_Source\PSoC5/CyLib.c **** 
1421:.\Generated_Source\PSoC5/CyLib.c ****     return(status);
 2317              		.loc 1 1421 0
 2318 00d6 3B69     		ldr	r3, [r7, #16]
1422:.\Generated_Source\PSoC5/CyLib.c **** }
 2319              		.loc 1 1422 0
 2320 00d8 1846     		mov	r0, r3
 2321 00da 07F11807 		add	r7, r7, #24
 2322 00de BD46     		mov	sp, r7
 2323 00e0 80BD     		pop	{r7, pc}
 2324              		.cfi_endproc
 2325              	.LFE29:
 2326              		.size	CyXTAL_Start, .-CyXTAL_Start
 2327 00e2 00BF     		.section	.text.CyXTAL_Stop,"ax",%progbits
 2328              		.align	2
 2329              		.global	CyXTAL_Stop
 2330              		.thumb
 2331              		.thumb_func
 2332              		.type	CyXTAL_Stop, %function
 2333              	CyXTAL_Stop:
 2334              	.LFB30:
1423:.\Generated_Source\PSoC5/CyLib.c **** 
1424:.\Generated_Source\PSoC5/CyLib.c **** 
ARM GAS  C:\Users\Heiwa\AppData\Local\Temp\ccuYQ69z.s 			page 67


1425:.\Generated_Source\PSoC5/CyLib.c **** /*******************************************************************************
1426:.\Generated_Source\PSoC5/CyLib.c **** * Function Name: CyXTAL_Stop
1427:.\Generated_Source\PSoC5/CyLib.c **** ********************************************************************************
1428:.\Generated_Source\PSoC5/CyLib.c **** *
1429:.\Generated_Source\PSoC5/CyLib.c **** * Summary:
1430:.\Generated_Source\PSoC5/CyLib.c **** *  Disables the megahertz crystal oscillator.
1431:.\Generated_Source\PSoC5/CyLib.c **** *
1432:.\Generated_Source\PSoC5/CyLib.c **** * Parameters:
1433:.\Generated_Source\PSoC5/CyLib.c **** *  None
1434:.\Generated_Source\PSoC5/CyLib.c **** *
1435:.\Generated_Source\PSoC5/CyLib.c **** * Return:
1436:.\Generated_Source\PSoC5/CyLib.c **** *  None
1437:.\Generated_Source\PSoC5/CyLib.c **** *
1438:.\Generated_Source\PSoC5/CyLib.c **** *******************************************************************************/
1439:.\Generated_Source\PSoC5/CyLib.c **** void CyXTAL_Stop(void) 
1440:.\Generated_Source\PSoC5/CyLib.c **** {
 2335              		.loc 1 1440 0
 2336              		.cfi_startproc
 2337              		@ args = 0, pretend = 0, frame = 0
 2338              		@ frame_needed = 1, uses_anonymous_args = 0
 2339              		@ link register save eliminated.
 2340 0000 80B4     		push	{r7}
 2341              	.LCFI78:
 2342              		.cfi_def_cfa_offset 4
 2343 0002 00AF     		add	r7, sp, #0
 2344              		.cfi_offset 7, -4
 2345              	.LCFI79:
 2346              		.cfi_def_cfa_register 7
1441:.\Generated_Source\PSoC5/CyLib.c ****     /* Disable the the oscillator. */
1442:.\Generated_Source\PSoC5/CyLib.c ****     FASTCLK_XMHZ_CSR &= ~XMHZ_CONTROL_ENABLE;
 2347              		.loc 1 1442 0
 2348 0004 44F21023 		movw	r3, #:lower16:1073758736
 2349 0008 C4F20003 		movt	r3, #:upper16:1073758736
 2350 000c 44F21022 		movw	r2, #:lower16:1073758736
 2351 0010 C4F20002 		movt	r2, #:upper16:1073758736
 2352 0014 1278     		ldrb	r2, [r2, #0]
 2353 0016 D2B2     		uxtb	r2, r2
 2354 0018 02F0FE02 		and	r2, r2, #254
 2355 001c 1A70     		strb	r2, [r3, #0]
1443:.\Generated_Source\PSoC5/CyLib.c **** }
 2356              		.loc 1 1443 0
 2357 001e BD46     		mov	sp, r7
 2358 0020 80BC     		pop	{r7}
 2359 0022 7047     		bx	lr
 2360              		.cfi_endproc
 2361              	.LFE30:
 2362              		.size	CyXTAL_Stop, .-CyXTAL_Stop
 2363              		.section	.text.CyXTAL_SetStartup,"ax",%progbits
 2364              		.align	2
 2365              		.global	CyXTAL_SetStartup
 2366              		.thumb
 2367              		.thumb_func
 2368              		.type	CyXTAL_SetStartup, %function
 2369              	CyXTAL_SetStartup:
 2370              	.LFB31:
1444:.\Generated_Source\PSoC5/CyLib.c **** 
1445:.\Generated_Source\PSoC5/CyLib.c **** 
ARM GAS  C:\Users\Heiwa\AppData\Local\Temp\ccuYQ69z.s 			page 68


1446:.\Generated_Source\PSoC5/CyLib.c **** #if(!CY_PSOC5A)
1447:.\Generated_Source\PSoC5/CyLib.c **** 
1448:.\Generated_Source\PSoC5/CyLib.c ****     /*******************************************************************************
1449:.\Generated_Source\PSoC5/CyLib.c ****     * Function Name: CyXTAL_EnableErrStatus
1450:.\Generated_Source\PSoC5/CyLib.c ****     ********************************************************************************
1451:.\Generated_Source\PSoC5/CyLib.c ****     *
1452:.\Generated_Source\PSoC5/CyLib.c ****     * Summary:
1453:.\Generated_Source\PSoC5/CyLib.c ****     *  Enables the generation of the XERR status bit for the megahertz crystal.
1454:.\Generated_Source\PSoC5/CyLib.c ****     *  This function is not available for PSoC5.
1455:.\Generated_Source\PSoC5/CyLib.c ****     *
1456:.\Generated_Source\PSoC5/CyLib.c ****     * Parameters:
1457:.\Generated_Source\PSoC5/CyLib.c ****     *  None
1458:.\Generated_Source\PSoC5/CyLib.c ****     *
1459:.\Generated_Source\PSoC5/CyLib.c ****     * Return:
1460:.\Generated_Source\PSoC5/CyLib.c ****     *  None
1461:.\Generated_Source\PSoC5/CyLib.c ****     *
1462:.\Generated_Source\PSoC5/CyLib.c ****     *******************************************************************************/
1463:.\Generated_Source\PSoC5/CyLib.c ****     void CyXTAL_EnableErrStatus(void) 
1464:.\Generated_Source\PSoC5/CyLib.c ****     {
1465:.\Generated_Source\PSoC5/CyLib.c ****         /* If oscillator has insufficient amplitude, XERR bit will be high. */
1466:.\Generated_Source\PSoC5/CyLib.c ****         CY_CLK_XMHZ_CSR_REG &= ~CY_CLK_XMHZ_CSR_XFB;
1467:.\Generated_Source\PSoC5/CyLib.c ****     }
1468:.\Generated_Source\PSoC5/CyLib.c **** 
1469:.\Generated_Source\PSoC5/CyLib.c **** 
1470:.\Generated_Source\PSoC5/CyLib.c ****     /*******************************************************************************
1471:.\Generated_Source\PSoC5/CyLib.c ****     * Function Name: CyXTAL_DisableErrStatus
1472:.\Generated_Source\PSoC5/CyLib.c ****     ********************************************************************************
1473:.\Generated_Source\PSoC5/CyLib.c ****     *
1474:.\Generated_Source\PSoC5/CyLib.c ****     * Summary:
1475:.\Generated_Source\PSoC5/CyLib.c ****     *  Disables the generation of the XERR status bit for the megahertz crystal.
1476:.\Generated_Source\PSoC5/CyLib.c ****     *  This function is not available for PSoC5.
1477:.\Generated_Source\PSoC5/CyLib.c ****     *
1478:.\Generated_Source\PSoC5/CyLib.c ****     * Parameters:
1479:.\Generated_Source\PSoC5/CyLib.c ****     *  None
1480:.\Generated_Source\PSoC5/CyLib.c ****     *
1481:.\Generated_Source\PSoC5/CyLib.c ****     * Return:
1482:.\Generated_Source\PSoC5/CyLib.c ****     *  None
1483:.\Generated_Source\PSoC5/CyLib.c ****     *
1484:.\Generated_Source\PSoC5/CyLib.c ****     *******************************************************************************/
1485:.\Generated_Source\PSoC5/CyLib.c ****     void CyXTAL_DisableErrStatus(void) 
1486:.\Generated_Source\PSoC5/CyLib.c ****     {
1487:.\Generated_Source\PSoC5/CyLib.c ****         /* If oscillator has insufficient amplitude, XERR bit will be high. */
1488:.\Generated_Source\PSoC5/CyLib.c ****         CY_CLK_XMHZ_CSR_REG |= CY_CLK_XMHZ_CSR_XFB;
1489:.\Generated_Source\PSoC5/CyLib.c ****     }
1490:.\Generated_Source\PSoC5/CyLib.c **** 
1491:.\Generated_Source\PSoC5/CyLib.c **** 
1492:.\Generated_Source\PSoC5/CyLib.c ****     /*******************************************************************************
1493:.\Generated_Source\PSoC5/CyLib.c ****     * Function Name: CyXTAL_ReadStatus
1494:.\Generated_Source\PSoC5/CyLib.c ****     ********************************************************************************
1495:.\Generated_Source\PSoC5/CyLib.c ****     *
1496:.\Generated_Source\PSoC5/CyLib.c ****     * Summary:
1497:.\Generated_Source\PSoC5/CyLib.c ****     *  Reads the XERR status bit for the megahertz crystal. This status bit is a
1498:.\Generated_Source\PSoC5/CyLib.c ****     *  sticky clear on read value. This function is not available for PSoC5.
1499:.\Generated_Source\PSoC5/CyLib.c ****     *
1500:.\Generated_Source\PSoC5/CyLib.c ****     * Parameters:
1501:.\Generated_Source\PSoC5/CyLib.c ****     *  None
1502:.\Generated_Source\PSoC5/CyLib.c ****     *
ARM GAS  C:\Users\Heiwa\AppData\Local\Temp\ccuYQ69z.s 			page 69


1503:.\Generated_Source\PSoC5/CyLib.c ****     * Return:
1504:.\Generated_Source\PSoC5/CyLib.c ****     *   Status
1505:.\Generated_Source\PSoC5/CyLib.c ****     *    0: No error
1506:.\Generated_Source\PSoC5/CyLib.c ****     *    1: Error
1507:.\Generated_Source\PSoC5/CyLib.c ****     *
1508:.\Generated_Source\PSoC5/CyLib.c ****     *******************************************************************************/
1509:.\Generated_Source\PSoC5/CyLib.c ****     uint8 CyXTAL_ReadStatus(void) 
1510:.\Generated_Source\PSoC5/CyLib.c ****     {
1511:.\Generated_Source\PSoC5/CyLib.c ****         /***************************************************************************
1512:.\Generated_Source\PSoC5/CyLib.c ****         * High output indicates oscillator failure. Only use this after start-up
1513:.\Generated_Source\PSoC5/CyLib.c ****         * interval is completed. This can be used for status and failure recovery.
1514:.\Generated_Source\PSoC5/CyLib.c ****         ***************************************************************************/
1515:.\Generated_Source\PSoC5/CyLib.c ****         return((0u != (CY_CLK_XMHZ_CSR_REG & CY_CLK_XMHZ_CSR_XERR)) ? 1u : 0u);
1516:.\Generated_Source\PSoC5/CyLib.c ****     }
1517:.\Generated_Source\PSoC5/CyLib.c **** 
1518:.\Generated_Source\PSoC5/CyLib.c **** 
1519:.\Generated_Source\PSoC5/CyLib.c ****     /*******************************************************************************
1520:.\Generated_Source\PSoC5/CyLib.c ****     * Function Name: CyXTAL_EnableFaultRecovery
1521:.\Generated_Source\PSoC5/CyLib.c ****     ********************************************************************************
1522:.\Generated_Source\PSoC5/CyLib.c ****     *
1523:.\Generated_Source\PSoC5/CyLib.c ****     * Summary:
1524:.\Generated_Source\PSoC5/CyLib.c ****     *  Enables the fault recovery circuit which will switch to the IMO in the case
1525:.\Generated_Source\PSoC5/CyLib.c ****     *  of a fault in the megahertz crystal circuit. The crystal must be up and
1526:.\Generated_Source\PSoC5/CyLib.c ****     *  running with the XERR bit at 0, before calling this function to prevent
1527:.\Generated_Source\PSoC5/CyLib.c ****     *  immediate fault switchover. This function is not available for PSoC5.
1528:.\Generated_Source\PSoC5/CyLib.c ****     *
1529:.\Generated_Source\PSoC5/CyLib.c ****     * Parameters:
1530:.\Generated_Source\PSoC5/CyLib.c ****     *  None
1531:.\Generated_Source\PSoC5/CyLib.c ****     *
1532:.\Generated_Source\PSoC5/CyLib.c ****     * Return:
1533:.\Generated_Source\PSoC5/CyLib.c ****     *  None
1534:.\Generated_Source\PSoC5/CyLib.c ****     *
1535:.\Generated_Source\PSoC5/CyLib.c ****     *******************************************************************************/
1536:.\Generated_Source\PSoC5/CyLib.c ****     void CyXTAL_EnableFaultRecovery(void) 
1537:.\Generated_Source\PSoC5/CyLib.c ****     {
1538:.\Generated_Source\PSoC5/CyLib.c ****         CY_CLK_XMHZ_CSR_REG |= CY_CLK_XMHZ_CSR_XPROT;
1539:.\Generated_Source\PSoC5/CyLib.c ****     }
1540:.\Generated_Source\PSoC5/CyLib.c **** 
1541:.\Generated_Source\PSoC5/CyLib.c **** 
1542:.\Generated_Source\PSoC5/CyLib.c ****     /*******************************************************************************
1543:.\Generated_Source\PSoC5/CyLib.c ****     * Function Name: CyXTAL_DisableFaultRecovery
1544:.\Generated_Source\PSoC5/CyLib.c ****     ********************************************************************************
1545:.\Generated_Source\PSoC5/CyLib.c ****     *
1546:.\Generated_Source\PSoC5/CyLib.c ****     * Summary:
1547:.\Generated_Source\PSoC5/CyLib.c ****     *  Disables the fault recovery circuit which will switch to the IMO in the case
1548:.\Generated_Source\PSoC5/CyLib.c ****     *  of a fault in the megahertz crystal circuit. This function is not available
1549:.\Generated_Source\PSoC5/CyLib.c ****     *  for PSoC5.
1550:.\Generated_Source\PSoC5/CyLib.c ****     *
1551:.\Generated_Source\PSoC5/CyLib.c ****     * Parameters:
1552:.\Generated_Source\PSoC5/CyLib.c ****     *  None
1553:.\Generated_Source\PSoC5/CyLib.c ****     *
1554:.\Generated_Source\PSoC5/CyLib.c ****     * Return:
1555:.\Generated_Source\PSoC5/CyLib.c ****     *  None
1556:.\Generated_Source\PSoC5/CyLib.c ****     *
1557:.\Generated_Source\PSoC5/CyLib.c ****     *******************************************************************************/
1558:.\Generated_Source\PSoC5/CyLib.c ****     void CyXTAL_DisableFaultRecovery(void) 
1559:.\Generated_Source\PSoC5/CyLib.c ****     {
ARM GAS  C:\Users\Heiwa\AppData\Local\Temp\ccuYQ69z.s 			page 70


1560:.\Generated_Source\PSoC5/CyLib.c ****         CY_CLK_XMHZ_CSR_REG &= ~CY_CLK_XMHZ_CSR_XPROT;
1561:.\Generated_Source\PSoC5/CyLib.c ****     }
1562:.\Generated_Source\PSoC5/CyLib.c **** 
1563:.\Generated_Source\PSoC5/CyLib.c **** #endif  /* (!CY_PSOC5A) */
1564:.\Generated_Source\PSoC5/CyLib.c **** 
1565:.\Generated_Source\PSoC5/CyLib.c **** /*******************************************************************************
1566:.\Generated_Source\PSoC5/CyLib.c **** * Function Name: CyXTAL_SetStartup
1567:.\Generated_Source\PSoC5/CyLib.c **** ********************************************************************************
1568:.\Generated_Source\PSoC5/CyLib.c **** *
1569:.\Generated_Source\PSoC5/CyLib.c **** * Summary:
1570:.\Generated_Source\PSoC5/CyLib.c **** *  Sets the startup settings for the crystal. Logic model outputs a frequency
1571:.\Generated_Source\PSoC5/CyLib.c **** *  (setting + 4) MHz when enabled.
1572:.\Generated_Source\PSoC5/CyLib.c **** *
1573:.\Generated_Source\PSoC5/CyLib.c **** *  This is artificial as the actual frequency is determined by an attached
1574:.\Generated_Source\PSoC5/CyLib.c **** *  external crystal.
1575:.\Generated_Source\PSoC5/CyLib.c **** *
1576:.\Generated_Source\PSoC5/CyLib.c **** * Parameters:
1577:.\Generated_Source\PSoC5/CyLib.c **** *  setting: Valid range [0-31].
1578:.\Generated_Source\PSoC5/CyLib.c **** *   Value is dependent on the frequency and quality of the crystal being used.
1579:.\Generated_Source\PSoC5/CyLib.c **** *   Refer to the device TRM and datasheet for more information.
1580:.\Generated_Source\PSoC5/CyLib.c **** *
1581:.\Generated_Source\PSoC5/CyLib.c **** * Return:
1582:.\Generated_Source\PSoC5/CyLib.c **** *  None
1583:.\Generated_Source\PSoC5/CyLib.c **** *
1584:.\Generated_Source\PSoC5/CyLib.c **** *******************************************************************************/
1585:.\Generated_Source\PSoC5/CyLib.c **** void CyXTAL_SetStartup(uint8 setting) 
1586:.\Generated_Source\PSoC5/CyLib.c **** {
 2371              		.loc 1 1586 0
 2372              		.cfi_startproc
 2373              		@ args = 0, pretend = 0, frame = 8
 2374              		@ frame_needed = 1, uses_anonymous_args = 0
 2375              		@ link register save eliminated.
 2376 0000 80B4     		push	{r7}
 2377              	.LCFI80:
 2378              		.cfi_def_cfa_offset 4
 2379 0002 83B0     		sub	sp, sp, #12
 2380              	.LCFI81:
 2381              		.cfi_def_cfa_offset 16
 2382 0004 00AF     		add	r7, sp, #0
 2383              		.cfi_offset 7, -4
 2384              	.LCFI82:
 2385              		.cfi_def_cfa_register 7
 2386 0006 0346     		mov	r3, r0
 2387 0008 FB71     		strb	r3, [r7, #7]
1587:.\Generated_Source\PSoC5/CyLib.c ****     CY_CLK_XMHZ_CFG0_REG = (CY_CLK_XMHZ_CFG0_REG & ~CY_CLK_XMHZ_CFG0_XCFG_MASK) |
 2388              		.loc 1 1587 0
 2389 000a 44F21223 		movw	r3, #:lower16:1073758738
 2390 000e C4F20003 		movt	r3, #:upper16:1073758738
 2391 0012 44F21222 		movw	r2, #:lower16:1073758738
 2392 0016 C4F20002 		movt	r2, #:upper16:1073758738
 2393 001a 1278     		ldrb	r2, [r2, #0]
 2394 001c D2B2     		uxtb	r2, r2
 2395 001e 1146     		mov	r1, r2
 2396 0020 01F0E001 		and	r1, r1, #224
 2397 0024 FA79     		ldrb	r2, [r7, #7]	@ zero_extendqisi2
 2398 0026 02F01F02 		and	r2, r2, #31
 2399 002a 41EA0202 		orr	r2, r1, r2
ARM GAS  C:\Users\Heiwa\AppData\Local\Temp\ccuYQ69z.s 			page 71


 2400 002e D2B2     		uxtb	r2, r2
 2401 0030 1A70     		strb	r2, [r3, #0]
1588:.\Generated_Source\PSoC5/CyLib.c ****                            (setting & CY_CLK_XMHZ_CFG0_XCFG_MASK);
1589:.\Generated_Source\PSoC5/CyLib.c **** }
 2402              		.loc 1 1589 0
 2403 0032 07F10C07 		add	r7, r7, #12
 2404 0036 BD46     		mov	sp, r7
 2405 0038 80BC     		pop	{r7}
 2406 003a 7047     		bx	lr
 2407              		.cfi_endproc
 2408              	.LFE31:
 2409              		.size	CyXTAL_SetStartup, .-CyXTAL_SetStartup
 2410              		.section	.text.CyHalt,"ax",%progbits
 2411              		.align	2
 2412              		.global	CyHalt
 2413              		.thumb
 2414              		.thumb_func
 2415              		.type	CyHalt, %function
 2416              	CyHalt:
 2417              	.LFB32:
1590:.\Generated_Source\PSoC5/CyLib.c **** 
1591:.\Generated_Source\PSoC5/CyLib.c **** 
1592:.\Generated_Source\PSoC5/CyLib.c **** #if(CY_PSOC3 || CY_PSOC5LP)
1593:.\Generated_Source\PSoC5/CyLib.c ****     /*******************************************************************************
1594:.\Generated_Source\PSoC5/CyLib.c ****     * Function Name: CyXTAL_SetFbVoltage
1595:.\Generated_Source\PSoC5/CyLib.c ****     ********************************************************************************
1596:.\Generated_Source\PSoC5/CyLib.c ****     *
1597:.\Generated_Source\PSoC5/CyLib.c ****     * Summary:
1598:.\Generated_Source\PSoC5/CyLib.c ****     *  Sets the feedback reference voltage to use for the crystal circuit.
1599:.\Generated_Source\PSoC5/CyLib.c ****     *  This function is only available for PSoC3 and PSoC 5LP.
1600:.\Generated_Source\PSoC5/CyLib.c ****     *
1601:.\Generated_Source\PSoC5/CyLib.c ****     * Parameters:
1602:.\Generated_Source\PSoC5/CyLib.c ****     *  setting: Valid range [0-15].
1603:.\Generated_Source\PSoC5/CyLib.c ****     *  Refer to the device TRM and datasheet for more information.
1604:.\Generated_Source\PSoC5/CyLib.c ****     *
1605:.\Generated_Source\PSoC5/CyLib.c ****     * Return:
1606:.\Generated_Source\PSoC5/CyLib.c ****     *  None
1607:.\Generated_Source\PSoC5/CyLib.c ****     *
1608:.\Generated_Source\PSoC5/CyLib.c ****     *******************************************************************************/
1609:.\Generated_Source\PSoC5/CyLib.c ****     void CyXTAL_SetFbVoltage(uint8 setting) 
1610:.\Generated_Source\PSoC5/CyLib.c ****     {
1611:.\Generated_Source\PSoC5/CyLib.c ****         CY_CLK_XMHZ_CFG1_REG = ((CY_CLK_XMHZ_CFG1_REG & ~CY_CLK_XMHZ_CFG1_VREF_FB_MASK) |
1612:.\Generated_Source\PSoC5/CyLib.c ****                                 (setting & CY_CLK_XMHZ_CFG1_VREF_FB_MASK));
1613:.\Generated_Source\PSoC5/CyLib.c ****     }
1614:.\Generated_Source\PSoC5/CyLib.c **** 
1615:.\Generated_Source\PSoC5/CyLib.c **** 
1616:.\Generated_Source\PSoC5/CyLib.c ****     /*******************************************************************************
1617:.\Generated_Source\PSoC5/CyLib.c ****     * Function Name: CyXTAL_SetWdVoltage
1618:.\Generated_Source\PSoC5/CyLib.c ****     ********************************************************************************
1619:.\Generated_Source\PSoC5/CyLib.c ****     *
1620:.\Generated_Source\PSoC5/CyLib.c ****     * Summary:
1621:.\Generated_Source\PSoC5/CyLib.c ****     *  Sets the reference voltage used by the watchdog to detect a failure in the
1622:.\Generated_Source\PSoC5/CyLib.c ****     *  crystal circuit. This function is only available for PSoC3 and PSoC 5LP.
1623:.\Generated_Source\PSoC5/CyLib.c ****     *
1624:.\Generated_Source\PSoC5/CyLib.c ****     * Parameters:
1625:.\Generated_Source\PSoC5/CyLib.c ****     *  setting: Valid range [0-7].
1626:.\Generated_Source\PSoC5/CyLib.c ****     *  Refer to the device TRM and datasheet for more information.
ARM GAS  C:\Users\Heiwa\AppData\Local\Temp\ccuYQ69z.s 			page 72


1627:.\Generated_Source\PSoC5/CyLib.c ****     *
1628:.\Generated_Source\PSoC5/CyLib.c ****     * Return:
1629:.\Generated_Source\PSoC5/CyLib.c ****     *  None
1630:.\Generated_Source\PSoC5/CyLib.c ****     *
1631:.\Generated_Source\PSoC5/CyLib.c ****     *******************************************************************************/
1632:.\Generated_Source\PSoC5/CyLib.c ****     void CyXTAL_SetWdVoltage(uint8 setting) 
1633:.\Generated_Source\PSoC5/CyLib.c ****     {
1634:.\Generated_Source\PSoC5/CyLib.c ****         CY_CLK_XMHZ_CFG1_REG = ((CY_CLK_XMHZ_CFG1_REG & ~CY_CLK_XMHZ_CFG1_VREF_WD_MASK) |
1635:.\Generated_Source\PSoC5/CyLib.c ****                                 ((setting << 4) & CY_CLK_XMHZ_CFG1_VREF_WD_MASK));
1636:.\Generated_Source\PSoC5/CyLib.c ****     }
1637:.\Generated_Source\PSoC5/CyLib.c **** 
1638:.\Generated_Source\PSoC5/CyLib.c **** #endif /* (CY_PSOC3 || CY_PSOC5LP) */
1639:.\Generated_Source\PSoC5/CyLib.c **** 
1640:.\Generated_Source\PSoC5/CyLib.c **** 
1641:.\Generated_Source\PSoC5/CyLib.c **** /*******************************************************************************
1642:.\Generated_Source\PSoC5/CyLib.c **** * Function Name: CyHalt
1643:.\Generated_Source\PSoC5/CyLib.c **** ********************************************************************************
1644:.\Generated_Source\PSoC5/CyLib.c **** *
1645:.\Generated_Source\PSoC5/CyLib.c **** * Summary:
1646:.\Generated_Source\PSoC5/CyLib.c **** *  Halts the CPU.
1647:.\Generated_Source\PSoC5/CyLib.c **** *
1648:.\Generated_Source\PSoC5/CyLib.c **** * Parameters:
1649:.\Generated_Source\PSoC5/CyLib.c **** *  uint8 reason: Value to be used during debugging.
1650:.\Generated_Source\PSoC5/CyLib.c **** *
1651:.\Generated_Source\PSoC5/CyLib.c **** * Return:
1652:.\Generated_Source\PSoC5/CyLib.c **** *  None
1653:.\Generated_Source\PSoC5/CyLib.c **** *
1654:.\Generated_Source\PSoC5/CyLib.c **** *******************************************************************************/
1655:.\Generated_Source\PSoC5/CyLib.c **** void CyHalt(uint8 reason) CYREENTRANT
1656:.\Generated_Source\PSoC5/CyLib.c **** {
 2418              		.loc 1 1656 0
 2419              		.cfi_startproc
 2420              		@ args = 0, pretend = 0, frame = 8
 2421              		@ frame_needed = 1, uses_anonymous_args = 0
 2422              		@ link register save eliminated.
 2423 0000 80B4     		push	{r7}
 2424              	.LCFI83:
 2425              		.cfi_def_cfa_offset 4
 2426 0002 83B0     		sub	sp, sp, #12
 2427              	.LCFI84:
 2428              		.cfi_def_cfa_offset 16
 2429 0004 00AF     		add	r7, sp, #0
 2430              		.cfi_offset 7, -4
 2431              	.LCFI85:
 2432              		.cfi_def_cfa_register 7
 2433 0006 0346     		mov	r3, r0
 2434 0008 FB71     		strb	r3, [r7, #7]
1657:.\Generated_Source\PSoC5/CyLib.c ****     reason = reason;
1658:.\Generated_Source\PSoC5/CyLib.c **** 
1659:.\Generated_Source\PSoC5/CyLib.c ****     #if defined (__ARMCC_VERSION)
1660:.\Generated_Source\PSoC5/CyLib.c ****         __breakpoint(0x0);
1661:.\Generated_Source\PSoC5/CyLib.c ****     #elif defined(__GNUC__)
1662:.\Generated_Source\PSoC5/CyLib.c ****         __asm("    bkpt    1");
 2435              		.loc 1 1662 0
 2436              	@ 1662 ".\Generated_Source\PSoC5\CyLib.c" 1
 2437 000a 01BE     		    bkpt    1
 2438              	@ 0 "" 2
ARM GAS  C:\Users\Heiwa\AppData\Local\Temp\ccuYQ69z.s 			page 73


1663:.\Generated_Source\PSoC5/CyLib.c ****     #elif defined(__C51__)
1664:.\Generated_Source\PSoC5/CyLib.c ****         CYDEV_HALT_CPU;
1665:.\Generated_Source\PSoC5/CyLib.c ****     #endif  /* (__ARMCC_VERSION) */
1666:.\Generated_Source\PSoC5/CyLib.c **** }
 2439              		.loc 1 1666 0
 2440              		.thumb
 2441 000c 07F10C07 		add	r7, r7, #12
 2442 0010 BD46     		mov	sp, r7
 2443 0012 80BC     		pop	{r7}
 2444 0014 7047     		bx	lr
 2445              		.cfi_endproc
 2446              	.LFE32:
 2447              		.size	CyHalt, .-CyHalt
 2448 0016 00BF     		.section	.text.CySoftwareReset,"ax",%progbits
 2449              		.align	2
 2450              		.global	CySoftwareReset
 2451              		.thumb
 2452              		.thumb_func
 2453              		.type	CySoftwareReset, %function
 2454              	CySoftwareReset:
 2455              	.LFB33:
1667:.\Generated_Source\PSoC5/CyLib.c **** 
1668:.\Generated_Source\PSoC5/CyLib.c **** 
1669:.\Generated_Source\PSoC5/CyLib.c **** /*******************************************************************************
1670:.\Generated_Source\PSoC5/CyLib.c **** * Function Name: CySoftwareReset
1671:.\Generated_Source\PSoC5/CyLib.c **** ********************************************************************************
1672:.\Generated_Source\PSoC5/CyLib.c **** *
1673:.\Generated_Source\PSoC5/CyLib.c **** * Summary:
1674:.\Generated_Source\PSoC5/CyLib.c **** *  Forces a software reset of the device.
1675:.\Generated_Source\PSoC5/CyLib.c **** *
1676:.\Generated_Source\PSoC5/CyLib.c **** * Parameters:
1677:.\Generated_Source\PSoC5/CyLib.c **** *  None
1678:.\Generated_Source\PSoC5/CyLib.c **** *
1679:.\Generated_Source\PSoC5/CyLib.c **** * Return:
1680:.\Generated_Source\PSoC5/CyLib.c **** *  None
1681:.\Generated_Source\PSoC5/CyLib.c **** *
1682:.\Generated_Source\PSoC5/CyLib.c **** *******************************************************************************/
1683:.\Generated_Source\PSoC5/CyLib.c **** void CySoftwareReset(void) 
1684:.\Generated_Source\PSoC5/CyLib.c **** {
 2456              		.loc 1 1684 0
 2457              		.cfi_startproc
 2458              		@ args = 0, pretend = 0, frame = 0
 2459              		@ frame_needed = 1, uses_anonymous_args = 0
 2460              		@ link register save eliminated.
 2461 0000 80B4     		push	{r7}
 2462              	.LCFI86:
 2463              		.cfi_def_cfa_offset 4
 2464 0002 00AF     		add	r7, sp, #0
 2465              		.cfi_offset 7, -4
 2466              	.LCFI87:
 2467              		.cfi_def_cfa_register 7
1685:.\Generated_Source\PSoC5/CyLib.c ****     /* Perform software reset */
1686:.\Generated_Source\PSoC5/CyLib.c ****     *RESET_CR2 = 0x1;
 2468              		.loc 1 1686 0
 2469 0004 44F2F663 		movw	r3, #:lower16:1073759990
 2470 0008 C4F20003 		movt	r3, #:upper16:1073759990
 2471 000c 4FF00102 		mov	r2, #1
ARM GAS  C:\Users\Heiwa\AppData\Local\Temp\ccuYQ69z.s 			page 74


 2472 0010 1A70     		strb	r2, [r3, #0]
1687:.\Generated_Source\PSoC5/CyLib.c **** }
 2473              		.loc 1 1687 0
 2474 0012 BD46     		mov	sp, r7
 2475 0014 80BC     		pop	{r7}
 2476 0016 7047     		bx	lr
 2477              		.cfi_endproc
 2478              	.LFE33:
 2479              		.size	CySoftwareReset, .-CySoftwareReset
 2480              		.section	.text.CyDelay,"ax",%progbits
 2481              		.align	2
 2482              		.global	CyDelay
 2483              		.thumb
 2484              		.thumb_func
 2485              		.type	CyDelay, %function
 2486              	CyDelay:
 2487              	.LFB34:
1688:.\Generated_Source\PSoC5/CyLib.c **** 
1689:.\Generated_Source\PSoC5/CyLib.c **** 
1690:.\Generated_Source\PSoC5/CyLib.c **** /*******************************************************************************
1691:.\Generated_Source\PSoC5/CyLib.c **** * Function Name: CyDelay
1692:.\Generated_Source\PSoC5/CyLib.c **** ********************************************************************************
1693:.\Generated_Source\PSoC5/CyLib.c **** *
1694:.\Generated_Source\PSoC5/CyLib.c **** * Summary:
1695:.\Generated_Source\PSoC5/CyLib.c **** *  Blocks for milliseconds.
1696:.\Generated_Source\PSoC5/CyLib.c **** *
1697:.\Generated_Source\PSoC5/CyLib.c **** *  Note:
1698:.\Generated_Source\PSoC5/CyLib.c **** *  CyDelay has been implemented with the instruction cache assumed enabled. When
1699:.\Generated_Source\PSoC5/CyLib.c **** *  instruction cache is disabled on PSoC5, CyDelay will be two times larger. For
1700:.\Generated_Source\PSoC5/CyLib.c **** *  example, with instruction cache disabled CyDelay(100) would result in about
1701:.\Generated_Source\PSoC5/CyLib.c **** *  200 ms delay instead of 100 ms.
1702:.\Generated_Source\PSoC5/CyLib.c **** *
1703:.\Generated_Source\PSoC5/CyLib.c **** * Parameters:
1704:.\Generated_Source\PSoC5/CyLib.c **** *  milliseconds: number of milliseconds to delay.
1705:.\Generated_Source\PSoC5/CyLib.c **** *
1706:.\Generated_Source\PSoC5/CyLib.c **** * Return:
1707:.\Generated_Source\PSoC5/CyLib.c **** *   None
1708:.\Generated_Source\PSoC5/CyLib.c **** *
1709:.\Generated_Source\PSoC5/CyLib.c **** *******************************************************************************/
1710:.\Generated_Source\PSoC5/CyLib.c **** void CyDelay(uint32 milliseconds) CYREENTRANT
1711:.\Generated_Source\PSoC5/CyLib.c **** {
 2488              		.loc 1 1711 0
 2489              		.cfi_startproc
 2490              		@ args = 0, pretend = 0, frame = 8
 2491              		@ frame_needed = 1, uses_anonymous_args = 0
 2492 0000 80B5     		push	{r7, lr}
 2493              	.LCFI88:
 2494              		.cfi_def_cfa_offset 8
 2495 0002 82B0     		sub	sp, sp, #8
 2496              	.LCFI89:
 2497              		.cfi_def_cfa_offset 16
 2498 0004 00AF     		add	r7, sp, #0
 2499              		.cfi_offset 14, -4
 2500              		.cfi_offset 7, -8
 2501              	.LCFI90:
 2502              		.cfi_def_cfa_register 7
 2503 0006 7860     		str	r0, [r7, #4]
ARM GAS  C:\Users\Heiwa\AppData\Local\Temp\ccuYQ69z.s 			page 75


1712:.\Generated_Source\PSoC5/CyLib.c ****     while (milliseconds > 32768)
 2504              		.loc 1 1712 0
 2505 0008 0BE0     		b	.L161
 2506              	.L162:
1713:.\Generated_Source\PSoC5/CyLib.c ****     {
1714:.\Generated_Source\PSoC5/CyLib.c ****         /***********************************************************************
1715:.\Generated_Source\PSoC5/CyLib.c ****         * This loop prevents overflow.At 100MHz, milliseconds * delay_freq_khz
1716:.\Generated_Source\PSoC5/CyLib.c ****         * overflows at about 42 seconds.
1717:.\Generated_Source\PSoC5/CyLib.c ****         ***********************************************************************/
1718:.\Generated_Source\PSoC5/CyLib.c ****         CyDelayCycles(cydelay_32k_ms);
 2507              		.loc 1 1718 0
 2508 000a 40F20003 		movw	r3, #:lower16:cydelay_32k_ms
 2509 000e C0F20003 		movt	r3, #:upper16:cydelay_32k_ms
 2510 0012 1B68     		ldr	r3, [r3, #0]
 2511 0014 1846     		mov	r0, r3
 2512 0016 FFF7FEFF 		bl	CyDelayCycles
1719:.\Generated_Source\PSoC5/CyLib.c ****         milliseconds -= 32768;
 2513              		.loc 1 1719 0
 2514 001a 7B68     		ldr	r3, [r7, #4]
 2515 001c A3F50043 		sub	r3, r3, #32768
 2516 0020 7B60     		str	r3, [r7, #4]
 2517              	.L161:
 2518              		.loc 1 1712 0
 2519 0022 7B68     		ldr	r3, [r7, #4]
 2520 0024 B3F5004F 		cmp	r3, #32768
 2521 0028 EFD8     		bhi	.L162
1720:.\Generated_Source\PSoC5/CyLib.c ****     }
1721:.\Generated_Source\PSoC5/CyLib.c **** 
1722:.\Generated_Source\PSoC5/CyLib.c ****     CyDelayCycles(milliseconds * cydelay_freq_khz);
 2522              		.loc 1 1722 0
 2523 002a 40F20003 		movw	r3, #:lower16:cydelay_freq_khz
 2524 002e C0F20003 		movt	r3, #:upper16:cydelay_freq_khz
 2525 0032 1B68     		ldr	r3, [r3, #0]
 2526 0034 7A68     		ldr	r2, [r7, #4]
 2527 0036 02FB03F3 		mul	r3, r2, r3
 2528 003a 1846     		mov	r0, r3
 2529 003c FFF7FEFF 		bl	CyDelayCycles
1723:.\Generated_Source\PSoC5/CyLib.c **** }
 2530              		.loc 1 1723 0
 2531 0040 07F10807 		add	r7, r7, #8
 2532 0044 BD46     		mov	sp, r7
 2533 0046 80BD     		pop	{r7, pc}
 2534              		.cfi_endproc
 2535              	.LFE34:
 2536              		.size	CyDelay, .-CyDelay
 2537              		.section	.text.CyDelayUs,"ax",%progbits
 2538              		.align	2
 2539              		.global	CyDelayUs
 2540              		.thumb
 2541              		.thumb_func
 2542              		.type	CyDelayUs, %function
 2543              	CyDelayUs:
 2544              	.LFB35:
1724:.\Generated_Source\PSoC5/CyLib.c **** 
1725:.\Generated_Source\PSoC5/CyLib.c **** 
1726:.\Generated_Source\PSoC5/CyLib.c **** #if(!CY_PSOC3)
1727:.\Generated_Source\PSoC5/CyLib.c **** 
ARM GAS  C:\Users\Heiwa\AppData\Local\Temp\ccuYQ69z.s 			page 76


1728:.\Generated_Source\PSoC5/CyLib.c ****     /* For PSoC3 devices function is defined in CyBootAsmKeil.a51 file */
1729:.\Generated_Source\PSoC5/CyLib.c **** 
1730:.\Generated_Source\PSoC5/CyLib.c ****     /*******************************************************************************
1731:.\Generated_Source\PSoC5/CyLib.c ****     * Function Name: CyDelayUs
1732:.\Generated_Source\PSoC5/CyLib.c ****     ********************************************************************************
1733:.\Generated_Source\PSoC5/CyLib.c ****     *
1734:.\Generated_Source\PSoC5/CyLib.c ****     * Summary:
1735:.\Generated_Source\PSoC5/CyLib.c ****     *  Blocks for microseconds.
1736:.\Generated_Source\PSoC5/CyLib.c ****     *
1737:.\Generated_Source\PSoC5/CyLib.c ****     *  Note:
1738:.\Generated_Source\PSoC5/CyLib.c ****     *   CyDelay has been implemented with the instruction cache assumed enabled.
1739:.\Generated_Source\PSoC5/CyLib.c ****     *   When instruction cache is disabled on PSoC5, CyDelayUs will be two times
1740:.\Generated_Source\PSoC5/CyLib.c ****     *   larger. Ex: With instruction cache disabled CyDelayUs(100) would result
1741:.\Generated_Source\PSoC5/CyLib.c ****     *   in about 200us delay instead of 100us.
1742:.\Generated_Source\PSoC5/CyLib.c ****     *
1743:.\Generated_Source\PSoC5/CyLib.c ****     * Parameters:
1744:.\Generated_Source\PSoC5/CyLib.c ****     *  uint16 microseconds: number of microseconds to delay.
1745:.\Generated_Source\PSoC5/CyLib.c ****     *
1746:.\Generated_Source\PSoC5/CyLib.c ****     * Return:
1747:.\Generated_Source\PSoC5/CyLib.c ****     *  None
1748:.\Generated_Source\PSoC5/CyLib.c ****     *
1749:.\Generated_Source\PSoC5/CyLib.c ****     * Side Effects:
1750:.\Generated_Source\PSoC5/CyLib.c ****     *  CyDelayUS has been implemented with the instruction cache assumed enabled.
1751:.\Generated_Source\PSoC5/CyLib.c ****     *  When instruction cache is disabled on PSoC 5, CyDelayUs will be two times
1752:.\Generated_Source\PSoC5/CyLib.c ****     *  larger. For example, with instruction cache disabled CyDelayUs(100) would
1753:.\Generated_Source\PSoC5/CyLib.c ****     *  result in about 200 us delay instead of 100 us.
1754:.\Generated_Source\PSoC5/CyLib.c ****     *
1755:.\Generated_Source\PSoC5/CyLib.c ****     *  If the bus clock frequency is a small non-integer number, the actual delay
1756:.\Generated_Source\PSoC5/CyLib.c ****     *  can be up to twice as long as the nominal value. The actual delay cannot be
1757:.\Generated_Source\PSoC5/CyLib.c ****     *  shorter than the nominal one.
1758:.\Generated_Source\PSoC5/CyLib.c ****     *******************************************************************************/
1759:.\Generated_Source\PSoC5/CyLib.c ****     void CyDelayUs(uint16 microseconds) CYREENTRANT
1760:.\Generated_Source\PSoC5/CyLib.c ****     {
 2545              		.loc 1 1760 0
 2546              		.cfi_startproc
 2547              		@ args = 0, pretend = 0, frame = 8
 2548              		@ frame_needed = 1, uses_anonymous_args = 0
 2549 0000 80B5     		push	{r7, lr}
 2550              	.LCFI91:
 2551              		.cfi_def_cfa_offset 8
 2552 0002 82B0     		sub	sp, sp, #8
 2553              	.LCFI92:
 2554              		.cfi_def_cfa_offset 16
 2555 0004 00AF     		add	r7, sp, #0
 2556              		.cfi_offset 14, -4
 2557              		.cfi_offset 7, -8
 2558              	.LCFI93:
 2559              		.cfi_def_cfa_register 7
 2560 0006 0346     		mov	r3, r0
 2561 0008 FB80     		strh	r3, [r7, #6]	@ movhi
1761:.\Generated_Source\PSoC5/CyLib.c ****         CyDelayCycles((uint32)microseconds * cydelay_freq_mhz);
 2562              		.loc 1 1761 0
 2563 000a FA88     		ldrh	r2, [r7, #6]
 2564 000c 40F20003 		movw	r3, #:lower16:cydelay_freq_mhz
 2565 0010 C0F20003 		movt	r3, #:upper16:cydelay_freq_mhz
 2566 0014 1B78     		ldrb	r3, [r3, #0]	@ zero_extendqisi2
 2567 0016 03FB02F3 		mul	r3, r3, r2
ARM GAS  C:\Users\Heiwa\AppData\Local\Temp\ccuYQ69z.s 			page 77


 2568 001a 1846     		mov	r0, r3
 2569 001c FFF7FEFF 		bl	CyDelayCycles
1762:.\Generated_Source\PSoC5/CyLib.c ****     }
 2570              		.loc 1 1762 0
 2571 0020 07F10807 		add	r7, r7, #8
 2572 0024 BD46     		mov	sp, r7
 2573 0026 80BD     		pop	{r7, pc}
 2574              		.cfi_endproc
 2575              	.LFE35:
 2576              		.size	CyDelayUs, .-CyDelayUs
 2577              		.section	.text.CyDelayFreq,"ax",%progbits
 2578              		.align	2
 2579              		.global	CyDelayFreq
 2580              		.thumb
 2581              		.thumb_func
 2582              		.type	CyDelayFreq, %function
 2583              	CyDelayFreq:
 2584              	.LFB36:
1763:.\Generated_Source\PSoC5/CyLib.c **** 
1764:.\Generated_Source\PSoC5/CyLib.c **** #endif  /* (!CY_PSOC3) */
1765:.\Generated_Source\PSoC5/CyLib.c **** 
1766:.\Generated_Source\PSoC5/CyLib.c **** 
1767:.\Generated_Source\PSoC5/CyLib.c **** /*******************************************************************************
1768:.\Generated_Source\PSoC5/CyLib.c **** * Function Name: CyDelayFreq
1769:.\Generated_Source\PSoC5/CyLib.c **** ********************************************************************************
1770:.\Generated_Source\PSoC5/CyLib.c **** *
1771:.\Generated_Source\PSoC5/CyLib.c **** * Summary:
1772:.\Generated_Source\PSoC5/CyLib.c **** *  Sets clock frequency for CyDelay.
1773:.\Generated_Source\PSoC5/CyLib.c **** *
1774:.\Generated_Source\PSoC5/CyLib.c **** * Parameters:
1775:.\Generated_Source\PSoC5/CyLib.c **** *  freq: Frequency of bus clock in Hertz.
1776:.\Generated_Source\PSoC5/CyLib.c **** *
1777:.\Generated_Source\PSoC5/CyLib.c **** * Return:
1778:.\Generated_Source\PSoC5/CyLib.c **** *  None
1779:.\Generated_Source\PSoC5/CyLib.c **** *
1780:.\Generated_Source\PSoC5/CyLib.c **** *******************************************************************************/
1781:.\Generated_Source\PSoC5/CyLib.c **** void CyDelayFreq(uint32 freq) CYREENTRANT
1782:.\Generated_Source\PSoC5/CyLib.c **** {
 2585              		.loc 1 1782 0
 2586              		.cfi_startproc
 2587              		@ args = 0, pretend = 0, frame = 8
 2588              		@ frame_needed = 1, uses_anonymous_args = 0
 2589              		@ link register save eliminated.
 2590 0000 80B4     		push	{r7}
 2591              	.LCFI94:
 2592              		.cfi_def_cfa_offset 4
 2593 0002 83B0     		sub	sp, sp, #12
 2594              	.LCFI95:
 2595              		.cfi_def_cfa_offset 16
 2596 0004 00AF     		add	r7, sp, #0
 2597              		.cfi_offset 7, -4
 2598              	.LCFI96:
 2599              		.cfi_def_cfa_register 7
 2600 0006 7860     		str	r0, [r7, #4]
1783:.\Generated_Source\PSoC5/CyLib.c ****     if (freq != 0u)
 2601              		.loc 1 1783 0
 2602 0008 7B68     		ldr	r3, [r7, #4]
ARM GAS  C:\Users\Heiwa\AppData\Local\Temp\ccuYQ69z.s 			page 78


 2603 000a 002B     		cmp	r3, #0
 2604 000c 06D0     		beq	.L167
1784:.\Generated_Source\PSoC5/CyLib.c ****     {
1785:.\Generated_Source\PSoC5/CyLib.c ****         cydelay_freq_hz = freq;
 2605              		.loc 1 1785 0
 2606 000e 40F20003 		movw	r3, #:lower16:cydelay_freq_hz
 2607 0012 C0F20003 		movt	r3, #:upper16:cydelay_freq_hz
 2608 0016 7A68     		ldr	r2, [r7, #4]
 2609 0018 1A60     		str	r2, [r3, #0]
 2610 001a 08E0     		b	.L168
 2611              	.L167:
1786:.\Generated_Source\PSoC5/CyLib.c ****     }
1787:.\Generated_Source\PSoC5/CyLib.c ****     else
1788:.\Generated_Source\PSoC5/CyLib.c ****     {
1789:.\Generated_Source\PSoC5/CyLib.c ****         cydelay_freq_hz = BCLK__BUS_CLK__HZ;
 2612              		.loc 1 1789 0
 2613 001c 40F20003 		movw	r3, #:lower16:cydelay_freq_hz
 2614 0020 C0F20003 		movt	r3, #:upper16:cydelay_freq_hz
 2615 0024 43F20062 		movw	r2, #:lower16:24000000
 2616 0028 C0F26E12 		movt	r2, #:upper16:24000000
 2617 002c 1A60     		str	r2, [r3, #0]
 2618              	.L168:
1790:.\Generated_Source\PSoC5/CyLib.c ****     }
1791:.\Generated_Source\PSoC5/CyLib.c **** 
1792:.\Generated_Source\PSoC5/CyLib.c ****     cydelay_freq_mhz = (uint8)((cydelay_freq_hz + 999999u) / 1000000u);
 2619              		.loc 1 1792 0
 2620 002e 40F20003 		movw	r3, #:lower16:cydelay_freq_hz
 2621 0032 C0F20003 		movt	r3, #:upper16:cydelay_freq_hz
 2622 0036 1A68     		ldr	r2, [r3, #0]
 2623 0038 44F23F23 		movw	r3, #:lower16:999999
 2624 003c C0F20F03 		movt	r3, #:upper16:999999
 2625 0040 1344     		add	r3, r2, r3
 2626 0042 4DF68362 		movw	r2, #:lower16:1125899907
 2627 0046 C4F21B32 		movt	r2, #:upper16:1125899907
 2628 004a A2FB0313 		umull	r1, r3, r2, r3
 2629 004e 4FEA9343 		lsr	r3, r3, #18
 2630 0052 DAB2     		uxtb	r2, r3
 2631 0054 40F20003 		movw	r3, #:lower16:cydelay_freq_mhz
 2632 0058 C0F20003 		movt	r3, #:upper16:cydelay_freq_mhz
 2633 005c 1A70     		strb	r2, [r3, #0]
1793:.\Generated_Source\PSoC5/CyLib.c ****     cydelay_freq_khz = (cydelay_freq_hz + 999u) / 1000u;
 2634              		.loc 1 1793 0
 2635 005e 40F20003 		movw	r3, #:lower16:cydelay_freq_hz
 2636 0062 C0F20003 		movt	r3, #:upper16:cydelay_freq_hz
 2637 0066 1B68     		ldr	r3, [r3, #0]
 2638 0068 03F57872 		add	r2, r3, #992
 2639 006c 02F10702 		add	r2, r2, #7
 2640 0070 44F6D353 		movw	r3, #:lower16:274877907
 2641 0074 C1F26203 		movt	r3, #:upper16:274877907
 2642 0078 A3FB0213 		umull	r1, r3, r3, r2
 2643 007c 4FEA9312 		lsr	r2, r3, #6
 2644 0080 40F20003 		movw	r3, #:lower16:cydelay_freq_khz
 2645 0084 C0F20003 		movt	r3, #:upper16:cydelay_freq_khz
 2646 0088 1A60     		str	r2, [r3, #0]
1794:.\Generated_Source\PSoC5/CyLib.c ****     cydelay_32k_ms   = 32768 * cydelay_freq_khz;
 2647              		.loc 1 1794 0
 2648 008a 40F20003 		movw	r3, #:lower16:cydelay_freq_khz
ARM GAS  C:\Users\Heiwa\AppData\Local\Temp\ccuYQ69z.s 			page 79


 2649 008e C0F20003 		movt	r3, #:upper16:cydelay_freq_khz
 2650 0092 1B68     		ldr	r3, [r3, #0]
 2651 0094 4FEAC332 		lsl	r2, r3, #15
 2652 0098 40F20003 		movw	r3, #:lower16:cydelay_32k_ms
 2653 009c C0F20003 		movt	r3, #:upper16:cydelay_32k_ms
 2654 00a0 1A60     		str	r2, [r3, #0]
1795:.\Generated_Source\PSoC5/CyLib.c **** }
 2655              		.loc 1 1795 0
 2656 00a2 07F10C07 		add	r7, r7, #12
 2657 00a6 BD46     		mov	sp, r7
 2658 00a8 80BC     		pop	{r7}
 2659 00aa 7047     		bx	lr
 2660              		.cfi_endproc
 2661              	.LFE36:
 2662              		.size	CyDelayFreq, .-CyDelayFreq
 2663              		.section	.text.CyWdtStart,"ax",%progbits
 2664              		.align	2
 2665              		.global	CyWdtStart
 2666              		.thumb
 2667              		.thumb_func
 2668              		.type	CyWdtStart, %function
 2669              	CyWdtStart:
 2670              	.LFB37:
1796:.\Generated_Source\PSoC5/CyLib.c **** 
1797:.\Generated_Source\PSoC5/CyLib.c **** 
1798:.\Generated_Source\PSoC5/CyLib.c **** /*******************************************************************************
1799:.\Generated_Source\PSoC5/CyLib.c **** * Function Name: CyWdtStart
1800:.\Generated_Source\PSoC5/CyLib.c **** ********************************************************************************
1801:.\Generated_Source\PSoC5/CyLib.c **** *
1802:.\Generated_Source\PSoC5/CyLib.c **** * Summary:
1803:.\Generated_Source\PSoC5/CyLib.c **** *  Enables the watchdog timer.
1804:.\Generated_Source\PSoC5/CyLib.c **** *
1805:.\Generated_Source\PSoC5/CyLib.c **** *  The timer is configured for the specified count interval, the central
1806:.\Generated_Source\PSoC5/CyLib.c **** *  timewheel is cleared, the setting for low power mode is configured and the
1807:.\Generated_Source\PSoC5/CyLib.c **** *  watchdog timer is enabled.
1808:.\Generated_Source\PSoC5/CyLib.c **** *
1809:.\Generated_Source\PSoC5/CyLib.c **** *  Once enabled the watchdog cannot be disabled. The watchdog counts each time
1810:.\Generated_Source\PSoC5/CyLib.c **** *  the Central Time Wheel (CTW) reaches the period specified. The watchdog must
1811:.\Generated_Source\PSoC5/CyLib.c **** *  be cleared using the CyWdtClear() function before three ticks of the watchdog
1812:.\Generated_Source\PSoC5/CyLib.c **** *  timer occur. The CTW is free running, so this will occur after between 2 and
1813:.\Generated_Source\PSoC5/CyLib.c **** *  3 timer periods elapse.
1814:.\Generated_Source\PSoC5/CyLib.c **** *
1815:.\Generated_Source\PSoC5/CyLib.c **** *  PSoC5: The watchdog timer should not be used during sleep modes. Since the
1816:.\Generated_Source\PSoC5/CyLib.c **** *  WDT cannot be disabled after it is enabled, the WDT timeout period can be
1817:.\Generated_Source\PSoC5/CyLib.c **** *  set to be greater than the sleep wakeup period, then feed the dog on each
1818:.\Generated_Source\PSoC5/CyLib.c **** *  wakeup from Sleep.
1819:.\Generated_Source\PSoC5/CyLib.c **** *
1820:.\Generated_Source\PSoC5/CyLib.c **** * Parameters:
1821:.\Generated_Source\PSoC5/CyLib.c **** *  ticks: One of the four available timer periods. Once WDT enabled, the
1822:.\Generated_Source\PSoC5/CyLib.c ****    interval cannot be changed.
1823:.\Generated_Source\PSoC5/CyLib.c **** *         CYWDT_2_TICKS     -     4 - 6     ms
1824:.\Generated_Source\PSoC5/CyLib.c **** *         CYWDT_16_TICKS    -    32 - 48    ms
1825:.\Generated_Source\PSoC5/CyLib.c **** *         CYWDT_128_TICKS   -   256 - 384   ms
1826:.\Generated_Source\PSoC5/CyLib.c **** *         CYWDT_1024_TICKS  - 2.048 - 3.072 s
1827:.\Generated_Source\PSoC5/CyLib.c **** *
1828:.\Generated_Source\PSoC5/CyLib.c **** *  lpMode: Low power mode configuration. This parameter is ignored for PSoC 5.
1829:.\Generated_Source\PSoC5/CyLib.c **** *          The WDT always acts as if CYWDT_LPMODE_NOCHANGE is passed.
ARM GAS  C:\Users\Heiwa\AppData\Local\Temp\ccuYQ69z.s 			page 80


1830:.\Generated_Source\PSoC5/CyLib.c **** *
1831:.\Generated_Source\PSoC5/CyLib.c **** *          CYWDT_LPMODE_NOCHANGE - No Change
1832:.\Generated_Source\PSoC5/CyLib.c **** *          CYWDT_LPMODE_MAXINTER - Switch to longest timer mode during low power
1833:.\Generated_Source\PSoC5/CyLib.c **** *                                 mode
1834:.\Generated_Source\PSoC5/CyLib.c **** *          CYWDT_LPMODE_DISABLED - Disable WDT during low power mode
1835:.\Generated_Source\PSoC5/CyLib.c **** *
1836:.\Generated_Source\PSoC5/CyLib.c **** * Return:
1837:.\Generated_Source\PSoC5/CyLib.c **** *  None
1838:.\Generated_Source\PSoC5/CyLib.c **** *
1839:.\Generated_Source\PSoC5/CyLib.c **** * Side Effects:
1840:.\Generated_Source\PSoC5/CyLib.c **** *  PSoC5: The ILO 1 KHz must be enabled for proper WDT operation. Stopping the
1841:.\Generated_Source\PSoC5/CyLib.c **** *  ILO 1 kHz could break the active WDT functionality.
1842:.\Generated_Source\PSoC5/CyLib.c **** *
1843:.\Generated_Source\PSoC5/CyLib.c **** *******************************************************************************/
1844:.\Generated_Source\PSoC5/CyLib.c **** void CyWdtStart(uint8 ticks, uint8 lpMode) 
1845:.\Generated_Source\PSoC5/CyLib.c **** {
 2671              		.loc 1 1845 0
 2672              		.cfi_startproc
 2673              		@ args = 0, pretend = 0, frame = 8
 2674              		@ frame_needed = 1, uses_anonymous_args = 0
 2675 0000 80B5     		push	{r7, lr}
 2676              	.LCFI97:
 2677              		.cfi_def_cfa_offset 8
 2678 0002 82B0     		sub	sp, sp, #8
 2679              	.LCFI98:
 2680              		.cfi_def_cfa_offset 16
 2681 0004 00AF     		add	r7, sp, #0
 2682              		.cfi_offset 14, -4
 2683              		.cfi_offset 7, -8
 2684              	.LCFI99:
 2685              		.cfi_def_cfa_register 7
 2686 0006 0246     		mov	r2, r0
 2687 0008 0B46     		mov	r3, r1
 2688 000a FA71     		strb	r2, [r7, #7]
 2689 000c BB71     		strb	r3, [r7, #6]
1846:.\Generated_Source\PSoC5/CyLib.c ****     #if(CY_PSOC5A)
1847:.\Generated_Source\PSoC5/CyLib.c ****         CyILO_Start1K();
 2690              		.loc 1 1847 0
 2691 000e FFF7FEFF 		bl	CyILO_Start1K
1848:.\Generated_Source\PSoC5/CyLib.c ****     #endif  /* (CY_PSOC5A) */
1849:.\Generated_Source\PSoC5/CyLib.c **** 
1850:.\Generated_Source\PSoC5/CyLib.c ****     /* Set WDT interval */
1851:.\Generated_Source\PSoC5/CyLib.c ****     CY_WDT_CFG_REG = (CY_WDT_CFG_REG & ~CY_WDT_CFG_INTERVAL_MASK) | (ticks & CY_WDT_CFG_INTERVAL_MA
 2692              		.loc 1 1851 0
 2693 0012 44F28333 		movw	r3, #:lower16:1073759107
 2694 0016 C4F20003 		movt	r3, #:upper16:1073759107
 2695 001a 44F28332 		movw	r2, #:lower16:1073759107
 2696 001e C4F20002 		movt	r2, #:upper16:1073759107
 2697 0022 1278     		ldrb	r2, [r2, #0]
 2698 0024 D2B2     		uxtb	r2, r2
 2699 0026 1146     		mov	r1, r2
 2700 0028 01F0FC01 		and	r1, r1, #252
 2701 002c FA79     		ldrb	r2, [r7, #7]	@ zero_extendqisi2
 2702 002e 02F00302 		and	r2, r2, #3
 2703 0032 41EA0202 		orr	r2, r1, r2
 2704 0036 D2B2     		uxtb	r2, r2
 2705 0038 1A70     		strb	r2, [r3, #0]
ARM GAS  C:\Users\Heiwa\AppData\Local\Temp\ccuYQ69z.s 			page 81


1852:.\Generated_Source\PSoC5/CyLib.c **** 
1853:.\Generated_Source\PSoC5/CyLib.c ****     /* Reset CTW to ensure that first watchdog period is full */
1854:.\Generated_Source\PSoC5/CyLib.c ****     CY_WDT_CFG_REG |= CY_WDT_CFG_CTW_RESET;
 2706              		.loc 1 1854 0
 2707 003a 44F28333 		movw	r3, #:lower16:1073759107
 2708 003e C4F20003 		movt	r3, #:upper16:1073759107
 2709 0042 44F28332 		movw	r2, #:lower16:1073759107
 2710 0046 C4F20002 		movt	r2, #:upper16:1073759107
 2711 004a 1278     		ldrb	r2, [r2, #0]
 2712 004c D2B2     		uxtb	r2, r2
 2713 004e 6FEA4262 		mvn	r2, r2, lsl #25
 2714 0052 6FEA5262 		mvn	r2, r2, lsr #25
 2715 0056 D2B2     		uxtb	r2, r2
 2716 0058 1A70     		strb	r2, [r3, #0]
1855:.\Generated_Source\PSoC5/CyLib.c ****     CY_WDT_CFG_REG &= ~CY_WDT_CFG_CTW_RESET;
 2717              		.loc 1 1855 0
 2718 005a 44F28333 		movw	r3, #:lower16:1073759107
 2719 005e C4F20003 		movt	r3, #:upper16:1073759107
 2720 0062 44F28332 		movw	r2, #:lower16:1073759107
 2721 0066 C4F20002 		movt	r2, #:upper16:1073759107
 2722 006a 1278     		ldrb	r2, [r2, #0]
 2723 006c D2B2     		uxtb	r2, r2
 2724 006e 02F07F02 		and	r2, r2, #127
 2725 0072 1A70     		strb	r2, [r3, #0]
1856:.\Generated_Source\PSoC5/CyLib.c **** 
1857:.\Generated_Source\PSoC5/CyLib.c ****     #if(!CY_PSOC5A)
1858:.\Generated_Source\PSoC5/CyLib.c **** 
1859:.\Generated_Source\PSoC5/CyLib.c ****         /* Setting the low power mode */
1860:.\Generated_Source\PSoC5/CyLib.c ****         CY_WDT_CFG_REG = ((lpMode << CY_WDT_CFG_LPMODE_SHIFT) & CY_WDT_CFG_LPMODE_MASK) |
1861:.\Generated_Source\PSoC5/CyLib.c ****                           (CY_WDT_CFG_REG & ~CY_WDT_CFG_LPMODE_MASK);
1862:.\Generated_Source\PSoC5/CyLib.c ****     #else
1863:.\Generated_Source\PSoC5/CyLib.c **** 
1864:.\Generated_Source\PSoC5/CyLib.c ****         /* To avoid warning of lpmode being unreferenced. */
1865:.\Generated_Source\PSoC5/CyLib.c ****         lpMode = lpMode;
1866:.\Generated_Source\PSoC5/CyLib.c **** 
1867:.\Generated_Source\PSoC5/CyLib.c ****     #endif  /* (!CY_PSOC5A) */
1868:.\Generated_Source\PSoC5/CyLib.c **** 
1869:.\Generated_Source\PSoC5/CyLib.c ****     /* Enables the watchdog reset */
1870:.\Generated_Source\PSoC5/CyLib.c ****     CY_WDT_CFG_REG |= CY_WDT_CFG_WDR_EN;
 2726              		.loc 1 1870 0
 2727 0074 44F28333 		movw	r3, #:lower16:1073759107
 2728 0078 C4F20003 		movt	r3, #:upper16:1073759107
 2729 007c 44F28332 		movw	r2, #:lower16:1073759107
 2730 0080 C4F20002 		movt	r2, #:upper16:1073759107
 2731 0084 1278     		ldrb	r2, [r2, #0]
 2732 0086 D2B2     		uxtb	r2, r2
 2733 0088 42F01002 		orr	r2, r2, #16
 2734 008c D2B2     		uxtb	r2, r2
 2735 008e 1A70     		strb	r2, [r3, #0]
1871:.\Generated_Source\PSoC5/CyLib.c **** }
 2736              		.loc 1 1871 0
 2737 0090 07F10807 		add	r7, r7, #8
 2738 0094 BD46     		mov	sp, r7
 2739 0096 80BD     		pop	{r7, pc}
 2740              		.cfi_endproc
 2741              	.LFE37:
 2742              		.size	CyWdtStart, .-CyWdtStart
ARM GAS  C:\Users\Heiwa\AppData\Local\Temp\ccuYQ69z.s 			page 82


 2743              		.section	.text.CyWdtClear,"ax",%progbits
 2744              		.align	2
 2745              		.global	CyWdtClear
 2746              		.thumb
 2747              		.thumb_func
 2748              		.type	CyWdtClear, %function
 2749              	CyWdtClear:
 2750              	.LFB38:
1872:.\Generated_Source\PSoC5/CyLib.c **** 
1873:.\Generated_Source\PSoC5/CyLib.c **** 
1874:.\Generated_Source\PSoC5/CyLib.c **** /*******************************************************************************
1875:.\Generated_Source\PSoC5/CyLib.c **** * Function Name: CyWdtClear
1876:.\Generated_Source\PSoC5/CyLib.c **** ********************************************************************************
1877:.\Generated_Source\PSoC5/CyLib.c **** *
1878:.\Generated_Source\PSoC5/CyLib.c **** * Summary:
1879:.\Generated_Source\PSoC5/CyLib.c **** *  Clears (feeds) the watchdog timer.
1880:.\Generated_Source\PSoC5/CyLib.c **** *
1881:.\Generated_Source\PSoC5/CyLib.c **** * Parameters:
1882:.\Generated_Source\PSoC5/CyLib.c **** *  None
1883:.\Generated_Source\PSoC5/CyLib.c **** *
1884:.\Generated_Source\PSoC5/CyLib.c **** * Return:
1885:.\Generated_Source\PSoC5/CyLib.c **** *  None
1886:.\Generated_Source\PSoC5/CyLib.c **** *
1887:.\Generated_Source\PSoC5/CyLib.c **** *******************************************************************************/
1888:.\Generated_Source\PSoC5/CyLib.c **** void CyWdtClear(void) 
1889:.\Generated_Source\PSoC5/CyLib.c **** {
 2751              		.loc 1 1889 0
 2752              		.cfi_startproc
 2753              		@ args = 0, pretend = 0, frame = 8
 2754              		@ frame_needed = 1, uses_anonymous_args = 0
 2755              		@ link register save eliminated.
 2756 0000 80B4     		push	{r7}
 2757              	.LCFI100:
 2758              		.cfi_def_cfa_offset 4
 2759 0002 83B0     		sub	sp, sp, #12
 2760              	.LCFI101:
 2761              		.cfi_def_cfa_offset 16
 2762 0004 00AF     		add	r7, sp, #0
 2763              		.cfi_offset 7, -4
 2764              	.LCFI102:
 2765              		.cfi_def_cfa_register 7
1890:.\Generated_Source\PSoC5/CyLib.c ****     #if(CY_PSOC5A)
1891:.\Generated_Source\PSoC5/CyLib.c **** 
1892:.\Generated_Source\PSoC5/CyLib.c ****         /* PSoC5 ES1 watchdog time clear requires workaround */
1893:.\Generated_Source\PSoC5/CyLib.c ****         uint8 wdtCfg = CY_WDT_CFG_REG;
 2766              		.loc 1 1893 0
 2767 0006 44F28333 		movw	r3, #:lower16:1073759107
 2768 000a C4F20003 		movt	r3, #:upper16:1073759107
 2769 000e 1B78     		ldrb	r3, [r3, #0]
 2770 0010 FB71     		strb	r3, [r7, #7]
1894:.\Generated_Source\PSoC5/CyLib.c ****         CY_WDT_CR_REG  = CY_WDT_CR_FEED;
 2771              		.loc 1 1894 0
 2772 0012 44F28433 		movw	r3, #:lower16:1073759108
 2773 0016 C4F20003 		movt	r3, #:upper16:1073759108
 2774 001a 4FF00102 		mov	r2, #1
 2775 001e 1A70     		strb	r2, [r3, #0]
1895:.\Generated_Source\PSoC5/CyLib.c ****         CY_WDT_CFG_REG = CY_WDT_CFG_CLEAR_ALL;
ARM GAS  C:\Users\Heiwa\AppData\Local\Temp\ccuYQ69z.s 			page 83


 2776              		.loc 1 1895 0
 2777 0020 44F28333 		movw	r3, #:lower16:1073759107
 2778 0024 C4F20003 		movt	r3, #:upper16:1073759107
 2779 0028 4FF00002 		mov	r2, #0
 2780 002c 1A70     		strb	r2, [r3, #0]
1896:.\Generated_Source\PSoC5/CyLib.c ****         CY_WDT_CFG_REG = wdtCfg;
 2781              		.loc 1 1896 0
 2782 002e 44F28333 		movw	r3, #:lower16:1073759107
 2783 0032 C4F20003 		movt	r3, #:upper16:1073759107
 2784 0036 FA79     		ldrb	r2, [r7, #7]
 2785 0038 1A70     		strb	r2, [r3, #0]
1897:.\Generated_Source\PSoC5/CyLib.c **** 
1898:.\Generated_Source\PSoC5/CyLib.c ****     #else
1899:.\Generated_Source\PSoC5/CyLib.c **** 
1900:.\Generated_Source\PSoC5/CyLib.c ****         CY_WDT_CR_REG = CY_WDT_CR_FEED;
1901:.\Generated_Source\PSoC5/CyLib.c **** 
1902:.\Generated_Source\PSoC5/CyLib.c ****     #endif  /* (CY_PSOC5A) */
1903:.\Generated_Source\PSoC5/CyLib.c **** }
 2786              		.loc 1 1903 0
 2787 003a 07F10C07 		add	r7, r7, #12
 2788 003e BD46     		mov	sp, r7
 2789 0040 80BC     		pop	{r7}
 2790 0042 7047     		bx	lr
 2791              		.cfi_endproc
 2792              	.LFE38:
 2793              		.size	CyWdtClear, .-CyWdtClear
 2794              		.section	.text.CyVdLvDigitEnable,"ax",%progbits
 2795              		.align	2
 2796              		.global	CyVdLvDigitEnable
 2797              		.thumb
 2798              		.thumb_func
 2799              		.type	CyVdLvDigitEnable, %function
 2800              	CyVdLvDigitEnable:
 2801              	.LFB39:
1904:.\Generated_Source\PSoC5/CyLib.c **** 
1905:.\Generated_Source\PSoC5/CyLib.c **** 
1906:.\Generated_Source\PSoC5/CyLib.c **** 
1907:.\Generated_Source\PSoC5/CyLib.c **** /*******************************************************************************
1908:.\Generated_Source\PSoC5/CyLib.c **** * Function Name: CyVdLvDigitEnable
1909:.\Generated_Source\PSoC5/CyLib.c **** ********************************************************************************
1910:.\Generated_Source\PSoC5/CyLib.c **** *
1911:.\Generated_Source\PSoC5/CyLib.c **** * Summary:
1912:.\Generated_Source\PSoC5/CyLib.c **** *  Enables the digital low voltage monitors to generate interrupt on Vddd
1913:.\Generated_Source\PSoC5/CyLib.c **** *   archives specified threshold and optionally resets device.
1914:.\Generated_Source\PSoC5/CyLib.c **** *
1915:.\Generated_Source\PSoC5/CyLib.c **** * Parameters:
1916:.\Generated_Source\PSoC5/CyLib.c **** *  reset: Option to reset device at a specified Vddd threshold:
1917:.\Generated_Source\PSoC5/CyLib.c **** *           0 - Device is not reset.
1918:.\Generated_Source\PSoC5/CyLib.c **** *           1 - Device is reset.
1919:.\Generated_Source\PSoC5/CyLib.c **** *         This option is applicable for PSoC 3/PSoC 5LP devices only.
1920:.\Generated_Source\PSoC5/CyLib.c **** *
1921:.\Generated_Source\PSoC5/CyLib.c **** *  threshold: Sets the trip level for the voltage monitor.
1922:.\Generated_Source\PSoC5/CyLib.c **** *  Values from 1.70 V to 5.45 V(for PSoC 3/PSoC 5LP) and from 2.45 V to 5.45 V
1923:.\Generated_Source\PSoC5/CyLib.c **** *  (for PSoC 5TM) are accepted with the approximately 250 mV interval.
1924:.\Generated_Source\PSoC5/CyLib.c **** *
1925:.\Generated_Source\PSoC5/CyLib.c **** * Return:
1926:.\Generated_Source\PSoC5/CyLib.c **** *  None
ARM GAS  C:\Users\Heiwa\AppData\Local\Temp\ccuYQ69z.s 			page 84


1927:.\Generated_Source\PSoC5/CyLib.c **** *
1928:.\Generated_Source\PSoC5/CyLib.c **** *******************************************************************************/
1929:.\Generated_Source\PSoC5/CyLib.c **** void CyVdLvDigitEnable(uint8 reset, uint8 threshold) 
1930:.\Generated_Source\PSoC5/CyLib.c **** {
 2802              		.loc 1 1930 0
 2803              		.cfi_startproc
 2804              		@ args = 0, pretend = 0, frame = 8
 2805              		@ frame_needed = 1, uses_anonymous_args = 0
 2806 0000 80B5     		push	{r7, lr}
 2807              	.LCFI103:
 2808              		.cfi_def_cfa_offset 8
 2809 0002 82B0     		sub	sp, sp, #8
 2810              	.LCFI104:
 2811              		.cfi_def_cfa_offset 16
 2812 0004 00AF     		add	r7, sp, #0
 2813              		.cfi_offset 14, -4
 2814              		.cfi_offset 7, -8
 2815              	.LCFI105:
 2816              		.cfi_def_cfa_register 7
 2817 0006 0246     		mov	r2, r0
 2818 0008 0B46     		mov	r3, r1
 2819 000a FA71     		strb	r2, [r7, #7]
 2820 000c BB71     		strb	r3, [r7, #6]
1931:.\Generated_Source\PSoC5/CyLib.c ****     *CYINT_CLEAR |= 0x01u;
 2821              		.loc 1 1931 0
 2822 000e 4EF28013 		movw	r3, #:lower16:-536813184
 2823 0012 CEF20003 		movt	r3, #:upper16:-536813184
 2824 0016 4EF28012 		movw	r2, #:lower16:-536813184
 2825 001a CEF20002 		movt	r2, #:upper16:-536813184
 2826 001e 1268     		ldr	r2, [r2, #0]
 2827 0020 42F00102 		orr	r2, r2, #1
 2828 0024 1A60     		str	r2, [r3, #0]
1932:.\Generated_Source\PSoC5/CyLib.c **** 
1933:.\Generated_Source\PSoC5/CyLib.c ****     #if(CY_PSOC3 || CY_PSOC5LP)
1934:.\Generated_Source\PSoC5/CyLib.c ****         CY_VD_PRES_CONTROL_REG &= (~CY_VD_PRESD_EN);
1935:.\Generated_Source\PSoC5/CyLib.c ****     #endif /*(CY_PSOC3 || CY_PSOC5LP)*/
1936:.\Generated_Source\PSoC5/CyLib.c **** 
1937:.\Generated_Source\PSoC5/CyLib.c ****     CY_VD_LVI_TRIP_REG = (threshold & CY_VD_LVI_TRIP_LVID_MASK) | (CY_VD_LVI_TRIP_REG & ~CY_VD_LVI_
 2829              		.loc 1 1937 0
 2830 0026 44F2F463 		movw	r3, #:lower16:1073759988
 2831 002a C4F20003 		movt	r3, #:upper16:1073759988
 2832 002e B979     		ldrb	r1, [r7, #6]	@ zero_extendqisi2
 2833 0030 01F00F01 		and	r1, r1, #15
 2834 0034 44F2F462 		movw	r2, #:lower16:1073759988
 2835 0038 C4F20002 		movt	r2, #:upper16:1073759988
 2836 003c 1278     		ldrb	r2, [r2, #0]
 2837 003e D2B2     		uxtb	r2, r2
 2838 0040 02F0F002 		and	r2, r2, #240
 2839 0044 41EA0202 		orr	r2, r1, r2
 2840 0048 D2B2     		uxtb	r2, r2
 2841 004a 1A70     		strb	r2, [r3, #0]
1938:.\Generated_Source\PSoC5/CyLib.c ****     CY_VD_LVI_HVI_CONTROL_REG |= CY_VD_LVID_EN;
 2842              		.loc 1 1938 0
 2843 004c 44F2F563 		movw	r3, #:lower16:1073759989
 2844 0050 C4F20003 		movt	r3, #:upper16:1073759989
 2845 0054 44F2F562 		movw	r2, #:lower16:1073759989
 2846 0058 C4F20002 		movt	r2, #:upper16:1073759989
ARM GAS  C:\Users\Heiwa\AppData\Local\Temp\ccuYQ69z.s 			page 85


 2847 005c 1278     		ldrb	r2, [r2, #0]
 2848 005e D2B2     		uxtb	r2, r2
 2849 0060 42F00102 		orr	r2, r2, #1
 2850 0064 D2B2     		uxtb	r2, r2
 2851 0066 1A70     		strb	r2, [r3, #0]
1939:.\Generated_Source\PSoC5/CyLib.c **** 
1940:.\Generated_Source\PSoC5/CyLib.c ****     /* Timeout to eliminate glitches on the LVI/HVI when enabling */
1941:.\Generated_Source\PSoC5/CyLib.c ****     CyDelayUs(1u);
 2852              		.loc 1 1941 0
 2853 0068 4FF00100 		mov	r0, #1
 2854 006c FFF7FEFF 		bl	CyDelayUs
1942:.\Generated_Source\PSoC5/CyLib.c **** 	
1943:.\Generated_Source\PSoC5/CyLib.c **** 	(void)CY_VD_PERSISTENT_STATUS_REG;
 2855              		.loc 1 1943 0
 2856 0070 44F2F863 		movw	r3, #:lower16:1073759992
 2857 0074 C4F20003 		movt	r3, #:upper16:1073759992
 2858 0078 1B78     		ldrb	r3, [r3, #0]
1944:.\Generated_Source\PSoC5/CyLib.c **** 
1945:.\Generated_Source\PSoC5/CyLib.c ****     #if(CY_PSOC3 || CY_PSOC5LP)
1946:.\Generated_Source\PSoC5/CyLib.c ****         if(0u != reset)
1947:.\Generated_Source\PSoC5/CyLib.c ****         {
1948:.\Generated_Source\PSoC5/CyLib.c ****             CY_VD_PRES_CONTROL_REG |= CY_VD_PRESD_EN;
1949:.\Generated_Source\PSoC5/CyLib.c ****         }
1950:.\Generated_Source\PSoC5/CyLib.c ****         else
1951:.\Generated_Source\PSoC5/CyLib.c ****         {
1952:.\Generated_Source\PSoC5/CyLib.c ****             CY_VD_PRES_CONTROL_REG &= (~CY_VD_PRESD_EN);
1953:.\Generated_Source\PSoC5/CyLib.c ****         }
1954:.\Generated_Source\PSoC5/CyLib.c ****     #else
1955:.\Generated_Source\PSoC5/CyLib.c ****         reset = reset;
1956:.\Generated_Source\PSoC5/CyLib.c ****     #endif /*(CY_PSOC3 || CY_PSOC5LP)*/
1957:.\Generated_Source\PSoC5/CyLib.c **** 
1958:.\Generated_Source\PSoC5/CyLib.c ****     *CYINT_CLR_PEND |= 0x01u;
 2859              		.loc 1 1958 0
 2860 007a 4EF28023 		movw	r3, #:lower16:-536812928
 2861 007e CEF20003 		movt	r3, #:upper16:-536812928
 2862 0082 4EF28022 		movw	r2, #:lower16:-536812928
 2863 0086 CEF20002 		movt	r2, #:upper16:-536812928
 2864 008a 1268     		ldr	r2, [r2, #0]
 2865 008c 42F00102 		orr	r2, r2, #1
 2866 0090 1A60     		str	r2, [r3, #0]
1959:.\Generated_Source\PSoC5/CyLib.c ****     *CYINT_ENABLE   |= 0x01u;
 2867              		.loc 1 1959 0
 2868 0092 4EF20013 		movw	r3, #:lower16:-536813312
 2869 0096 CEF20003 		movt	r3, #:upper16:-536813312
 2870 009a 4EF20012 		movw	r2, #:lower16:-536813312
 2871 009e CEF20002 		movt	r2, #:upper16:-536813312
 2872 00a2 1268     		ldr	r2, [r2, #0]
 2873 00a4 42F00102 		orr	r2, r2, #1
 2874 00a8 1A60     		str	r2, [r3, #0]
1960:.\Generated_Source\PSoC5/CyLib.c **** }
 2875              		.loc 1 1960 0
 2876 00aa 07F10807 		add	r7, r7, #8
 2877 00ae BD46     		mov	sp, r7
 2878 00b0 80BD     		pop	{r7, pc}
 2879              		.cfi_endproc
 2880              	.LFE39:
 2881              		.size	CyVdLvDigitEnable, .-CyVdLvDigitEnable
ARM GAS  C:\Users\Heiwa\AppData\Local\Temp\ccuYQ69z.s 			page 86


 2882 00b2 00BF     		.section	.text.CyVdLvAnalogEnable,"ax",%progbits
 2883              		.align	2
 2884              		.global	CyVdLvAnalogEnable
 2885              		.thumb
 2886              		.thumb_func
 2887              		.type	CyVdLvAnalogEnable, %function
 2888              	CyVdLvAnalogEnable:
 2889              	.LFB40:
1961:.\Generated_Source\PSoC5/CyLib.c **** 
1962:.\Generated_Source\PSoC5/CyLib.c **** 
1963:.\Generated_Source\PSoC5/CyLib.c **** /*******************************************************************************
1964:.\Generated_Source\PSoC5/CyLib.c **** * Function Name: CyVdLvAnalogEnable
1965:.\Generated_Source\PSoC5/CyLib.c **** ********************************************************************************
1966:.\Generated_Source\PSoC5/CyLib.c **** *
1967:.\Generated_Source\PSoC5/CyLib.c **** * Summary:
1968:.\Generated_Source\PSoC5/CyLib.c **** *  Enables the analog low voltage monitors to generate interrupt on Vdda
1969:.\Generated_Source\PSoC5/CyLib.c **** *   archives specified threshold and optionally resets device.
1970:.\Generated_Source\PSoC5/CyLib.c **** *
1971:.\Generated_Source\PSoC5/CyLib.c **** * Parameters:
1972:.\Generated_Source\PSoC5/CyLib.c **** *  reset: Option to reset device at a specified Vdda threshold:
1973:.\Generated_Source\PSoC5/CyLib.c **** *           0 - Device is not reset.
1974:.\Generated_Source\PSoC5/CyLib.c **** *           1 - Device is reset.
1975:.\Generated_Source\PSoC5/CyLib.c **** *         This option is applicable for PSoC 3/PSoC 5LP devices only.
1976:.\Generated_Source\PSoC5/CyLib.c **** *
1977:.\Generated_Source\PSoC5/CyLib.c **** *  threshold: Sets the trip level for the voltage monitor.
1978:.\Generated_Source\PSoC5/CyLib.c **** *  Values from 1.70 V to 5.45 V(for PSoC 3/PSoC 5LP) and from 2.45 V to 5.45 V
1979:.\Generated_Source\PSoC5/CyLib.c **** *  (for PSoC 5TM) are accepted with the approximately 250 mV interval.
1980:.\Generated_Source\PSoC5/CyLib.c **** *
1981:.\Generated_Source\PSoC5/CyLib.c **** * Return:
1982:.\Generated_Source\PSoC5/CyLib.c **** *  None
1983:.\Generated_Source\PSoC5/CyLib.c **** *
1984:.\Generated_Source\PSoC5/CyLib.c **** *******************************************************************************/
1985:.\Generated_Source\PSoC5/CyLib.c **** void CyVdLvAnalogEnable(uint8 reset, uint8 threshold) 
1986:.\Generated_Source\PSoC5/CyLib.c **** {
 2890              		.loc 1 1986 0
 2891              		.cfi_startproc
 2892              		@ args = 0, pretend = 0, frame = 8
 2893              		@ frame_needed = 1, uses_anonymous_args = 0
 2894 0000 80B5     		push	{r7, lr}
 2895              	.LCFI106:
 2896              		.cfi_def_cfa_offset 8
 2897 0002 82B0     		sub	sp, sp, #8
 2898              	.LCFI107:
 2899              		.cfi_def_cfa_offset 16
 2900 0004 00AF     		add	r7, sp, #0
 2901              		.cfi_offset 14, -4
 2902              		.cfi_offset 7, -8
 2903              	.LCFI108:
 2904              		.cfi_def_cfa_register 7
 2905 0006 0246     		mov	r2, r0
 2906 0008 0B46     		mov	r3, r1
 2907 000a FA71     		strb	r2, [r7, #7]
 2908 000c BB71     		strb	r3, [r7, #6]
1987:.\Generated_Source\PSoC5/CyLib.c ****     *CYINT_CLEAR |= 0x01u;
 2909              		.loc 1 1987 0
 2910 000e 4EF28013 		movw	r3, #:lower16:-536813184
 2911 0012 CEF20003 		movt	r3, #:upper16:-536813184
ARM GAS  C:\Users\Heiwa\AppData\Local\Temp\ccuYQ69z.s 			page 87


 2912 0016 4EF28012 		movw	r2, #:lower16:-536813184
 2913 001a CEF20002 		movt	r2, #:upper16:-536813184
 2914 001e 1268     		ldr	r2, [r2, #0]
 2915 0020 42F00102 		orr	r2, r2, #1
 2916 0024 1A60     		str	r2, [r3, #0]
1988:.\Generated_Source\PSoC5/CyLib.c **** 
1989:.\Generated_Source\PSoC5/CyLib.c ****     #if(CY_PSOC3 || CY_PSOC5LP)
1990:.\Generated_Source\PSoC5/CyLib.c ****         CY_VD_PRES_CONTROL_REG &= (~CY_VD_PRESA_EN);
1991:.\Generated_Source\PSoC5/CyLib.c ****     #endif /*(CY_PSOC3 || CY_PSOC5LP)*/
1992:.\Generated_Source\PSoC5/CyLib.c **** 
1993:.\Generated_Source\PSoC5/CyLib.c ****     CY_VD_LVI_TRIP_REG = (threshold << 4) | (CY_VD_LVI_TRIP_REG & 0x0F);
 2917              		.loc 1 1993 0
 2918 0026 44F2F463 		movw	r3, #:lower16:1073759988
 2919 002a C4F20003 		movt	r3, #:upper16:1073759988
 2920 002e BA79     		ldrb	r2, [r7, #6]	@ zero_extendqisi2
 2921 0030 4FEA0212 		lsl	r2, r2, #4
 2922 0034 D1B2     		uxtb	r1, r2
 2923 0036 44F2F462 		movw	r2, #:lower16:1073759988
 2924 003a C4F20002 		movt	r2, #:upper16:1073759988
 2925 003e 1278     		ldrb	r2, [r2, #0]
 2926 0040 D2B2     		uxtb	r2, r2
 2927 0042 D2B2     		uxtb	r2, r2
 2928 0044 02F00F02 		and	r2, r2, #15
 2929 0048 41EA0202 		orr	r2, r1, r2
 2930 004c D2B2     		uxtb	r2, r2
 2931 004e D2B2     		uxtb	r2, r2
 2932 0050 1A70     		strb	r2, [r3, #0]
1994:.\Generated_Source\PSoC5/CyLib.c ****     CY_VD_LVI_HVI_CONTROL_REG |= CY_VD_LVIA_EN;
 2933              		.loc 1 1994 0
 2934 0052 44F2F563 		movw	r3, #:lower16:1073759989
 2935 0056 C4F20003 		movt	r3, #:upper16:1073759989
 2936 005a 44F2F562 		movw	r2, #:lower16:1073759989
 2937 005e C4F20002 		movt	r2, #:upper16:1073759989
 2938 0062 1278     		ldrb	r2, [r2, #0]
 2939 0064 D2B2     		uxtb	r2, r2
 2940 0066 42F00202 		orr	r2, r2, #2
 2941 006a D2B2     		uxtb	r2, r2
 2942 006c 1A70     		strb	r2, [r3, #0]
1995:.\Generated_Source\PSoC5/CyLib.c **** 
1996:.\Generated_Source\PSoC5/CyLib.c ****     /* Timeout to eliminate glitches on the LVI/HVI when enabling */
1997:.\Generated_Source\PSoC5/CyLib.c ****     CyDelayUs(1u);
 2943              		.loc 1 1997 0
 2944 006e 4FF00100 		mov	r0, #1
 2945 0072 FFF7FEFF 		bl	CyDelayUs
1998:.\Generated_Source\PSoC5/CyLib.c **** 	
1999:.\Generated_Source\PSoC5/CyLib.c **** 	(void)CY_VD_PERSISTENT_STATUS_REG;
 2946              		.loc 1 1999 0
 2947 0076 44F2F863 		movw	r3, #:lower16:1073759992
 2948 007a C4F20003 		movt	r3, #:upper16:1073759992
 2949 007e 1B78     		ldrb	r3, [r3, #0]
2000:.\Generated_Source\PSoC5/CyLib.c **** 
2001:.\Generated_Source\PSoC5/CyLib.c ****     #if(CY_PSOC3 || CY_PSOC5LP)
2002:.\Generated_Source\PSoC5/CyLib.c ****         if(0u != reset)
2003:.\Generated_Source\PSoC5/CyLib.c ****         {
2004:.\Generated_Source\PSoC5/CyLib.c ****             CY_VD_PRES_CONTROL_REG |= CY_VD_PRESA_EN;
2005:.\Generated_Source\PSoC5/CyLib.c ****         }
2006:.\Generated_Source\PSoC5/CyLib.c ****         else
ARM GAS  C:\Users\Heiwa\AppData\Local\Temp\ccuYQ69z.s 			page 88


2007:.\Generated_Source\PSoC5/CyLib.c ****         {
2008:.\Generated_Source\PSoC5/CyLib.c ****             CY_VD_PRES_CONTROL_REG &= (~CY_VD_PRESA_EN);
2009:.\Generated_Source\PSoC5/CyLib.c ****         }
2010:.\Generated_Source\PSoC5/CyLib.c ****     #else
2011:.\Generated_Source\PSoC5/CyLib.c ****         reset = reset;
2012:.\Generated_Source\PSoC5/CyLib.c ****     #endif /*(CY_PSOC3 || CY_PSOC5LP)*/
2013:.\Generated_Source\PSoC5/CyLib.c **** 
2014:.\Generated_Source\PSoC5/CyLib.c ****     *CYINT_CLR_PEND |= 0x01u;
 2950              		.loc 1 2014 0
 2951 0080 4EF28023 		movw	r3, #:lower16:-536812928
 2952 0084 CEF20003 		movt	r3, #:upper16:-536812928
 2953 0088 4EF28022 		movw	r2, #:lower16:-536812928
 2954 008c CEF20002 		movt	r2, #:upper16:-536812928
 2955 0090 1268     		ldr	r2, [r2, #0]
 2956 0092 42F00102 		orr	r2, r2, #1
 2957 0096 1A60     		str	r2, [r3, #0]
2015:.\Generated_Source\PSoC5/CyLib.c ****     *CYINT_ENABLE   |= 0x01u;
 2958              		.loc 1 2015 0
 2959 0098 4EF20013 		movw	r3, #:lower16:-536813312
 2960 009c CEF20003 		movt	r3, #:upper16:-536813312
 2961 00a0 4EF20012 		movw	r2, #:lower16:-536813312
 2962 00a4 CEF20002 		movt	r2, #:upper16:-536813312
 2963 00a8 1268     		ldr	r2, [r2, #0]
 2964 00aa 42F00102 		orr	r2, r2, #1
 2965 00ae 1A60     		str	r2, [r3, #0]
2016:.\Generated_Source\PSoC5/CyLib.c **** }
 2966              		.loc 1 2016 0
 2967 00b0 07F10807 		add	r7, r7, #8
 2968 00b4 BD46     		mov	sp, r7
 2969 00b6 80BD     		pop	{r7, pc}
 2970              		.cfi_endproc
 2971              	.LFE40:
 2972              		.size	CyVdLvAnalogEnable, .-CyVdLvAnalogEnable
 2973              		.section	.text.CyVdLvDigitDisable,"ax",%progbits
 2974              		.align	2
 2975              		.global	CyVdLvDigitDisable
 2976              		.thumb
 2977              		.thumb_func
 2978              		.type	CyVdLvDigitDisable, %function
 2979              	CyVdLvDigitDisable:
 2980              	.LFB41:
2017:.\Generated_Source\PSoC5/CyLib.c **** 
2018:.\Generated_Source\PSoC5/CyLib.c **** 
2019:.\Generated_Source\PSoC5/CyLib.c **** /*******************************************************************************
2020:.\Generated_Source\PSoC5/CyLib.c **** * Function Name: CyVdLvDigitDisable
2021:.\Generated_Source\PSoC5/CyLib.c **** ********************************************************************************
2022:.\Generated_Source\PSoC5/CyLib.c **** *
2023:.\Generated_Source\PSoC5/CyLib.c **** * Summary:
2024:.\Generated_Source\PSoC5/CyLib.c **** *  Disables the digital low voltage monitor (interrupt and device reset are
2025:.\Generated_Source\PSoC5/CyLib.c **** *  disabled).
2026:.\Generated_Source\PSoC5/CyLib.c **** *
2027:.\Generated_Source\PSoC5/CyLib.c **** * Parameters:
2028:.\Generated_Source\PSoC5/CyLib.c **** *  None
2029:.\Generated_Source\PSoC5/CyLib.c **** *
2030:.\Generated_Source\PSoC5/CyLib.c **** * Return:
2031:.\Generated_Source\PSoC5/CyLib.c **** *  None
2032:.\Generated_Source\PSoC5/CyLib.c **** *
ARM GAS  C:\Users\Heiwa\AppData\Local\Temp\ccuYQ69z.s 			page 89


2033:.\Generated_Source\PSoC5/CyLib.c **** *******************************************************************************/
2034:.\Generated_Source\PSoC5/CyLib.c **** void CyVdLvDigitDisable(void) 
2035:.\Generated_Source\PSoC5/CyLib.c **** {
 2981              		.loc 1 2035 0
 2982              		.cfi_startproc
 2983              		@ args = 0, pretend = 0, frame = 0
 2984              		@ frame_needed = 1, uses_anonymous_args = 0
 2985              		@ link register save eliminated.
 2986 0000 80B4     		push	{r7}
 2987              	.LCFI109:
 2988              		.cfi_def_cfa_offset 4
 2989 0002 00AF     		add	r7, sp, #0
 2990              		.cfi_offset 7, -4
 2991              	.LCFI110:
 2992              		.cfi_def_cfa_register 7
2036:.\Generated_Source\PSoC5/CyLib.c ****     CY_VD_LVI_HVI_CONTROL_REG &= (~CY_VD_LVID_EN);
 2993              		.loc 1 2036 0
 2994 0004 44F2F563 		movw	r3, #:lower16:1073759989
 2995 0008 C4F20003 		movt	r3, #:upper16:1073759989
 2996 000c 44F2F562 		movw	r2, #:lower16:1073759989
 2997 0010 C4F20002 		movt	r2, #:upper16:1073759989
 2998 0014 1278     		ldrb	r2, [r2, #0]
 2999 0016 D2B2     		uxtb	r2, r2
 3000 0018 02F0FE02 		and	r2, r2, #254
 3001 001c 1A70     		strb	r2, [r3, #0]
 3002              	.L179:
2037:.\Generated_Source\PSoC5/CyLib.c **** 
2038:.\Generated_Source\PSoC5/CyLib.c ****     #if(CY_PSOC3 || CY_PSOC5LP)
2039:.\Generated_Source\PSoC5/CyLib.c ****         CY_VD_PRES_CONTROL_REG &= (~CY_VD_PRESD_EN);
2040:.\Generated_Source\PSoC5/CyLib.c ****     #endif /*(CY_PSOC3 || CY_PSOC5LP)*/
2041:.\Generated_Source\PSoC5/CyLib.c **** 
2042:.\Generated_Source\PSoC5/CyLib.c ****     while(CY_VD_PERSISTENT_STATUS_REG & 0x07u);
 3003              		.loc 1 2042 0
 3004 001e 44F2F863 		movw	r3, #:lower16:1073759992
 3005 0022 C4F20003 		movt	r3, #:upper16:1073759992
 3006 0026 1B78     		ldrb	r3, [r3, #0]
 3007 0028 DBB2     		uxtb	r3, r3
 3008 002a 03F00703 		and	r3, r3, #7
 3009 002e 002B     		cmp	r3, #0
 3010 0030 F5D1     		bne	.L179
2043:.\Generated_Source\PSoC5/CyLib.c **** 
2044:.\Generated_Source\PSoC5/CyLib.c **** }
 3011              		.loc 1 2044 0
 3012 0032 BD46     		mov	sp, r7
 3013 0034 80BC     		pop	{r7}
 3014 0036 7047     		bx	lr
 3015              		.cfi_endproc
 3016              	.LFE41:
 3017              		.size	CyVdLvDigitDisable, .-CyVdLvDigitDisable
 3018              		.section	.text.CyVdLvAnalogDisable,"ax",%progbits
 3019              		.align	2
 3020              		.global	CyVdLvAnalogDisable
 3021              		.thumb
 3022              		.thumb_func
 3023              		.type	CyVdLvAnalogDisable, %function
 3024              	CyVdLvAnalogDisable:
 3025              	.LFB42:
ARM GAS  C:\Users\Heiwa\AppData\Local\Temp\ccuYQ69z.s 			page 90


2045:.\Generated_Source\PSoC5/CyLib.c **** 
2046:.\Generated_Source\PSoC5/CyLib.c **** 
2047:.\Generated_Source\PSoC5/CyLib.c **** /*******************************************************************************
2048:.\Generated_Source\PSoC5/CyLib.c **** * Function Name: CyVdLvAnalogDisable
2049:.\Generated_Source\PSoC5/CyLib.c **** ********************************************************************************
2050:.\Generated_Source\PSoC5/CyLib.c **** *
2051:.\Generated_Source\PSoC5/CyLib.c **** * Summary:
2052:.\Generated_Source\PSoC5/CyLib.c **** *  Disables the analog low voltage monitor
2053:.\Generated_Source\PSoC5/CyLib.c **** *  (interrupt and device reset are disabled).
2054:.\Generated_Source\PSoC5/CyLib.c **** *
2055:.\Generated_Source\PSoC5/CyLib.c **** * Parameters:
2056:.\Generated_Source\PSoC5/CyLib.c **** *  None
2057:.\Generated_Source\PSoC5/CyLib.c **** *
2058:.\Generated_Source\PSoC5/CyLib.c **** * Return:
2059:.\Generated_Source\PSoC5/CyLib.c **** *  None
2060:.\Generated_Source\PSoC5/CyLib.c **** *
2061:.\Generated_Source\PSoC5/CyLib.c **** *******************************************************************************/
2062:.\Generated_Source\PSoC5/CyLib.c **** void CyVdLvAnalogDisable(void) 
2063:.\Generated_Source\PSoC5/CyLib.c **** {
 3026              		.loc 1 2063 0
 3027              		.cfi_startproc
 3028              		@ args = 0, pretend = 0, frame = 0
 3029              		@ frame_needed = 1, uses_anonymous_args = 0
 3030              		@ link register save eliminated.
 3031 0000 80B4     		push	{r7}
 3032              	.LCFI111:
 3033              		.cfi_def_cfa_offset 4
 3034 0002 00AF     		add	r7, sp, #0
 3035              		.cfi_offset 7, -4
 3036              	.LCFI112:
 3037              		.cfi_def_cfa_register 7
2064:.\Generated_Source\PSoC5/CyLib.c ****     CY_VD_LVI_HVI_CONTROL_REG &= (~CY_VD_LVIA_EN);
 3038              		.loc 1 2064 0
 3039 0004 44F2F563 		movw	r3, #:lower16:1073759989
 3040 0008 C4F20003 		movt	r3, #:upper16:1073759989
 3041 000c 44F2F562 		movw	r2, #:lower16:1073759989
 3042 0010 C4F20002 		movt	r2, #:upper16:1073759989
 3043 0014 1278     		ldrb	r2, [r2, #0]
 3044 0016 D2B2     		uxtb	r2, r2
 3045 0018 02F0FD02 		and	r2, r2, #253
 3046 001c 1A70     		strb	r2, [r3, #0]
 3047              	.L182:
2065:.\Generated_Source\PSoC5/CyLib.c **** 
2066:.\Generated_Source\PSoC5/CyLib.c ****     #if(CY_PSOC3 || CY_PSOC5LP)
2067:.\Generated_Source\PSoC5/CyLib.c ****         CY_VD_PRES_CONTROL_REG &= (~CY_VD_PRESA_EN);
2068:.\Generated_Source\PSoC5/CyLib.c ****     #endif /*(CY_PSOC3 || CY_PSOC5LP)*/
2069:.\Generated_Source\PSoC5/CyLib.c **** 
2070:.\Generated_Source\PSoC5/CyLib.c ****     while(CY_VD_PERSISTENT_STATUS_REG & 0x07u);
 3048              		.loc 1 2070 0
 3049 001e 44F2F863 		movw	r3, #:lower16:1073759992
 3050 0022 C4F20003 		movt	r3, #:upper16:1073759992
 3051 0026 1B78     		ldrb	r3, [r3, #0]
 3052 0028 DBB2     		uxtb	r3, r3
 3053 002a 03F00703 		and	r3, r3, #7
 3054 002e 002B     		cmp	r3, #0
 3055 0030 F5D1     		bne	.L182
2071:.\Generated_Source\PSoC5/CyLib.c **** }
ARM GAS  C:\Users\Heiwa\AppData\Local\Temp\ccuYQ69z.s 			page 91


 3056              		.loc 1 2071 0
 3057 0032 BD46     		mov	sp, r7
 3058 0034 80BC     		pop	{r7}
 3059 0036 7047     		bx	lr
 3060              		.cfi_endproc
 3061              	.LFE42:
 3062              		.size	CyVdLvAnalogDisable, .-CyVdLvAnalogDisable
 3063              		.section	.text.CyVdHvAnalogEnable,"ax",%progbits
 3064              		.align	2
 3065              		.global	CyVdHvAnalogEnable
 3066              		.thumb
 3067              		.thumb_func
 3068              		.type	CyVdHvAnalogEnable, %function
 3069              	CyVdHvAnalogEnable:
 3070              	.LFB43:
2072:.\Generated_Source\PSoC5/CyLib.c **** 
2073:.\Generated_Source\PSoC5/CyLib.c **** 
2074:.\Generated_Source\PSoC5/CyLib.c **** /*******************************************************************************
2075:.\Generated_Source\PSoC5/CyLib.c **** * Function Name: CyVdHvAnalogEnable
2076:.\Generated_Source\PSoC5/CyLib.c **** ********************************************************************************
2077:.\Generated_Source\PSoC5/CyLib.c **** *
2078:.\Generated_Source\PSoC5/CyLib.c **** * Summary:
2079:.\Generated_Source\PSoC5/CyLib.c **** *  Enables the analog high voltage monitors to generate interrupt on
2080:.\Generated_Source\PSoC5/CyLib.c **** *  Vdda archives 5.75 V threshold and optionally resets device.
2081:.\Generated_Source\PSoC5/CyLib.c **** *
2082:.\Generated_Source\PSoC5/CyLib.c **** * Parameters:
2083:.\Generated_Source\PSoC5/CyLib.c **** *  None
2084:.\Generated_Source\PSoC5/CyLib.c **** *
2085:.\Generated_Source\PSoC5/CyLib.c **** * Return:
2086:.\Generated_Source\PSoC5/CyLib.c **** *  None
2087:.\Generated_Source\PSoC5/CyLib.c **** *
2088:.\Generated_Source\PSoC5/CyLib.c **** *******************************************************************************/
2089:.\Generated_Source\PSoC5/CyLib.c **** void CyVdHvAnalogEnable(void) 
2090:.\Generated_Source\PSoC5/CyLib.c **** {
 3071              		.loc 1 2090 0
 3072              		.cfi_startproc
 3073              		@ args = 0, pretend = 0, frame = 0
 3074              		@ frame_needed = 1, uses_anonymous_args = 0
 3075 0000 80B5     		push	{r7, lr}
 3076              	.LCFI113:
 3077              		.cfi_def_cfa_offset 8
 3078 0002 00AF     		add	r7, sp, #0
 3079              		.cfi_offset 14, -4
 3080              		.cfi_offset 7, -8
 3081              	.LCFI114:
 3082              		.cfi_def_cfa_register 7
2091:.\Generated_Source\PSoC5/CyLib.c ****     *CYINT_CLEAR |= 0x01u;
 3083              		.loc 1 2091 0
 3084 0004 4EF28013 		movw	r3, #:lower16:-536813184
 3085 0008 CEF20003 		movt	r3, #:upper16:-536813184
 3086 000c 4EF28012 		movw	r2, #:lower16:-536813184
 3087 0010 CEF20002 		movt	r2, #:upper16:-536813184
 3088 0014 1268     		ldr	r2, [r2, #0]
 3089 0016 42F00102 		orr	r2, r2, #1
 3090 001a 1A60     		str	r2, [r3, #0]
2092:.\Generated_Source\PSoC5/CyLib.c **** 
2093:.\Generated_Source\PSoC5/CyLib.c ****     #if(CY_PSOC3 || CY_PSOC5LP)
ARM GAS  C:\Users\Heiwa\AppData\Local\Temp\ccuYQ69z.s 			page 92


2094:.\Generated_Source\PSoC5/CyLib.c ****         CY_VD_PRES_CONTROL_REG &= (~CY_VD_PRESA_EN);
2095:.\Generated_Source\PSoC5/CyLib.c ****     #endif /*(CY_PSOC3 || CY_PSOC5LP)*/
2096:.\Generated_Source\PSoC5/CyLib.c **** 
2097:.\Generated_Source\PSoC5/CyLib.c ****     CY_VD_LVI_HVI_CONTROL_REG |= CY_VD_HVIA_EN;
 3091              		.loc 1 2097 0
 3092 001c 44F2F563 		movw	r3, #:lower16:1073759989
 3093 0020 C4F20003 		movt	r3, #:upper16:1073759989
 3094 0024 44F2F562 		movw	r2, #:lower16:1073759989
 3095 0028 C4F20002 		movt	r2, #:upper16:1073759989
 3096 002c 1278     		ldrb	r2, [r2, #0]
 3097 002e D2B2     		uxtb	r2, r2
 3098 0030 42F00402 		orr	r2, r2, #4
 3099 0034 D2B2     		uxtb	r2, r2
 3100 0036 1A70     		strb	r2, [r3, #0]
2098:.\Generated_Source\PSoC5/CyLib.c **** 
2099:.\Generated_Source\PSoC5/CyLib.c ****     /* Timeout to eliminate glitches on the LVI/HVI when enabling */
2100:.\Generated_Source\PSoC5/CyLib.c ****     CyDelayUs(1u);
 3101              		.loc 1 2100 0
 3102 0038 4FF00100 		mov	r0, #1
 3103 003c FFF7FEFF 		bl	CyDelayUs
2101:.\Generated_Source\PSoC5/CyLib.c **** 	
2102:.\Generated_Source\PSoC5/CyLib.c **** 	(void)CY_VD_PERSISTENT_STATUS_REG;
 3104              		.loc 1 2102 0
 3105 0040 44F2F863 		movw	r3, #:lower16:1073759992
 3106 0044 C4F20003 		movt	r3, #:upper16:1073759992
 3107 0048 1B78     		ldrb	r3, [r3, #0]
2103:.\Generated_Source\PSoC5/CyLib.c **** 
2104:.\Generated_Source\PSoC5/CyLib.c ****     *CYINT_CLR_PEND |= 0x01u;
 3108              		.loc 1 2104 0
 3109 004a 4EF28023 		movw	r3, #:lower16:-536812928
 3110 004e CEF20003 		movt	r3, #:upper16:-536812928
 3111 0052 4EF28022 		movw	r2, #:lower16:-536812928
 3112 0056 CEF20002 		movt	r2, #:upper16:-536812928
 3113 005a 1268     		ldr	r2, [r2, #0]
 3114 005c 42F00102 		orr	r2, r2, #1
 3115 0060 1A60     		str	r2, [r3, #0]
2105:.\Generated_Source\PSoC5/CyLib.c ****     *CYINT_ENABLE   |= 0x01u;
 3116              		.loc 1 2105 0
 3117 0062 4EF20013 		movw	r3, #:lower16:-536813312
 3118 0066 CEF20003 		movt	r3, #:upper16:-536813312
 3119 006a 4EF20012 		movw	r2, #:lower16:-536813312
 3120 006e CEF20002 		movt	r2, #:upper16:-536813312
 3121 0072 1268     		ldr	r2, [r2, #0]
 3122 0074 42F00102 		orr	r2, r2, #1
 3123 0078 1A60     		str	r2, [r3, #0]
2106:.\Generated_Source\PSoC5/CyLib.c **** }
 3124              		.loc 1 2106 0
 3125 007a 80BD     		pop	{r7, pc}
 3126              		.cfi_endproc
 3127              	.LFE43:
 3128              		.size	CyVdHvAnalogEnable, .-CyVdHvAnalogEnable
 3129              		.section	.text.CyVdHvAnalogDisable,"ax",%progbits
 3130              		.align	2
 3131              		.global	CyVdHvAnalogDisable
 3132              		.thumb
 3133              		.thumb_func
 3134              		.type	CyVdHvAnalogDisable, %function
ARM GAS  C:\Users\Heiwa\AppData\Local\Temp\ccuYQ69z.s 			page 93


 3135              	CyVdHvAnalogDisable:
 3136              	.LFB44:
2107:.\Generated_Source\PSoC5/CyLib.c **** 
2108:.\Generated_Source\PSoC5/CyLib.c **** 
2109:.\Generated_Source\PSoC5/CyLib.c **** /*******************************************************************************
2110:.\Generated_Source\PSoC5/CyLib.c **** * Function Name: CyVdHvAnalogDisable
2111:.\Generated_Source\PSoC5/CyLib.c **** ********************************************************************************
2112:.\Generated_Source\PSoC5/CyLib.c **** *
2113:.\Generated_Source\PSoC5/CyLib.c **** * Summary:
2114:.\Generated_Source\PSoC5/CyLib.c **** *  Disables the analog low voltage monitor
2115:.\Generated_Source\PSoC5/CyLib.c **** *  (interrupt and device reset are disabled).
2116:.\Generated_Source\PSoC5/CyLib.c **** *
2117:.\Generated_Source\PSoC5/CyLib.c **** * Parameters:
2118:.\Generated_Source\PSoC5/CyLib.c **** *  None
2119:.\Generated_Source\PSoC5/CyLib.c **** *
2120:.\Generated_Source\PSoC5/CyLib.c **** * Return:
2121:.\Generated_Source\PSoC5/CyLib.c **** *  None
2122:.\Generated_Source\PSoC5/CyLib.c **** *
2123:.\Generated_Source\PSoC5/CyLib.c **** *******************************************************************************/
2124:.\Generated_Source\PSoC5/CyLib.c **** void CyVdHvAnalogDisable(void) 
2125:.\Generated_Source\PSoC5/CyLib.c **** {
 3137              		.loc 1 2125 0
 3138              		.cfi_startproc
 3139              		@ args = 0, pretend = 0, frame = 0
 3140              		@ frame_needed = 1, uses_anonymous_args = 0
 3141              		@ link register save eliminated.
 3142 0000 80B4     		push	{r7}
 3143              	.LCFI115:
 3144              		.cfi_def_cfa_offset 4
 3145 0002 00AF     		add	r7, sp, #0
 3146              		.cfi_offset 7, -4
 3147              	.LCFI116:
 3148              		.cfi_def_cfa_register 7
2126:.\Generated_Source\PSoC5/CyLib.c ****     CY_VD_LVI_HVI_CONTROL_REG &= (~CY_VD_HVIA_EN);
 3149              		.loc 1 2126 0
 3150 0004 44F2F563 		movw	r3, #:lower16:1073759989
 3151 0008 C4F20003 		movt	r3, #:upper16:1073759989
 3152 000c 44F2F562 		movw	r2, #:lower16:1073759989
 3153 0010 C4F20002 		movt	r2, #:upper16:1073759989
 3154 0014 1278     		ldrb	r2, [r2, #0]
 3155 0016 D2B2     		uxtb	r2, r2
 3156 0018 02F0FB02 		and	r2, r2, #251
 3157 001c 1A70     		strb	r2, [r3, #0]
2127:.\Generated_Source\PSoC5/CyLib.c **** }
 3158              		.loc 1 2127 0
 3159 001e BD46     		mov	sp, r7
 3160 0020 80BC     		pop	{r7}
 3161 0022 7047     		bx	lr
 3162              		.cfi_endproc
 3163              	.LFE44:
 3164              		.size	CyVdHvAnalogDisable, .-CyVdHvAnalogDisable
 3165              		.section	.text.CyVdStickyStatus,"ax",%progbits
 3166              		.align	2
 3167              		.global	CyVdStickyStatus
 3168              		.thumb
 3169              		.thumb_func
 3170              		.type	CyVdStickyStatus, %function
ARM GAS  C:\Users\Heiwa\AppData\Local\Temp\ccuYQ69z.s 			page 94


 3171              	CyVdStickyStatus:
 3172              	.LFB45:
2128:.\Generated_Source\PSoC5/CyLib.c **** 
2129:.\Generated_Source\PSoC5/CyLib.c **** 
2130:.\Generated_Source\PSoC5/CyLib.c **** /*******************************************************************************
2131:.\Generated_Source\PSoC5/CyLib.c **** * Function Name: CyVdStickyStatus
2132:.\Generated_Source\PSoC5/CyLib.c **** ********************************************************************************
2133:.\Generated_Source\PSoC5/CyLib.c **** *
2134:.\Generated_Source\PSoC5/CyLib.c **** * Summary:
2135:.\Generated_Source\PSoC5/CyLib.c **** *  Manages the Reset and Voltage Detection Status Register 0.
2136:.\Generated_Source\PSoC5/CyLib.c **** *  This register has the interrupt status for the HVIA, LVID and LVIA.
2137:.\Generated_Source\PSoC5/CyLib.c **** *  This hardware register clears on read.
2138:.\Generated_Source\PSoC5/CyLib.c **** *
2139:.\Generated_Source\PSoC5/CyLib.c **** * Parameters:
2140:.\Generated_Source\PSoC5/CyLib.c **** *  mask: Bits in the shadow register to clear.
2141:.\Generated_Source\PSoC5/CyLib.c **** *       Value        Define                Bit To Clear
2142:.\Generated_Source\PSoC5/CyLib.c **** *       0x01         CY_VD_LVID            LVID
2143:.\Generated_Source\PSoC5/CyLib.c **** *       0x02         CY_VD_LVIA            LVIA
2144:.\Generated_Source\PSoC5/CyLib.c **** *       0x04         CY_VD_HVIA            HVIA
2145:.\Generated_Source\PSoC5/CyLib.c **** *
2146:.\Generated_Source\PSoC5/CyLib.c **** * Return:
2147:.\Generated_Source\PSoC5/CyLib.c **** *  Status.  Same enumerated bit values as used for the mask parameter.
2148:.\Generated_Source\PSoC5/CyLib.c **** *
2149:.\Generated_Source\PSoC5/CyLib.c **** *******************************************************************************/
2150:.\Generated_Source\PSoC5/CyLib.c **** uint8 CyVdStickyStatus(uint8 mask) 
2151:.\Generated_Source\PSoC5/CyLib.c **** {
 3173              		.loc 1 2151 0
 3174              		.cfi_startproc
 3175              		@ args = 0, pretend = 0, frame = 16
 3176              		@ frame_needed = 1, uses_anonymous_args = 0
 3177              		@ link register save eliminated.
 3178 0000 80B4     		push	{r7}
 3179              	.LCFI117:
 3180              		.cfi_def_cfa_offset 4
 3181 0002 85B0     		sub	sp, sp, #20
 3182              	.LCFI118:
 3183              		.cfi_def_cfa_offset 24
 3184 0004 00AF     		add	r7, sp, #0
 3185              		.cfi_offset 7, -4
 3186              	.LCFI119:
 3187              		.cfi_def_cfa_register 7
 3188 0006 0346     		mov	r3, r0
 3189 0008 FB71     		strb	r3, [r7, #7]
2152:.\Generated_Source\PSoC5/CyLib.c ****     uint8 status;
2153:.\Generated_Source\PSoC5/CyLib.c **** 
2154:.\Generated_Source\PSoC5/CyLib.c ****     status = CY_VD_PERSISTENT_STATUS_REG;
 3190              		.loc 1 2154 0
 3191 000a 44F2F863 		movw	r3, #:lower16:1073759992
 3192 000e C4F20003 		movt	r3, #:upper16:1073759992
 3193 0012 1B78     		ldrb	r3, [r3, #0]
 3194 0014 FB73     		strb	r3, [r7, #15]
2155:.\Generated_Source\PSoC5/CyLib.c ****     CY_VD_PERSISTENT_STATUS_REG &= (~mask);
 3195              		.loc 1 2155 0
 3196 0016 44F2F863 		movw	r3, #:lower16:1073759992
 3197 001a C4F20003 		movt	r3, #:upper16:1073759992
 3198 001e 44F2F862 		movw	r2, #:lower16:1073759992
 3199 0022 C4F20002 		movt	r2, #:upper16:1073759992
ARM GAS  C:\Users\Heiwa\AppData\Local\Temp\ccuYQ69z.s 			page 95


 3200 0026 1278     		ldrb	r2, [r2, #0]
 3201 0028 D2B2     		uxtb	r2, r2
 3202 002a 1146     		mov	r1, r2
 3203 002c FA79     		ldrb	r2, [r7, #7]	@ zero_extendqisi2
 3204 002e 6FEA0202 		mvn	r2, r2
 3205 0032 D2B2     		uxtb	r2, r2
 3206 0034 01EA0202 		and	r2, r1, r2
 3207 0038 D2B2     		uxtb	r2, r2
 3208 003a D2B2     		uxtb	r2, r2
 3209 003c 1A70     		strb	r2, [r3, #0]
2156:.\Generated_Source\PSoC5/CyLib.c **** 
2157:.\Generated_Source\PSoC5/CyLib.c ****     return(status);
 3210              		.loc 1 2157 0
 3211 003e FB7B     		ldrb	r3, [r7, #15]	@ zero_extendqisi2
2158:.\Generated_Source\PSoC5/CyLib.c **** }
 3212              		.loc 1 2158 0
 3213 0040 1846     		mov	r0, r3
 3214 0042 07F11407 		add	r7, r7, #20
 3215 0046 BD46     		mov	sp, r7
 3216 0048 80BC     		pop	{r7}
 3217 004a 7047     		bx	lr
 3218              		.cfi_endproc
 3219              	.LFE45:
 3220              		.size	CyVdStickyStatus, .-CyVdStickyStatus
 3221              		.section	.text.CyVdRealTimeStatus,"ax",%progbits
 3222              		.align	2
 3223              		.global	CyVdRealTimeStatus
 3224              		.thumb
 3225              		.thumb_func
 3226              		.type	CyVdRealTimeStatus, %function
 3227              	CyVdRealTimeStatus:
 3228              	.LFB46:
2159:.\Generated_Source\PSoC5/CyLib.c **** 
2160:.\Generated_Source\PSoC5/CyLib.c **** 
2161:.\Generated_Source\PSoC5/CyLib.c **** /*******************************************************************************
2162:.\Generated_Source\PSoC5/CyLib.c **** * Function Name: CyVdRealTimeStatus
2163:.\Generated_Source\PSoC5/CyLib.c **** ********************************************************************************
2164:.\Generated_Source\PSoC5/CyLib.c **** *
2165:.\Generated_Source\PSoC5/CyLib.c **** * Summary:
2166:.\Generated_Source\PSoC5/CyLib.c **** *  Returns the real time voltage detection status.
2167:.\Generated_Source\PSoC5/CyLib.c **** *
2168:.\Generated_Source\PSoC5/CyLib.c **** * Parameters:
2169:.\Generated_Source\PSoC5/CyLib.c **** *  None
2170:.\Generated_Source\PSoC5/CyLib.c **** *
2171:.\Generated_Source\PSoC5/CyLib.c **** * Return:
2172:.\Generated_Source\PSoC5/CyLib.c **** *  Status. Same enumerated bit values as used for the mask parameter.
2173:.\Generated_Source\PSoC5/CyLib.c **** *
2174:.\Generated_Source\PSoC5/CyLib.c **** *******************************************************************************/
2175:.\Generated_Source\PSoC5/CyLib.c **** uint8 CyVdRealTimeStatus(void) 
2176:.\Generated_Source\PSoC5/CyLib.c **** {
 3229              		.loc 1 2176 0
 3230              		.cfi_startproc
 3231              		@ args = 0, pretend = 0, frame = 8
 3232              		@ frame_needed = 1, uses_anonymous_args = 0
 3233 0000 80B5     		push	{r7, lr}
 3234              	.LCFI120:
 3235              		.cfi_def_cfa_offset 8
ARM GAS  C:\Users\Heiwa\AppData\Local\Temp\ccuYQ69z.s 			page 96


 3236 0002 82B0     		sub	sp, sp, #8
 3237              	.LCFI121:
 3238              		.cfi_def_cfa_offset 16
 3239 0004 00AF     		add	r7, sp, #0
 3240              		.cfi_offset 14, -4
 3241              		.cfi_offset 7, -8
 3242              	.LCFI122:
 3243              		.cfi_def_cfa_register 7
2177:.\Generated_Source\PSoC5/CyLib.c ****     uint8 interruptState;
2178:.\Generated_Source\PSoC5/CyLib.c ****     uint8 VdFlagsState;
2179:.\Generated_Source\PSoC5/CyLib.c **** 
2180:.\Generated_Source\PSoC5/CyLib.c ****     interruptState = CyEnterCriticalSection();
 3244              		.loc 1 2180 0
 3245 0006 FFF7FEFF 		bl	CyEnterCriticalSection
 3246 000a 0346     		mov	r3, r0
 3247 000c BB71     		strb	r3, [r7, #6]
2181:.\Generated_Source\PSoC5/CyLib.c ****     VdFlagsState = CY_VD_RT_STATUS_REG;
 3248              		.loc 1 2181 0
 3249 000e 44F2FA63 		movw	r3, #:lower16:1073759994
 3250 0012 C4F20003 		movt	r3, #:upper16:1073759994
 3251 0016 1B78     		ldrb	r3, [r3, #0]
 3252 0018 FB71     		strb	r3, [r7, #7]
2182:.\Generated_Source\PSoC5/CyLib.c ****     CyExitCriticalSection(interruptState);
 3253              		.loc 1 2182 0
 3254 001a BB79     		ldrb	r3, [r7, #6]	@ zero_extendqisi2
 3255 001c 1846     		mov	r0, r3
 3256 001e FFF7FEFF 		bl	CyExitCriticalSection
2183:.\Generated_Source\PSoC5/CyLib.c **** 
2184:.\Generated_Source\PSoC5/CyLib.c ****     return(VdFlagsState);
 3257              		.loc 1 2184 0
 3258 0022 FB79     		ldrb	r3, [r7, #7]	@ zero_extendqisi2
2185:.\Generated_Source\PSoC5/CyLib.c **** }
 3259              		.loc 1 2185 0
 3260 0024 1846     		mov	r0, r3
 3261 0026 07F10807 		add	r7, r7, #8
 3262 002a BD46     		mov	sp, r7
 3263 002c 80BD     		pop	{r7, pc}
 3264              		.cfi_endproc
 3265              	.LFE46:
 3266              		.size	CyVdRealTimeStatus, .-CyVdRealTimeStatus
 3267 002e 00BF     		.section	.text.CyDisableInts,"ax",%progbits
 3268              		.align	2
 3269              		.global	CyDisableInts
 3270              		.thumb
 3271              		.thumb_func
 3272              		.type	CyDisableInts, %function
 3273              	CyDisableInts:
 3274              	.LFB47:
2186:.\Generated_Source\PSoC5/CyLib.c **** 
2187:.\Generated_Source\PSoC5/CyLib.c **** 
2188:.\Generated_Source\PSoC5/CyLib.c **** /*******************************************************************************
2189:.\Generated_Source\PSoC5/CyLib.c **** * Function Name: CyDisableInts
2190:.\Generated_Source\PSoC5/CyLib.c **** ********************************************************************************
2191:.\Generated_Source\PSoC5/CyLib.c **** *
2192:.\Generated_Source\PSoC5/CyLib.c **** * Summary:
2193:.\Generated_Source\PSoC5/CyLib.c **** *  Disables the interrupt enable for each interrupt.
2194:.\Generated_Source\PSoC5/CyLib.c **** *
ARM GAS  C:\Users\Heiwa\AppData\Local\Temp\ccuYQ69z.s 			page 97


2195:.\Generated_Source\PSoC5/CyLib.c **** * Parameters:
2196:.\Generated_Source\PSoC5/CyLib.c **** *  None
2197:.\Generated_Source\PSoC5/CyLib.c **** *
2198:.\Generated_Source\PSoC5/CyLib.c **** * Return:
2199:.\Generated_Source\PSoC5/CyLib.c **** *  32 bit mask of previously enabled interrupts.
2200:.\Generated_Source\PSoC5/CyLib.c **** *
2201:.\Generated_Source\PSoC5/CyLib.c **** *******************************************************************************/
2202:.\Generated_Source\PSoC5/CyLib.c **** uint32 CyDisableInts(void) 
2203:.\Generated_Source\PSoC5/CyLib.c **** {
 3275              		.loc 1 2203 0
 3276              		.cfi_startproc
 3277              		@ args = 0, pretend = 0, frame = 8
 3278              		@ frame_needed = 1, uses_anonymous_args = 0
 3279              		@ link register save eliminated.
 3280 0000 80B4     		push	{r7}
 3281              	.LCFI123:
 3282              		.cfi_def_cfa_offset 4
 3283 0002 83B0     		sub	sp, sp, #12
 3284              	.LCFI124:
 3285              		.cfi_def_cfa_offset 16
 3286 0004 00AF     		add	r7, sp, #0
 3287              		.cfi_offset 7, -4
 3288              	.LCFI125:
 3289              		.cfi_def_cfa_register 7
2204:.\Generated_Source\PSoC5/CyLib.c ****     uint32 intState;
2205:.\Generated_Source\PSoC5/CyLib.c **** 
2206:.\Generated_Source\PSoC5/CyLib.c ****     /* Get the curreent interrutp state. */
2207:.\Generated_Source\PSoC5/CyLib.c ****     intState = CY_GET_REG32(CYINT_CLEAR);
 3290              		.loc 1 2207 0
 3291 0006 4EF28013 		movw	r3, #:lower16:-536813184
 3292 000a CEF20003 		movt	r3, #:upper16:-536813184
 3293 000e 1B68     		ldr	r3, [r3, #0]
 3294 0010 7B60     		str	r3, [r7, #4]
2208:.\Generated_Source\PSoC5/CyLib.c **** 
2209:.\Generated_Source\PSoC5/CyLib.c ****     /* Disable all of the interrupts. */
2210:.\Generated_Source\PSoC5/CyLib.c ****     CY_SET_REG32(CYINT_CLEAR, 0xFFFFFFFF);
 3295              		.loc 1 2210 0
 3296 0012 4EF28013 		movw	r3, #:lower16:-536813184
 3297 0016 CEF20003 		movt	r3, #:upper16:-536813184
 3298 001a 4FF0FF32 		mov	r2, #-1
 3299 001e 1A60     		str	r2, [r3, #0]
2211:.\Generated_Source\PSoC5/CyLib.c **** 
2212:.\Generated_Source\PSoC5/CyLib.c ****     return (intState);
 3300              		.loc 1 2212 0
 3301 0020 7B68     		ldr	r3, [r7, #4]
2213:.\Generated_Source\PSoC5/CyLib.c **** }
 3302              		.loc 1 2213 0
 3303 0022 1846     		mov	r0, r3
 3304 0024 07F10C07 		add	r7, r7, #12
 3305 0028 BD46     		mov	sp, r7
 3306 002a 80BC     		pop	{r7}
 3307 002c 7047     		bx	lr
 3308              		.cfi_endproc
 3309              	.LFE47:
 3310              		.size	CyDisableInts, .-CyDisableInts
 3311 002e 00BF     		.section	.text.CyEnableInts,"ax",%progbits
 3312              		.align	2
ARM GAS  C:\Users\Heiwa\AppData\Local\Temp\ccuYQ69z.s 			page 98


 3313              		.global	CyEnableInts
 3314              		.thumb
 3315              		.thumb_func
 3316              		.type	CyEnableInts, %function
 3317              	CyEnableInts:
 3318              	.LFB48:
2214:.\Generated_Source\PSoC5/CyLib.c **** 
2215:.\Generated_Source\PSoC5/CyLib.c **** 
2216:.\Generated_Source\PSoC5/CyLib.c **** /*******************************************************************************
2217:.\Generated_Source\PSoC5/CyLib.c **** * Function Name: CyEnableInts
2218:.\Generated_Source\PSoC5/CyLib.c **** ********************************************************************************
2219:.\Generated_Source\PSoC5/CyLib.c **** *
2220:.\Generated_Source\PSoC5/CyLib.c **** * Summary:
2221:.\Generated_Source\PSoC5/CyLib.c **** *  Enables interrupts to a given state.
2222:.\Generated_Source\PSoC5/CyLib.c **** *
2223:.\Generated_Source\PSoC5/CyLib.c **** * Parameters:
2224:.\Generated_Source\PSoC5/CyLib.c **** *  uint32 mask: 32 bit mask of interrupts to enable.
2225:.\Generated_Source\PSoC5/CyLib.c **** *
2226:.\Generated_Source\PSoC5/CyLib.c **** * Return:
2227:.\Generated_Source\PSoC5/CyLib.c **** *  None
2228:.\Generated_Source\PSoC5/CyLib.c **** *
2229:.\Generated_Source\PSoC5/CyLib.c **** *******************************************************************************/
2230:.\Generated_Source\PSoC5/CyLib.c **** void CyEnableInts(uint32 mask) 
2231:.\Generated_Source\PSoC5/CyLib.c **** {
 3319              		.loc 1 2231 0
 3320              		.cfi_startproc
 3321              		@ args = 0, pretend = 0, frame = 8
 3322              		@ frame_needed = 1, uses_anonymous_args = 0
 3323              		@ link register save eliminated.
 3324 0000 80B4     		push	{r7}
 3325              	.LCFI126:
 3326              		.cfi_def_cfa_offset 4
 3327 0002 83B0     		sub	sp, sp, #12
 3328              	.LCFI127:
 3329              		.cfi_def_cfa_offset 16
 3330 0004 00AF     		add	r7, sp, #0
 3331              		.cfi_offset 7, -4
 3332              	.LCFI128:
 3333              		.cfi_def_cfa_register 7
 3334 0006 7860     		str	r0, [r7, #4]
2232:.\Generated_Source\PSoC5/CyLib.c ****     /* Set interrupts as enabled. */
2233:.\Generated_Source\PSoC5/CyLib.c ****     CY_SET_REG32(CYINT_ENABLE, mask);
 3335              		.loc 1 2233 0
 3336 0008 4EF20013 		movw	r3, #:lower16:-536813312
 3337 000c CEF20003 		movt	r3, #:upper16:-536813312
 3338 0010 7A68     		ldr	r2, [r7, #4]
 3339 0012 1A60     		str	r2, [r3, #0]
2234:.\Generated_Source\PSoC5/CyLib.c **** }
 3340              		.loc 1 2234 0
 3341 0014 07F10C07 		add	r7, r7, #12
 3342 0018 BD46     		mov	sp, r7
 3343 001a 80BC     		pop	{r7}
 3344 001c 7047     		bx	lr
 3345              		.cfi_endproc
 3346              	.LFE48:
 3347              		.size	CyEnableInts, .-CyEnableInts
 3348 001e 00BF     		.section	.text.CyFlushCache,"ax",%progbits
ARM GAS  C:\Users\Heiwa\AppData\Local\Temp\ccuYQ69z.s 			page 99


 3349              		.align	2
 3350              		.global	CyFlushCache
 3351              		.thumb
 3352              		.thumb_func
 3353              		.type	CyFlushCache, %function
 3354              	CyFlushCache:
 3355              	.LFB49:
2235:.\Generated_Source\PSoC5/CyLib.c **** 
2236:.\Generated_Source\PSoC5/CyLib.c **** #if(CY_PSOC5)
2237:.\Generated_Source\PSoC5/CyLib.c **** 
2238:.\Generated_Source\PSoC5/CyLib.c ****     /*******************************************************************************
2239:.\Generated_Source\PSoC5/CyLib.c ****     * Function Name: CyFlushCache
2240:.\Generated_Source\PSoC5/CyLib.c ****     ********************************************************************************
2241:.\Generated_Source\PSoC5/CyLib.c ****     * Summary:
2242:.\Generated_Source\PSoC5/CyLib.c ****     *  Flushes the PSoC 5 cache by invalidating all entries.
2243:.\Generated_Source\PSoC5/CyLib.c ****     *
2244:.\Generated_Source\PSoC5/CyLib.c ****     * Parameters:
2245:.\Generated_Source\PSoC5/CyLib.c ****     *  None
2246:.\Generated_Source\PSoC5/CyLib.c ****     *
2247:.\Generated_Source\PSoC5/CyLib.c ****     * Return:
2248:.\Generated_Source\PSoC5/CyLib.c ****     *  None
2249:.\Generated_Source\PSoC5/CyLib.c ****     *
2250:.\Generated_Source\PSoC5/CyLib.c ****     *******************************************************************************/
2251:.\Generated_Source\PSoC5/CyLib.c ****     void CyFlushCache() CYREENTRANT
2252:.\Generated_Source\PSoC5/CyLib.c ****     {
 3356              		.loc 1 2252 0
 3357              		.cfi_startproc
 3358              		@ args = 0, pretend = 0, frame = 8
 3359              		@ frame_needed = 1, uses_anonymous_args = 0
 3360              		@ link register save eliminated.
 3361 0000 80B4     		push	{r7}
 3362              	.LCFI129:
 3363              		.cfi_def_cfa_offset 4
 3364 0002 83B0     		sub	sp, sp, #12
 3365              	.LCFI130:
 3366              		.cfi_def_cfa_offset 16
 3367 0004 00AF     		add	r7, sp, #0
 3368              		.cfi_offset 7, -4
 3369              	.LCFI131:
 3370              		.cfi_def_cfa_register 7
2253:.\Generated_Source\PSoC5/CyLib.c ****         /* read the register, set the flush bit, write back */
2254:.\Generated_Source\PSoC5/CyLib.c ****         uint16 ctrlreg = *CACHE_CC_CTL;
 3371              		.loc 1 2254 0
 3372 0006 44F60003 		movw	r3, #:lower16:1073760256
 3373 000a C4F20003 		movt	r3, #:upper16:1073760256
 3374 000e 1B88     		ldrh	r3, [r3, #0]	@ movhi
 3375 0010 FB80     		strh	r3, [r7, #6]	@ movhi
2255:.\Generated_Source\PSoC5/CyLib.c ****         ctrlreg |= 0x4;
 3376              		.loc 1 2255 0
 3377 0012 FB88     		ldrh	r3, [r7, #6]	@ movhi
 3378 0014 43F00403 		orr	r3, r3, #4
 3379 0018 FB80     		strh	r3, [r7, #6]	@ movhi
2256:.\Generated_Source\PSoC5/CyLib.c ****         *CACHE_CC_CTL = ctrlreg;
 3380              		.loc 1 2256 0
 3381 001a 44F60003 		movw	r3, #:lower16:1073760256
 3382 001e C4F20003 		movt	r3, #:upper16:1073760256
 3383 0022 FA88     		ldrh	r2, [r7, #6]	@ movhi
ARM GAS  C:\Users\Heiwa\AppData\Local\Temp\ccuYQ69z.s 			page 100


 3384 0024 1A80     		strh	r2, [r3, #0]	@ movhi
2257:.\Generated_Source\PSoC5/CyLib.c **** 
2258:.\Generated_Source\PSoC5/CyLib.c ****         /* Cache is invalidated on next cycle */
2259:.\Generated_Source\PSoC5/CyLib.c **** 
2260:.\Generated_Source\PSoC5/CyLib.c ****         /***************************************************************************
2261:.\Generated_Source\PSoC5/CyLib.c ****         * Execute a few NOPs to fill the ARM CM3 pipeline with instructions so that
2262:.\Generated_Source\PSoC5/CyLib.c ****         * instructions about to execute won't depend on data in the cache, and will
2263:.\Generated_Source\PSoC5/CyLib.c ****         * maintain data integrity.
2264:.\Generated_Source\PSoC5/CyLib.c ****         ***************************************************************************/
2265:.\Generated_Source\PSoC5/CyLib.c ****         CY_NOP;
 3385              		.loc 1 2265 0
 3386              	@ 2265 ".\Generated_Source\PSoC5\CyLib.c" 1
 3387 0026 00BF     		NOP
 3388              	
 3389              	@ 0 "" 2
2266:.\Generated_Source\PSoC5/CyLib.c ****         CY_NOP;
 3390              		.loc 1 2266 0
 3391              	@ 2266 ".\Generated_Source\PSoC5\CyLib.c" 1
 3392 0028 00BF     		NOP
 3393              	
 3394              	@ 0 "" 2
2267:.\Generated_Source\PSoC5/CyLib.c ****         CY_NOP;
 3395              		.loc 1 2267 0
 3396              	@ 2267 ".\Generated_Source\PSoC5\CyLib.c" 1
 3397 002a 00BF     		NOP
 3398              	
 3399              	@ 0 "" 2
2268:.\Generated_Source\PSoC5/CyLib.c ****         CY_NOP;
 3400              		.loc 1 2268 0
 3401              	@ 2268 ".\Generated_Source\PSoC5\CyLib.c" 1
 3402 002c 00BF     		NOP
 3403              	
 3404              	@ 0 "" 2
2269:.\Generated_Source\PSoC5/CyLib.c ****     }
 3405              		.loc 1 2269 0
 3406              		.thumb
 3407 002e 07F10C07 		add	r7, r7, #12
 3408 0032 BD46     		mov	sp, r7
 3409 0034 80BC     		pop	{r7}
 3410 0036 7047     		bx	lr
 3411              		.cfi_endproc
 3412              	.LFE49:
 3413              		.size	CyFlushCache, .-CyFlushCache
 3414              		.section	.text.CyIntSetSysVector,"ax",%progbits
 3415              		.align	2
 3416              		.global	CyIntSetSysVector
 3417              		.thumb
 3418              		.thumb_func
 3419              		.type	CyIntSetSysVector, %function
 3420              	CyIntSetSysVector:
 3421              	.LFB50:
2270:.\Generated_Source\PSoC5/CyLib.c **** 
2271:.\Generated_Source\PSoC5/CyLib.c **** 
2272:.\Generated_Source\PSoC5/CyLib.c ****     /*******************************************************************************
2273:.\Generated_Source\PSoC5/CyLib.c ****     * Function Name: CyIntSetSysVector
2274:.\Generated_Source\PSoC5/CyLib.c ****     ********************************************************************************
2275:.\Generated_Source\PSoC5/CyLib.c ****     * Summary:
ARM GAS  C:\Users\Heiwa\AppData\Local\Temp\ccuYQ69z.s 			page 101


2276:.\Generated_Source\PSoC5/CyLib.c ****     *  Sets the interrupt vector of the specified system interrupt number. System
2277:.\Generated_Source\PSoC5/CyLib.c ****     *  interrupts are present only for the ARM platform. These interrupts are for
2278:.\Generated_Source\PSoC5/CyLib.c ****     *  SysTick, PendSV and others.
2279:.\Generated_Source\PSoC5/CyLib.c ****     *
2280:.\Generated_Source\PSoC5/CyLib.c ****     * Parameters:
2281:.\Generated_Source\PSoC5/CyLib.c ****     *  number: Interrupt number, valid range [0-15].
2282:.\Generated_Source\PSoC5/CyLib.c ****        address: Pointer to an interrupt service routine.
2283:.\Generated_Source\PSoC5/CyLib.c ****     *
2284:.\Generated_Source\PSoC5/CyLib.c ****     * Return:
2285:.\Generated_Source\PSoC5/CyLib.c ****     *   The old ISR vector at this location.
2286:.\Generated_Source\PSoC5/CyLib.c ****     *
2287:.\Generated_Source\PSoC5/CyLib.c ****     *******************************************************************************/
2288:.\Generated_Source\PSoC5/CyLib.c ****     cyisraddress CyIntSetSysVector(uint8 number, cyisraddress address) CYREENTRANT
2289:.\Generated_Source\PSoC5/CyLib.c ****     {
 3422              		.loc 1 2289 0
 3423              		.cfi_startproc
 3424              		@ args = 0, pretend = 0, frame = 16
 3425              		@ frame_needed = 1, uses_anonymous_args = 0
 3426 0000 80B5     		push	{r7, lr}
 3427              	.LCFI132:
 3428              		.cfi_def_cfa_offset 8
 3429 0002 84B0     		sub	sp, sp, #16
 3430              	.LCFI133:
 3431              		.cfi_def_cfa_offset 24
 3432 0004 00AF     		add	r7, sp, #0
 3433              		.cfi_offset 14, -4
 3434              		.cfi_offset 7, -8
 3435              	.LCFI134:
 3436              		.cfi_def_cfa_register 7
 3437 0006 0346     		mov	r3, r0
 3438 0008 3960     		str	r1, [r7, #0]
 3439 000a FB71     		strb	r3, [r7, #7]
2290:.\Generated_Source\PSoC5/CyLib.c ****         cyisraddress oldIsr;
2291:.\Generated_Source\PSoC5/CyLib.c ****         cyisraddress *ramVectorTable = *CYINT_VECT_TABLE;
 3440              		.loc 1 2291 0
 3441 000c 4EF60853 		movw	r3, #:lower16:-536810232
 3442 0010 CEF20003 		movt	r3, #:upper16:-536810232
 3443 0014 1B68     		ldr	r3, [r3, #0]
 3444 0016 FB60     		str	r3, [r7, #12]
2292:.\Generated_Source\PSoC5/CyLib.c **** 
2293:.\Generated_Source\PSoC5/CyLib.c ****         CYASSERT(number <= CY_INT_SYS_NUMBER_MAX);
 3445              		.loc 1 2293 0
 3446 0018 FB79     		ldrb	r3, [r7, #7]	@ zero_extendqisi2
 3447 001a 0F2B     		cmp	r3, #15
 3448 001c 07D9     		bls	.L199
 3449 001e FB79     		ldrb	r3, [r7, #7]	@ zero_extendqisi2
 3450 0020 0F2B     		cmp	r3, #15
 3451 0022 8CBF     		ite	hi
 3452 0024 0023     		movhi	r3, #0
 3453 0026 0123     		movls	r3, #1
 3454 0028 1846     		mov	r0, r3
 3455 002a FFF7FEFF 		bl	CyHalt
 3456              	.L199:
2294:.\Generated_Source\PSoC5/CyLib.c **** 
2295:.\Generated_Source\PSoC5/CyLib.c ****         /* Save old Interrupt service routine. */
2296:.\Generated_Source\PSoC5/CyLib.c ****         oldIsr = ramVectorTable[number & CY_INT_SYS_NUMBER_MASK];
 3457              		.loc 1 2296 0
ARM GAS  C:\Users\Heiwa\AppData\Local\Temp\ccuYQ69z.s 			page 102


 3458 002e FB79     		ldrb	r3, [r7, #7]	@ zero_extendqisi2
 3459 0030 03F00F03 		and	r3, r3, #15
 3460 0034 4FEA8302 		lsl	r2, r3, #2
 3461 0038 FB68     		ldr	r3, [r7, #12]
 3462 003a 1344     		add	r3, r2, r3
 3463 003c 1B68     		ldr	r3, [r3, #0]
 3464 003e BB60     		str	r3, [r7, #8]
2297:.\Generated_Source\PSoC5/CyLib.c **** 
2298:.\Generated_Source\PSoC5/CyLib.c ****         /* Set new Interrupt service routine. */
2299:.\Generated_Source\PSoC5/CyLib.c ****         ramVectorTable[number & CY_INT_SYS_NUMBER_MASK] = address;
 3465              		.loc 1 2299 0
 3466 0040 FB79     		ldrb	r3, [r7, #7]	@ zero_extendqisi2
 3467 0042 03F00F03 		and	r3, r3, #15
 3468 0046 4FEA8302 		lsl	r2, r3, #2
 3469 004a FB68     		ldr	r3, [r7, #12]
 3470 004c 1344     		add	r3, r2, r3
 3471 004e 3A68     		ldr	r2, [r7, #0]
 3472 0050 1A60     		str	r2, [r3, #0]
2300:.\Generated_Source\PSoC5/CyLib.c **** 
2301:.\Generated_Source\PSoC5/CyLib.c ****         return (oldIsr);
 3473              		.loc 1 2301 0
 3474 0052 BB68     		ldr	r3, [r7, #8]
2302:.\Generated_Source\PSoC5/CyLib.c ****     }
 3475              		.loc 1 2302 0
 3476 0054 1846     		mov	r0, r3
 3477 0056 07F11007 		add	r7, r7, #16
 3478 005a BD46     		mov	sp, r7
 3479 005c 80BD     		pop	{r7, pc}
 3480              		.cfi_endproc
 3481              	.LFE50:
 3482              		.size	CyIntSetSysVector, .-CyIntSetSysVector
 3483 005e 00BF     		.section	.text.CyIntGetSysVector,"ax",%progbits
 3484              		.align	2
 3485              		.global	CyIntGetSysVector
 3486              		.thumb
 3487              		.thumb_func
 3488              		.type	CyIntGetSysVector, %function
 3489              	CyIntGetSysVector:
 3490              	.LFB51:
2303:.\Generated_Source\PSoC5/CyLib.c **** 
2304:.\Generated_Source\PSoC5/CyLib.c **** 
2305:.\Generated_Source\PSoC5/CyLib.c ****     /*******************************************************************************
2306:.\Generated_Source\PSoC5/CyLib.c ****     * Function Name: CyIntGetSysVector
2307:.\Generated_Source\PSoC5/CyLib.c ****     ********************************************************************************
2308:.\Generated_Source\PSoC5/CyLib.c ****     *
2309:.\Generated_Source\PSoC5/CyLib.c ****     * Summary:
2310:.\Generated_Source\PSoC5/CyLib.c ****     *  Gets the interrupt vector of the specified system interrupt number. System
2311:.\Generated_Source\PSoC5/CyLib.c ****     *  interrupts are present only for the ARM platform. These interrupts are for
2312:.\Generated_Source\PSoC5/CyLib.c ****     *  SysTick, PendSV and others.
2313:.\Generated_Source\PSoC5/CyLib.c ****     *
2314:.\Generated_Source\PSoC5/CyLib.c ****     * Parameters:
2315:.\Generated_Source\PSoC5/CyLib.c ****     *   number: The interrupt number, valid range [0-15].
2316:.\Generated_Source\PSoC5/CyLib.c ****     *
2317:.\Generated_Source\PSoC5/CyLib.c ****     * Return:
2318:.\Generated_Source\PSoC5/CyLib.c ****     *   Address of the ISR in the interrupt vector table.
2319:.\Generated_Source\PSoC5/CyLib.c ****     *
2320:.\Generated_Source\PSoC5/CyLib.c ****     *******************************************************************************/
ARM GAS  C:\Users\Heiwa\AppData\Local\Temp\ccuYQ69z.s 			page 103


2321:.\Generated_Source\PSoC5/CyLib.c ****     cyisraddress CyIntGetSysVector(uint8 number) CYREENTRANT
2322:.\Generated_Source\PSoC5/CyLib.c ****     {
 3491              		.loc 1 2322 0
 3492              		.cfi_startproc
 3493              		@ args = 0, pretend = 0, frame = 16
 3494              		@ frame_needed = 1, uses_anonymous_args = 0
 3495 0000 80B5     		push	{r7, lr}
 3496              	.LCFI135:
 3497              		.cfi_def_cfa_offset 8
 3498 0002 84B0     		sub	sp, sp, #16
 3499              	.LCFI136:
 3500              		.cfi_def_cfa_offset 24
 3501 0004 00AF     		add	r7, sp, #0
 3502              		.cfi_offset 14, -4
 3503              		.cfi_offset 7, -8
 3504              	.LCFI137:
 3505              		.cfi_def_cfa_register 7
 3506 0006 0346     		mov	r3, r0
 3507 0008 FB71     		strb	r3, [r7, #7]
2323:.\Generated_Source\PSoC5/CyLib.c ****         cyisraddress *ramVectorTable = *CYINT_VECT_TABLE;
 3508              		.loc 1 2323 0
 3509 000a 4EF60853 		movw	r3, #:lower16:-536810232
 3510 000e CEF20003 		movt	r3, #:upper16:-536810232
 3511 0012 1B68     		ldr	r3, [r3, #0]
 3512 0014 FB60     		str	r3, [r7, #12]
2324:.\Generated_Source\PSoC5/CyLib.c ****         CYASSERT(number <= CY_INT_SYS_NUMBER_MAX);
 3513              		.loc 1 2324 0
 3514 0016 FB79     		ldrb	r3, [r7, #7]	@ zero_extendqisi2
 3515 0018 0F2B     		cmp	r3, #15
 3516 001a 07D9     		bls	.L202
 3517 001c FB79     		ldrb	r3, [r7, #7]	@ zero_extendqisi2
 3518 001e 0F2B     		cmp	r3, #15
 3519 0020 8CBF     		ite	hi
 3520 0022 0023     		movhi	r3, #0
 3521 0024 0123     		movls	r3, #1
 3522 0026 1846     		mov	r0, r3
 3523 0028 FFF7FEFF 		bl	CyHalt
 3524              	.L202:
2325:.\Generated_Source\PSoC5/CyLib.c **** 
2326:.\Generated_Source\PSoC5/CyLib.c ****         return ramVectorTable[number & CY_INT_SYS_NUMBER_MASK];
 3525              		.loc 1 2326 0
 3526 002c FB79     		ldrb	r3, [r7, #7]	@ zero_extendqisi2
 3527 002e 03F00F03 		and	r3, r3, #15
 3528 0032 4FEA8302 		lsl	r2, r3, #2
 3529 0036 FB68     		ldr	r3, [r7, #12]
 3530 0038 1344     		add	r3, r2, r3
 3531 003a 1B68     		ldr	r3, [r3, #0]
2327:.\Generated_Source\PSoC5/CyLib.c ****     }
 3532              		.loc 1 2327 0
 3533 003c 1846     		mov	r0, r3
 3534 003e 07F11007 		add	r7, r7, #16
 3535 0042 BD46     		mov	sp, r7
 3536 0044 80BD     		pop	{r7, pc}
 3537              		.cfi_endproc
 3538              	.LFE51:
 3539              		.size	CyIntGetSysVector, .-CyIntGetSysVector
 3540 0046 00BF     		.section	.text.CyIntSetVector,"ax",%progbits
ARM GAS  C:\Users\Heiwa\AppData\Local\Temp\ccuYQ69z.s 			page 104


 3541              		.align	2
 3542              		.global	CyIntSetVector
 3543              		.thumb
 3544              		.thumb_func
 3545              		.type	CyIntSetVector, %function
 3546              	CyIntSetVector:
 3547              	.LFB52:
2328:.\Generated_Source\PSoC5/CyLib.c **** 
2329:.\Generated_Source\PSoC5/CyLib.c **** 
2330:.\Generated_Source\PSoC5/CyLib.c ****     /*******************************************************************************
2331:.\Generated_Source\PSoC5/CyLib.c ****     * Function Name: CyIntSetVector
2332:.\Generated_Source\PSoC5/CyLib.c ****     ********************************************************************************
2333:.\Generated_Source\PSoC5/CyLib.c ****     *
2334:.\Generated_Source\PSoC5/CyLib.c ****     * Summary:
2335:.\Generated_Source\PSoC5/CyLib.c ****     *  Sets the interrupt vector of the specified interrupt number.
2336:.\Generated_Source\PSoC5/CyLib.c ****     *
2337:.\Generated_Source\PSoC5/CyLib.c ****     * Parameters:
2338:.\Generated_Source\PSoC5/CyLib.c ****     *  number: Valid range [0-31].  Interrupt number
2339:.\Generated_Source\PSoC5/CyLib.c ****     *  address: Pointer to an interrupt service routine
2340:.\Generated_Source\PSoC5/CyLib.c ****     *
2341:.\Generated_Source\PSoC5/CyLib.c ****     * Return:
2342:.\Generated_Source\PSoC5/CyLib.c ****     *   Previous interrupt vector value.
2343:.\Generated_Source\PSoC5/CyLib.c ****     *
2344:.\Generated_Source\PSoC5/CyLib.c ****     *******************************************************************************/
2345:.\Generated_Source\PSoC5/CyLib.c ****     cyisraddress CyIntSetVector(uint8 number, cyisraddress address) 
2346:.\Generated_Source\PSoC5/CyLib.c ****     {
 3548              		.loc 1 2346 0
 3549              		.cfi_startproc
 3550              		@ args = 0, pretend = 0, frame = 16
 3551              		@ frame_needed = 1, uses_anonymous_args = 0
 3552 0000 80B5     		push	{r7, lr}
 3553              	.LCFI138:
 3554              		.cfi_def_cfa_offset 8
 3555 0002 84B0     		sub	sp, sp, #16
 3556              	.LCFI139:
 3557              		.cfi_def_cfa_offset 24
 3558 0004 00AF     		add	r7, sp, #0
 3559              		.cfi_offset 14, -4
 3560              		.cfi_offset 7, -8
 3561              	.LCFI140:
 3562              		.cfi_def_cfa_register 7
 3563 0006 0346     		mov	r3, r0
 3564 0008 3960     		str	r1, [r7, #0]
 3565 000a FB71     		strb	r3, [r7, #7]
2347:.\Generated_Source\PSoC5/CyLib.c ****         cyisraddress oldIsr;
2348:.\Generated_Source\PSoC5/CyLib.c ****         cyisraddress *ramVectorTable = *CYINT_VECT_TABLE;
 3566              		.loc 1 2348 0
 3567 000c 4EF60853 		movw	r3, #:lower16:-536810232
 3568 0010 CEF20003 		movt	r3, #:upper16:-536810232
 3569 0014 1B68     		ldr	r3, [r3, #0]
 3570 0016 FB60     		str	r3, [r7, #12]
2349:.\Generated_Source\PSoC5/CyLib.c **** 
2350:.\Generated_Source\PSoC5/CyLib.c ****         CYASSERT(number <= CY_INT_NUMBER_MAX);
 3571              		.loc 1 2350 0
 3572 0018 FB79     		ldrb	r3, [r7, #7]	@ zero_extendqisi2
 3573 001a 1F2B     		cmp	r3, #31
 3574 001c 07D9     		bls	.L205
ARM GAS  C:\Users\Heiwa\AppData\Local\Temp\ccuYQ69z.s 			page 105


 3575 001e FB79     		ldrb	r3, [r7, #7]	@ zero_extendqisi2
 3576 0020 1F2B     		cmp	r3, #31
 3577 0022 8CBF     		ite	hi
 3578 0024 0023     		movhi	r3, #0
 3579 0026 0123     		movls	r3, #1
 3580 0028 1846     		mov	r0, r3
 3581 002a FFF7FEFF 		bl	CyHalt
 3582              	.L205:
2351:.\Generated_Source\PSoC5/CyLib.c **** 
2352:.\Generated_Source\PSoC5/CyLib.c ****         /* Save old Interrupt service routine. */
2353:.\Generated_Source\PSoC5/CyLib.c ****         oldIsr = ramVectorTable[CYINT_IRQ_BASE + (number & CY_INT_NUMBER_MASK)];
 3583              		.loc 1 2353 0
 3584 002e FB79     		ldrb	r3, [r7, #7]	@ zero_extendqisi2
 3585 0030 03F01F03 		and	r3, r3, #31
 3586 0034 03F11003 		add	r3, r3, #16
 3587 0038 4FEA8302 		lsl	r2, r3, #2
 3588 003c FB68     		ldr	r3, [r7, #12]
 3589 003e 1344     		add	r3, r2, r3
 3590 0040 1B68     		ldr	r3, [r3, #0]
 3591 0042 BB60     		str	r3, [r7, #8]
2354:.\Generated_Source\PSoC5/CyLib.c **** 
2355:.\Generated_Source\PSoC5/CyLib.c ****         /* Set new Interrupt service routine. */
2356:.\Generated_Source\PSoC5/CyLib.c ****         ramVectorTable[CYINT_IRQ_BASE + (number & CY_INT_NUMBER_MASK)] = address;
 3592              		.loc 1 2356 0
 3593 0044 FB79     		ldrb	r3, [r7, #7]	@ zero_extendqisi2
 3594 0046 03F01F03 		and	r3, r3, #31
 3595 004a 03F11003 		add	r3, r3, #16
 3596 004e 4FEA8302 		lsl	r2, r3, #2
 3597 0052 FB68     		ldr	r3, [r7, #12]
 3598 0054 1344     		add	r3, r2, r3
 3599 0056 3A68     		ldr	r2, [r7, #0]
 3600 0058 1A60     		str	r2, [r3, #0]
2357:.\Generated_Source\PSoC5/CyLib.c **** 
2358:.\Generated_Source\PSoC5/CyLib.c ****         return (oldIsr);
 3601              		.loc 1 2358 0
 3602 005a BB68     		ldr	r3, [r7, #8]
2359:.\Generated_Source\PSoC5/CyLib.c ****     }
 3603              		.loc 1 2359 0
 3604 005c 1846     		mov	r0, r3
 3605 005e 07F11007 		add	r7, r7, #16
 3606 0062 BD46     		mov	sp, r7
 3607 0064 80BD     		pop	{r7, pc}
 3608              		.cfi_endproc
 3609              	.LFE52:
 3610              		.size	CyIntSetVector, .-CyIntSetVector
 3611 0066 00BF     		.section	.text.CyIntGetVector,"ax",%progbits
 3612              		.align	2
 3613              		.global	CyIntGetVector
 3614              		.thumb
 3615              		.thumb_func
 3616              		.type	CyIntGetVector, %function
 3617              	CyIntGetVector:
 3618              	.LFB53:
2360:.\Generated_Source\PSoC5/CyLib.c **** 
2361:.\Generated_Source\PSoC5/CyLib.c **** 
2362:.\Generated_Source\PSoC5/CyLib.c ****     /*******************************************************************************
2363:.\Generated_Source\PSoC5/CyLib.c ****     * Function Name: CyIntGetVector
ARM GAS  C:\Users\Heiwa\AppData\Local\Temp\ccuYQ69z.s 			page 106


2364:.\Generated_Source\PSoC5/CyLib.c ****     ********************************************************************************
2365:.\Generated_Source\PSoC5/CyLib.c ****     *
2366:.\Generated_Source\PSoC5/CyLib.c ****     * Summary:
2367:.\Generated_Source\PSoC5/CyLib.c ****     *  Gets the interrupt vector of the specified interrupt number.
2368:.\Generated_Source\PSoC5/CyLib.c ****     *
2369:.\Generated_Source\PSoC5/CyLib.c ****     * Parameters:
2370:.\Generated_Source\PSoC5/CyLib.c ****     *  number: Valid range [0-31].  Interrupt number
2371:.\Generated_Source\PSoC5/CyLib.c ****     *
2372:.\Generated_Source\PSoC5/CyLib.c ****     * Return:
2373:.\Generated_Source\PSoC5/CyLib.c ****     *  Address of the ISR in the interrupt vector table.
2374:.\Generated_Source\PSoC5/CyLib.c ****     *
2375:.\Generated_Source\PSoC5/CyLib.c ****     *******************************************************************************/
2376:.\Generated_Source\PSoC5/CyLib.c ****     cyisraddress CyIntGetVector(uint8 number) 
2377:.\Generated_Source\PSoC5/CyLib.c ****     {
 3619              		.loc 1 2377 0
 3620              		.cfi_startproc
 3621              		@ args = 0, pretend = 0, frame = 16
 3622              		@ frame_needed = 1, uses_anonymous_args = 0
 3623 0000 80B5     		push	{r7, lr}
 3624              	.LCFI141:
 3625              		.cfi_def_cfa_offset 8
 3626 0002 84B0     		sub	sp, sp, #16
 3627              	.LCFI142:
 3628              		.cfi_def_cfa_offset 24
 3629 0004 00AF     		add	r7, sp, #0
 3630              		.cfi_offset 14, -4
 3631              		.cfi_offset 7, -8
 3632              	.LCFI143:
 3633              		.cfi_def_cfa_register 7
 3634 0006 0346     		mov	r3, r0
 3635 0008 FB71     		strb	r3, [r7, #7]
2378:.\Generated_Source\PSoC5/CyLib.c ****         cyisraddress *ramVectorTable = *CYINT_VECT_TABLE;
 3636              		.loc 1 2378 0
 3637 000a 4EF60853 		movw	r3, #:lower16:-536810232
 3638 000e CEF20003 		movt	r3, #:upper16:-536810232
 3639 0012 1B68     		ldr	r3, [r3, #0]
 3640 0014 FB60     		str	r3, [r7, #12]
2379:.\Generated_Source\PSoC5/CyLib.c ****         CYASSERT(number <= CY_INT_NUMBER_MAX);
 3641              		.loc 1 2379 0
 3642 0016 FB79     		ldrb	r3, [r7, #7]	@ zero_extendqisi2
 3643 0018 1F2B     		cmp	r3, #31
 3644 001a 07D9     		bls	.L208
 3645 001c FB79     		ldrb	r3, [r7, #7]	@ zero_extendqisi2
 3646 001e 1F2B     		cmp	r3, #31
 3647 0020 8CBF     		ite	hi
 3648 0022 0023     		movhi	r3, #0
 3649 0024 0123     		movls	r3, #1
 3650 0026 1846     		mov	r0, r3
 3651 0028 FFF7FEFF 		bl	CyHalt
 3652              	.L208:
2380:.\Generated_Source\PSoC5/CyLib.c **** 
2381:.\Generated_Source\PSoC5/CyLib.c ****         return ramVectorTable[CYINT_IRQ_BASE + (number & CY_INT_NUMBER_MASK)];
 3653              		.loc 1 2381 0
 3654 002c FB79     		ldrb	r3, [r7, #7]	@ zero_extendqisi2
 3655 002e 03F01F03 		and	r3, r3, #31
 3656 0032 03F11003 		add	r3, r3, #16
 3657 0036 4FEA8302 		lsl	r2, r3, #2
ARM GAS  C:\Users\Heiwa\AppData\Local\Temp\ccuYQ69z.s 			page 107


 3658 003a FB68     		ldr	r3, [r7, #12]
 3659 003c 1344     		add	r3, r2, r3
 3660 003e 1B68     		ldr	r3, [r3, #0]
2382:.\Generated_Source\PSoC5/CyLib.c ****     }
 3661              		.loc 1 2382 0
 3662 0040 1846     		mov	r0, r3
 3663 0042 07F11007 		add	r7, r7, #16
 3664 0046 BD46     		mov	sp, r7
 3665 0048 80BD     		pop	{r7, pc}
 3666              		.cfi_endproc
 3667              	.LFE53:
 3668              		.size	CyIntGetVector, .-CyIntGetVector
 3669 004a 00BF     		.section	.text.CyIntSetPriority,"ax",%progbits
 3670              		.align	2
 3671              		.global	CyIntSetPriority
 3672              		.thumb
 3673              		.thumb_func
 3674              		.type	CyIntSetPriority, %function
 3675              	CyIntSetPriority:
 3676              	.LFB54:
2383:.\Generated_Source\PSoC5/CyLib.c **** 
2384:.\Generated_Source\PSoC5/CyLib.c **** 
2385:.\Generated_Source\PSoC5/CyLib.c ****     /*******************************************************************************
2386:.\Generated_Source\PSoC5/CyLib.c ****     * Function Name: CyIntSetPriority
2387:.\Generated_Source\PSoC5/CyLib.c ****     ********************************************************************************
2388:.\Generated_Source\PSoC5/CyLib.c ****     *
2389:.\Generated_Source\PSoC5/CyLib.c ****     * Summary:
2390:.\Generated_Source\PSoC5/CyLib.c ****     *  Sets the Priority of the Interrupt.
2391:.\Generated_Source\PSoC5/CyLib.c ****     *
2392:.\Generated_Source\PSoC5/CyLib.c ****     * Parameters:
2393:.\Generated_Source\PSoC5/CyLib.c ****     *  priority: Priority of the interrupt. 0 - 7, 0 being the highest.
2394:.\Generated_Source\PSoC5/CyLib.c ****     *  number: The number of the interrupt, 0 - 31.
2395:.\Generated_Source\PSoC5/CyLib.c ****     *
2396:.\Generated_Source\PSoC5/CyLib.c ****     * Return:
2397:.\Generated_Source\PSoC5/CyLib.c ****     *  None
2398:.\Generated_Source\PSoC5/CyLib.c ****     *
2399:.\Generated_Source\PSoC5/CyLib.c ****     *******************************************************************************/
2400:.\Generated_Source\PSoC5/CyLib.c ****     void CyIntSetPriority(uint8 number, uint8 priority) 
2401:.\Generated_Source\PSoC5/CyLib.c ****     {
 3677              		.loc 1 2401 0
 3678              		.cfi_startproc
 3679              		@ args = 0, pretend = 0, frame = 8
 3680              		@ frame_needed = 1, uses_anonymous_args = 0
 3681 0000 80B5     		push	{r7, lr}
 3682              	.LCFI144:
 3683              		.cfi_def_cfa_offset 8
 3684 0002 82B0     		sub	sp, sp, #8
 3685              	.LCFI145:
 3686              		.cfi_def_cfa_offset 16
 3687 0004 00AF     		add	r7, sp, #0
 3688              		.cfi_offset 14, -4
 3689              		.cfi_offset 7, -8
 3690              	.LCFI146:
 3691              		.cfi_def_cfa_register 7
 3692 0006 0246     		mov	r2, r0
 3693 0008 0B46     		mov	r3, r1
 3694 000a FA71     		strb	r2, [r7, #7]
ARM GAS  C:\Users\Heiwa\AppData\Local\Temp\ccuYQ69z.s 			page 108


 3695 000c BB71     		strb	r3, [r7, #6]
2402:.\Generated_Source\PSoC5/CyLib.c ****         CYASSERT(priority <= CY_INT_PRIORITY_MAX);
 3696              		.loc 1 2402 0
 3697 000e BB79     		ldrb	r3, [r7, #6]	@ zero_extendqisi2
 3698 0010 072B     		cmp	r3, #7
 3699 0012 07D9     		bls	.L211
 3700 0014 BB79     		ldrb	r3, [r7, #6]	@ zero_extendqisi2
 3701 0016 072B     		cmp	r3, #7
 3702 0018 8CBF     		ite	hi
 3703 001a 0023     		movhi	r3, #0
 3704 001c 0123     		movls	r3, #1
 3705 001e 1846     		mov	r0, r3
 3706 0020 FFF7FEFF 		bl	CyHalt
 3707              	.L211:
2403:.\Generated_Source\PSoC5/CyLib.c ****         CYASSERT(number <= CY_INT_NUMBER_MAX);
 3708              		.loc 1 2403 0
 3709 0024 FB79     		ldrb	r3, [r7, #7]	@ zero_extendqisi2
 3710 0026 1F2B     		cmp	r3, #31
 3711 0028 07D9     		bls	.L212
 3712 002a FB79     		ldrb	r3, [r7, #7]	@ zero_extendqisi2
 3713 002c 1F2B     		cmp	r3, #31
 3714 002e 8CBF     		ite	hi
 3715 0030 0023     		movhi	r3, #0
 3716 0032 0123     		movls	r3, #1
 3717 0034 1846     		mov	r0, r3
 3718 0036 FFF7FEFF 		bl	CyHalt
 3719              	.L212:
2404:.\Generated_Source\PSoC5/CyLib.c ****         CYINT_PRIORITY[number & CY_INT_NUMBER_MASK] = (priority & CY_INT_PRIORITY_MASK)<< 5;
 3720              		.loc 1 2404 0
 3721 003a FB79     		ldrb	r3, [r7, #7]	@ zero_extendqisi2
 3722 003c 03F01F03 		and	r3, r3, #31
 3723 0040 03F16043 		add	r3, r3, #-536870912
 3724 0044 03F56443 		add	r3, r3, #58368
 3725 0048 BA79     		ldrb	r2, [r7, #6]
 3726 004a 4FEA4212 		lsl	r2, r2, #5
 3727 004e D2B2     		uxtb	r2, r2
 3728 0050 1A70     		strb	r2, [r3, #0]
2405:.\Generated_Source\PSoC5/CyLib.c ****     }
 3729              		.loc 1 2405 0
 3730 0052 07F10807 		add	r7, r7, #8
 3731 0056 BD46     		mov	sp, r7
 3732 0058 80BD     		pop	{r7, pc}
 3733              		.cfi_endproc
 3734              	.LFE54:
 3735              		.size	CyIntSetPriority, .-CyIntSetPriority
 3736 005a 00BF     		.section	.text.CyIntGetPriority,"ax",%progbits
 3737              		.align	2
 3738              		.global	CyIntGetPriority
 3739              		.thumb
 3740              		.thumb_func
 3741              		.type	CyIntGetPriority, %function
 3742              	CyIntGetPriority:
 3743              	.LFB55:
2406:.\Generated_Source\PSoC5/CyLib.c **** 
2407:.\Generated_Source\PSoC5/CyLib.c **** 
2408:.\Generated_Source\PSoC5/CyLib.c ****     /*******************************************************************************
2409:.\Generated_Source\PSoC5/CyLib.c ****     * Function Name: CyIntGetPriority
ARM GAS  C:\Users\Heiwa\AppData\Local\Temp\ccuYQ69z.s 			page 109


2410:.\Generated_Source\PSoC5/CyLib.c ****     ********************************************************************************
2411:.\Generated_Source\PSoC5/CyLib.c ****     *
2412:.\Generated_Source\PSoC5/CyLib.c ****     * Summary:
2413:.\Generated_Source\PSoC5/CyLib.c ****     *  Gets the Priority of the Interrupt.
2414:.\Generated_Source\PSoC5/CyLib.c ****     *
2415:.\Generated_Source\PSoC5/CyLib.c ****     * Parameters:
2416:.\Generated_Source\PSoC5/CyLib.c ****     *  number: The number of the interrupt, 0 - 31.
2417:.\Generated_Source\PSoC5/CyLib.c ****     *
2418:.\Generated_Source\PSoC5/CyLib.c ****     * Return:
2419:.\Generated_Source\PSoC5/CyLib.c ****     *  Priority of the interrupt. 0 - 7, 0 being the highest.
2420:.\Generated_Source\PSoC5/CyLib.c ****     *
2421:.\Generated_Source\PSoC5/CyLib.c ****     *******************************************************************************/
2422:.\Generated_Source\PSoC5/CyLib.c ****     uint8 CyIntGetPriority(uint8 number) 
2423:.\Generated_Source\PSoC5/CyLib.c ****     {
 3744              		.loc 1 2423 0
 3745              		.cfi_startproc
 3746              		@ args = 0, pretend = 0, frame = 16
 3747              		@ frame_needed = 1, uses_anonymous_args = 0
 3748 0000 80B5     		push	{r7, lr}
 3749              	.LCFI147:
 3750              		.cfi_def_cfa_offset 8
 3751 0002 84B0     		sub	sp, sp, #16
 3752              	.LCFI148:
 3753              		.cfi_def_cfa_offset 24
 3754 0004 00AF     		add	r7, sp, #0
 3755              		.cfi_offset 14, -4
 3756              		.cfi_offset 7, -8
 3757              	.LCFI149:
 3758              		.cfi_def_cfa_register 7
 3759 0006 0346     		mov	r3, r0
 3760 0008 FB71     		strb	r3, [r7, #7]
2424:.\Generated_Source\PSoC5/CyLib.c ****         uint8 priority;
2425:.\Generated_Source\PSoC5/CyLib.c **** 
2426:.\Generated_Source\PSoC5/CyLib.c ****         CYASSERT(number <= CY_INT_NUMBER_MAX);
 3761              		.loc 1 2426 0
 3762 000a FB79     		ldrb	r3, [r7, #7]	@ zero_extendqisi2
 3763 000c 1F2B     		cmp	r3, #31
 3764 000e 07D9     		bls	.L215
 3765 0010 FB79     		ldrb	r3, [r7, #7]	@ zero_extendqisi2
 3766 0012 1F2B     		cmp	r3, #31
 3767 0014 8CBF     		ite	hi
 3768 0016 0023     		movhi	r3, #0
 3769 0018 0123     		movls	r3, #1
 3770 001a 1846     		mov	r0, r3
 3771 001c FFF7FEFF 		bl	CyHalt
 3772              	.L215:
2427:.\Generated_Source\PSoC5/CyLib.c **** 
2428:.\Generated_Source\PSoC5/CyLib.c ****         priority = CYINT_PRIORITY[number & CY_INT_NUMBER_MASK] >> 5;
 3773              		.loc 1 2428 0
 3774 0020 FB79     		ldrb	r3, [r7, #7]	@ zero_extendqisi2
 3775 0022 03F01F03 		and	r3, r3, #31
 3776 0026 03F16043 		add	r3, r3, #-536870912
 3777 002a 03F56443 		add	r3, r3, #58368
 3778 002e 1B78     		ldrb	r3, [r3, #0]
 3779 0030 DBB2     		uxtb	r3, r3
 3780 0032 4FEA5313 		lsr	r3, r3, #5
 3781 0036 FB73     		strb	r3, [r7, #15]
ARM GAS  C:\Users\Heiwa\AppData\Local\Temp\ccuYQ69z.s 			page 110


2429:.\Generated_Source\PSoC5/CyLib.c **** 
2430:.\Generated_Source\PSoC5/CyLib.c ****         return (priority);
 3782              		.loc 1 2430 0
 3783 0038 FB7B     		ldrb	r3, [r7, #15]	@ zero_extendqisi2
2431:.\Generated_Source\PSoC5/CyLib.c ****     }
 3784              		.loc 1 2431 0
 3785 003a 1846     		mov	r0, r3
 3786 003c 07F11007 		add	r7, r7, #16
 3787 0040 BD46     		mov	sp, r7
 3788 0042 80BD     		pop	{r7, pc}
 3789              		.cfi_endproc
 3790              	.LFE55:
 3791              		.size	CyIntGetPriority, .-CyIntGetPriority
 3792              		.section	.text.CyIntEnable,"ax",%progbits
 3793              		.align	2
 3794              		.global	CyIntEnable
 3795              		.thumb
 3796              		.thumb_func
 3797              		.type	CyIntEnable, %function
 3798              	CyIntEnable:
 3799              	.LFB56:
2432:.\Generated_Source\PSoC5/CyLib.c **** 
2433:.\Generated_Source\PSoC5/CyLib.c **** 
2434:.\Generated_Source\PSoC5/CyLib.c ****     /*******************************************************************************
2435:.\Generated_Source\PSoC5/CyLib.c ****     * Function Name: CyIntEnable
2436:.\Generated_Source\PSoC5/CyLib.c ****     ********************************************************************************
2437:.\Generated_Source\PSoC5/CyLib.c ****     *
2438:.\Generated_Source\PSoC5/CyLib.c ****     * Summary:
2439:.\Generated_Source\PSoC5/CyLib.c ****     *  Enables the specified interrupt number.
2440:.\Generated_Source\PSoC5/CyLib.c ****     *
2441:.\Generated_Source\PSoC5/CyLib.c ****     * Parameters:
2442:.\Generated_Source\PSoC5/CyLib.c ****     *  number: Valid range [0-31].  Interrupt number
2443:.\Generated_Source\PSoC5/CyLib.c ****     *
2444:.\Generated_Source\PSoC5/CyLib.c ****     * Return:
2445:.\Generated_Source\PSoC5/CyLib.c ****     *  None
2446:.\Generated_Source\PSoC5/CyLib.c ****     *
2447:.\Generated_Source\PSoC5/CyLib.c ****     *******************************************************************************/
2448:.\Generated_Source\PSoC5/CyLib.c ****     void CyIntEnable(uint8 number) CYREENTRANT
2449:.\Generated_Source\PSoC5/CyLib.c ****     {
 3800              		.loc 1 2449 0
 3801              		.cfi_startproc
 3802              		@ args = 0, pretend = 0, frame = 16
 3803              		@ frame_needed = 1, uses_anonymous_args = 0
 3804 0000 80B5     		push	{r7, lr}
 3805              	.LCFI150:
 3806              		.cfi_def_cfa_offset 8
 3807 0002 84B0     		sub	sp, sp, #16
 3808              	.LCFI151:
 3809              		.cfi_def_cfa_offset 24
 3810 0004 00AF     		add	r7, sp, #0
 3811              		.cfi_offset 14, -4
 3812              		.cfi_offset 7, -8
 3813              	.LCFI152:
 3814              		.cfi_def_cfa_register 7
 3815 0006 0346     		mov	r3, r0
 3816 0008 FB71     		strb	r3, [r7, #7]
2450:.\Generated_Source\PSoC5/CyLib.c ****         reg32 * enableReg;
ARM GAS  C:\Users\Heiwa\AppData\Local\Temp\ccuYQ69z.s 			page 111


2451:.\Generated_Source\PSoC5/CyLib.c **** 
2452:.\Generated_Source\PSoC5/CyLib.c ****         CYASSERT(number <= CY_INT_NUMBER_MAX);
 3817              		.loc 1 2452 0
 3818 000a FB79     		ldrb	r3, [r7, #7]	@ zero_extendqisi2
 3819 000c 1F2B     		cmp	r3, #31
 3820 000e 07D9     		bls	.L218
 3821 0010 FB79     		ldrb	r3, [r7, #7]	@ zero_extendqisi2
 3822 0012 1F2B     		cmp	r3, #31
 3823 0014 8CBF     		ite	hi
 3824 0016 0023     		movhi	r3, #0
 3825 0018 0123     		movls	r3, #1
 3826 001a 1846     		mov	r0, r3
 3827 001c FFF7FEFF 		bl	CyHalt
 3828              	.L218:
2453:.\Generated_Source\PSoC5/CyLib.c **** 
2454:.\Generated_Source\PSoC5/CyLib.c ****         /* Get a pointer to the Interrupt enable register. */
2455:.\Generated_Source\PSoC5/CyLib.c ****         enableReg = CYINT_ENABLE;
 3829              		.loc 1 2455 0
 3830 0020 4EF20013 		movw	r3, #:lower16:-536813312
 3831 0024 CEF20003 		movt	r3, #:upper16:-536813312
 3832 0028 FB60     		str	r3, [r7, #12]
2456:.\Generated_Source\PSoC5/CyLib.c **** 
2457:.\Generated_Source\PSoC5/CyLib.c ****         /* Enable the interrupt. */
2458:.\Generated_Source\PSoC5/CyLib.c ****         *enableReg = 1 << (0x1F & number);
 3833              		.loc 1 2458 0
 3834 002a FB79     		ldrb	r3, [r7, #7]	@ zero_extendqisi2
 3835 002c 03F01F03 		and	r3, r3, #31
 3836 0030 4FF00102 		mov	r2, #1
 3837 0034 02FA03F3 		lsl	r3, r2, r3
 3838 0038 1A46     		mov	r2, r3
 3839 003a FB68     		ldr	r3, [r7, #12]
 3840 003c 1A60     		str	r2, [r3, #0]
2459:.\Generated_Source\PSoC5/CyLib.c ****     }
 3841              		.loc 1 2459 0
 3842 003e 07F11007 		add	r7, r7, #16
 3843 0042 BD46     		mov	sp, r7
 3844 0044 80BD     		pop	{r7, pc}
 3845              		.cfi_endproc
 3846              	.LFE56:
 3847              		.size	CyIntEnable, .-CyIntEnable
 3848 0046 00BF     		.section	.text.CyIntGetState,"ax",%progbits
 3849              		.align	2
 3850              		.global	CyIntGetState
 3851              		.thumb
 3852              		.thumb_func
 3853              		.type	CyIntGetState, %function
 3854              	CyIntGetState:
 3855              	.LFB57:
2460:.\Generated_Source\PSoC5/CyLib.c **** 
2461:.\Generated_Source\PSoC5/CyLib.c **** 
2462:.\Generated_Source\PSoC5/CyLib.c ****     /*******************************************************************************
2463:.\Generated_Source\PSoC5/CyLib.c ****     * Function Name: CyIntGetState
2464:.\Generated_Source\PSoC5/CyLib.c ****     ********************************************************************************
2465:.\Generated_Source\PSoC5/CyLib.c ****     *
2466:.\Generated_Source\PSoC5/CyLib.c ****     * Summary:
2467:.\Generated_Source\PSoC5/CyLib.c ****     *   Gets the enable state of the specified interrupt number.
2468:.\Generated_Source\PSoC5/CyLib.c ****     *
ARM GAS  C:\Users\Heiwa\AppData\Local\Temp\ccuYQ69z.s 			page 112


2469:.\Generated_Source\PSoC5/CyLib.c ****     * Parameters:
2470:.\Generated_Source\PSoC5/CyLib.c ****     *   number: Valid range [0-31].  Interrupt number.
2471:.\Generated_Source\PSoC5/CyLib.c ****     *
2472:.\Generated_Source\PSoC5/CyLib.c ****     * Return:
2473:.\Generated_Source\PSoC5/CyLib.c ****     *   Enable status: 1 if enabled, 0 if disabled
2474:.\Generated_Source\PSoC5/CyLib.c ****     *
2475:.\Generated_Source\PSoC5/CyLib.c ****     *******************************************************************************/
2476:.\Generated_Source\PSoC5/CyLib.c ****     uint8 CyIntGetState(uint8 number) 
2477:.\Generated_Source\PSoC5/CyLib.c ****     {
 3856              		.loc 1 2477 0
 3857              		.cfi_startproc
 3858              		@ args = 0, pretend = 0, frame = 16
 3859              		@ frame_needed = 1, uses_anonymous_args = 0
 3860 0000 80B5     		push	{r7, lr}
 3861              	.LCFI153:
 3862              		.cfi_def_cfa_offset 8
 3863 0002 84B0     		sub	sp, sp, #16
 3864              	.LCFI154:
 3865              		.cfi_def_cfa_offset 24
 3866 0004 00AF     		add	r7, sp, #0
 3867              		.cfi_offset 14, -4
 3868              		.cfi_offset 7, -8
 3869              	.LCFI155:
 3870              		.cfi_def_cfa_register 7
 3871 0006 0346     		mov	r3, r0
 3872 0008 FB71     		strb	r3, [r7, #7]
2478:.\Generated_Source\PSoC5/CyLib.c ****         reg32 * stateReg;
2479:.\Generated_Source\PSoC5/CyLib.c **** 
2480:.\Generated_Source\PSoC5/CyLib.c ****         CYASSERT(number <= CY_INT_NUMBER_MAX);
 3873              		.loc 1 2480 0
 3874 000a FB79     		ldrb	r3, [r7, #7]	@ zero_extendqisi2
 3875 000c 1F2B     		cmp	r3, #31
 3876 000e 07D9     		bls	.L221
 3877 0010 FB79     		ldrb	r3, [r7, #7]	@ zero_extendqisi2
 3878 0012 1F2B     		cmp	r3, #31
 3879 0014 8CBF     		ite	hi
 3880 0016 0023     		movhi	r3, #0
 3881 0018 0123     		movls	r3, #1
 3882 001a 1846     		mov	r0, r3
 3883 001c FFF7FEFF 		bl	CyHalt
 3884              	.L221:
2481:.\Generated_Source\PSoC5/CyLib.c **** 
2482:.\Generated_Source\PSoC5/CyLib.c ****         /* Get a pointer to the Interrupt enable register. */
2483:.\Generated_Source\PSoC5/CyLib.c ****         stateReg = CYINT_ENABLE;
 3885              		.loc 1 2483 0
 3886 0020 4EF20013 		movw	r3, #:lower16:-536813312
 3887 0024 CEF20003 		movt	r3, #:upper16:-536813312
 3888 0028 FB60     		str	r3, [r7, #12]
2484:.\Generated_Source\PSoC5/CyLib.c **** 
2485:.\Generated_Source\PSoC5/CyLib.c ****         /* Get the state of the interrupt. */
2486:.\Generated_Source\PSoC5/CyLib.c ****         return (*stateReg & (1 << (0x1F & number))) ? 1:0;
 3889              		.loc 1 2486 0
 3890 002a FB68     		ldr	r3, [r7, #12]
 3891 002c 1A68     		ldr	r2, [r3, #0]
 3892 002e FB79     		ldrb	r3, [r7, #7]	@ zero_extendqisi2
 3893 0030 03F01F03 		and	r3, r3, #31
 3894 0034 4FF00101 		mov	r1, #1
ARM GAS  C:\Users\Heiwa\AppData\Local\Temp\ccuYQ69z.s 			page 113


 3895 0038 01FA03F3 		lsl	r3, r1, r3
 3896 003c 02EA0303 		and	r3, r2, r3
 3897 0040 002B     		cmp	r3, #0
 3898 0042 0CBF     		ite	eq
 3899 0044 0023     		moveq	r3, #0
 3900 0046 0123     		movne	r3, #1
2487:.\Generated_Source\PSoC5/CyLib.c ****     }
 3901              		.loc 1 2487 0
 3902 0048 1846     		mov	r0, r3
 3903 004a 07F11007 		add	r7, r7, #16
 3904 004e BD46     		mov	sp, r7
 3905 0050 80BD     		pop	{r7, pc}
 3906              		.cfi_endproc
 3907              	.LFE57:
 3908              		.size	CyIntGetState, .-CyIntGetState
 3909 0052 00BF     		.section	.text.CyIntDisable,"ax",%progbits
 3910              		.align	2
 3911              		.global	CyIntDisable
 3912              		.thumb
 3913              		.thumb_func
 3914              		.type	CyIntDisable, %function
 3915              	CyIntDisable:
 3916              	.LFB58:
2488:.\Generated_Source\PSoC5/CyLib.c **** 
2489:.\Generated_Source\PSoC5/CyLib.c **** 
2490:.\Generated_Source\PSoC5/CyLib.c ****     /*******************************************************************************
2491:.\Generated_Source\PSoC5/CyLib.c ****     * Function Name: CyIntDisable
2492:.\Generated_Source\PSoC5/CyLib.c ****     ********************************************************************************
2493:.\Generated_Source\PSoC5/CyLib.c ****     *
2494:.\Generated_Source\PSoC5/CyLib.c ****     * Summary:
2495:.\Generated_Source\PSoC5/CyLib.c ****     *  Disables the specified interrupt number.
2496:.\Generated_Source\PSoC5/CyLib.c ****     *
2497:.\Generated_Source\PSoC5/CyLib.c ****     * Parameters:
2498:.\Generated_Source\PSoC5/CyLib.c ****     *  number: Valid range [0-31].  Interrupt number.
2499:.\Generated_Source\PSoC5/CyLib.c ****     *
2500:.\Generated_Source\PSoC5/CyLib.c ****     * Return:
2501:.\Generated_Source\PSoC5/CyLib.c ****     *  None
2502:.\Generated_Source\PSoC5/CyLib.c ****     *
2503:.\Generated_Source\PSoC5/CyLib.c ****     *******************************************************************************/
2504:.\Generated_Source\PSoC5/CyLib.c ****     void CyIntDisable(uint8 number) CYREENTRANT
2505:.\Generated_Source\PSoC5/CyLib.c ****     {
 3917              		.loc 1 2505 0
 3918              		.cfi_startproc
 3919              		@ args = 0, pretend = 0, frame = 16
 3920              		@ frame_needed = 1, uses_anonymous_args = 0
 3921 0000 80B5     		push	{r7, lr}
 3922              	.LCFI156:
 3923              		.cfi_def_cfa_offset 8
 3924 0002 84B0     		sub	sp, sp, #16
 3925              	.LCFI157:
 3926              		.cfi_def_cfa_offset 24
 3927 0004 00AF     		add	r7, sp, #0
 3928              		.cfi_offset 14, -4
 3929              		.cfi_offset 7, -8
 3930              	.LCFI158:
 3931              		.cfi_def_cfa_register 7
 3932 0006 0346     		mov	r3, r0
ARM GAS  C:\Users\Heiwa\AppData\Local\Temp\ccuYQ69z.s 			page 114


 3933 0008 FB71     		strb	r3, [r7, #7]
2506:.\Generated_Source\PSoC5/CyLib.c ****         reg32 * clearReg;
2507:.\Generated_Source\PSoC5/CyLib.c **** 
2508:.\Generated_Source\PSoC5/CyLib.c ****         CYASSERT(number <= CY_INT_NUMBER_MAX);
 3934              		.loc 1 2508 0
 3935 000a FB79     		ldrb	r3, [r7, #7]	@ zero_extendqisi2
 3936 000c 1F2B     		cmp	r3, #31
 3937 000e 07D9     		bls	.L224
 3938 0010 FB79     		ldrb	r3, [r7, #7]	@ zero_extendqisi2
 3939 0012 1F2B     		cmp	r3, #31
 3940 0014 8CBF     		ite	hi
 3941 0016 0023     		movhi	r3, #0
 3942 0018 0123     		movls	r3, #1
 3943 001a 1846     		mov	r0, r3
 3944 001c FFF7FEFF 		bl	CyHalt
 3945              	.L224:
2509:.\Generated_Source\PSoC5/CyLib.c **** 
2510:.\Generated_Source\PSoC5/CyLib.c ****         /* Get a pointer to the Interrupt enable register. */
2511:.\Generated_Source\PSoC5/CyLib.c ****         clearReg = CYINT_CLEAR;
 3946              		.loc 1 2511 0
 3947 0020 4EF28013 		movw	r3, #:lower16:-536813184
 3948 0024 CEF20003 		movt	r3, #:upper16:-536813184
 3949 0028 FB60     		str	r3, [r7, #12]
2512:.\Generated_Source\PSoC5/CyLib.c **** 
2513:.\Generated_Source\PSoC5/CyLib.c ****         /* Enable the interrupt. */
2514:.\Generated_Source\PSoC5/CyLib.c ****         *clearReg = 1 << (0x1F & number);
 3950              		.loc 1 2514 0
 3951 002a FB79     		ldrb	r3, [r7, #7]	@ zero_extendqisi2
 3952 002c 03F01F03 		and	r3, r3, #31
 3953 0030 4FF00102 		mov	r2, #1
 3954 0034 02FA03F3 		lsl	r3, r2, r3
 3955 0038 1A46     		mov	r2, r3
 3956 003a FB68     		ldr	r3, [r7, #12]
 3957 003c 1A60     		str	r2, [r3, #0]
2515:.\Generated_Source\PSoC5/CyLib.c ****     }
 3958              		.loc 1 2515 0
 3959 003e 07F11007 		add	r7, r7, #16
 3960 0042 BD46     		mov	sp, r7
 3961 0044 80BD     		pop	{r7, pc}
 3962              		.cfi_endproc
 3963              	.LFE58:
 3964              		.size	CyIntDisable, .-CyIntDisable
 3965 0046 00BF     		.section	.text.CyIntSetPending,"ax",%progbits
 3966              		.align	2
 3967              		.global	CyIntSetPending
 3968              		.thumb
 3969              		.thumb_func
 3970              		.type	CyIntSetPending, %function
 3971              	CyIntSetPending:
 3972              	.LFB59:
2516:.\Generated_Source\PSoC5/CyLib.c **** 
2517:.\Generated_Source\PSoC5/CyLib.c **** 
2518:.\Generated_Source\PSoC5/CyLib.c ****     /*******************************************************************************
2519:.\Generated_Source\PSoC5/CyLib.c ****     * Function Name: CyIntSetPending
2520:.\Generated_Source\PSoC5/CyLib.c ****     ********************************************************************************
2521:.\Generated_Source\PSoC5/CyLib.c ****     *
2522:.\Generated_Source\PSoC5/CyLib.c ****     * Summary:
ARM GAS  C:\Users\Heiwa\AppData\Local\Temp\ccuYQ69z.s 			page 115


2523:.\Generated_Source\PSoC5/CyLib.c ****     *   Forces the specified interrupt number to be pending.
2524:.\Generated_Source\PSoC5/CyLib.c ****     *
2525:.\Generated_Source\PSoC5/CyLib.c ****     * Parameters:
2526:.\Generated_Source\PSoC5/CyLib.c ****     *   number: Valid range [0-31].  Interrupt number.
2527:.\Generated_Source\PSoC5/CyLib.c ****     *
2528:.\Generated_Source\PSoC5/CyLib.c ****     * Return:
2529:.\Generated_Source\PSoC5/CyLib.c ****     *  None
2530:.\Generated_Source\PSoC5/CyLib.c ****     *
2531:.\Generated_Source\PSoC5/CyLib.c ****     *******************************************************************************/
2532:.\Generated_Source\PSoC5/CyLib.c ****     void CyIntSetPending(uint8 number) 
2533:.\Generated_Source\PSoC5/CyLib.c ****     {
 3973              		.loc 1 2533 0
 3974              		.cfi_startproc
 3975              		@ args = 0, pretend = 0, frame = 16
 3976              		@ frame_needed = 1, uses_anonymous_args = 0
 3977 0000 80B5     		push	{r7, lr}
 3978              	.LCFI159:
 3979              		.cfi_def_cfa_offset 8
 3980 0002 84B0     		sub	sp, sp, #16
 3981              	.LCFI160:
 3982              		.cfi_def_cfa_offset 24
 3983 0004 00AF     		add	r7, sp, #0
 3984              		.cfi_offset 14, -4
 3985              		.cfi_offset 7, -8
 3986              	.LCFI161:
 3987              		.cfi_def_cfa_register 7
 3988 0006 0346     		mov	r3, r0
 3989 0008 FB71     		strb	r3, [r7, #7]
2534:.\Generated_Source\PSoC5/CyLib.c ****         reg32 * pendReg;
2535:.\Generated_Source\PSoC5/CyLib.c **** 
2536:.\Generated_Source\PSoC5/CyLib.c ****         CYASSERT(number <= CY_INT_NUMBER_MAX);
 3990              		.loc 1 2536 0
 3991 000a FB79     		ldrb	r3, [r7, #7]	@ zero_extendqisi2
 3992 000c 1F2B     		cmp	r3, #31
 3993 000e 07D9     		bls	.L227
 3994 0010 FB79     		ldrb	r3, [r7, #7]	@ zero_extendqisi2
 3995 0012 1F2B     		cmp	r3, #31
 3996 0014 8CBF     		ite	hi
 3997 0016 0023     		movhi	r3, #0
 3998 0018 0123     		movls	r3, #1
 3999 001a 1846     		mov	r0, r3
 4000 001c FFF7FEFF 		bl	CyHalt
 4001              	.L227:
2537:.\Generated_Source\PSoC5/CyLib.c **** 
2538:.\Generated_Source\PSoC5/CyLib.c ****         /* Get a pointer to the Interrupt set pending register. */
2539:.\Generated_Source\PSoC5/CyLib.c ****         pendReg = CYINT_SET_PEND;
 4002              		.loc 1 2539 0
 4003 0020 4EF20023 		movw	r3, #:lower16:-536813056
 4004 0024 CEF20003 		movt	r3, #:upper16:-536813056
 4005 0028 FB60     		str	r3, [r7, #12]
2540:.\Generated_Source\PSoC5/CyLib.c **** 
2541:.\Generated_Source\PSoC5/CyLib.c ****         /* Pending the interrupt. */
2542:.\Generated_Source\PSoC5/CyLib.c ****         *pendReg = 1 << (0x1F & number);
 4006              		.loc 1 2542 0
 4007 002a FB79     		ldrb	r3, [r7, #7]	@ zero_extendqisi2
 4008 002c 03F01F03 		and	r3, r3, #31
 4009 0030 4FF00102 		mov	r2, #1
ARM GAS  C:\Users\Heiwa\AppData\Local\Temp\ccuYQ69z.s 			page 116


 4010 0034 02FA03F3 		lsl	r3, r2, r3
 4011 0038 1A46     		mov	r2, r3
 4012 003a FB68     		ldr	r3, [r7, #12]
 4013 003c 1A60     		str	r2, [r3, #0]
2543:.\Generated_Source\PSoC5/CyLib.c ****     }
 4014              		.loc 1 2543 0
 4015 003e 07F11007 		add	r7, r7, #16
 4016 0042 BD46     		mov	sp, r7
 4017 0044 80BD     		pop	{r7, pc}
 4018              		.cfi_endproc
 4019              	.LFE59:
 4020              		.size	CyIntSetPending, .-CyIntSetPending
 4021 0046 00BF     		.section	.text.CyIntClearPending,"ax",%progbits
 4022              		.align	2
 4023              		.global	CyIntClearPending
 4024              		.thumb
 4025              		.thumb_func
 4026              		.type	CyIntClearPending, %function
 4027              	CyIntClearPending:
 4028              	.LFB60:
2544:.\Generated_Source\PSoC5/CyLib.c **** 
2545:.\Generated_Source\PSoC5/CyLib.c **** 
2546:.\Generated_Source\PSoC5/CyLib.c ****     /*******************************************************************************
2547:.\Generated_Source\PSoC5/CyLib.c ****     * Function Name: CyIntClearPending
2548:.\Generated_Source\PSoC5/CyLib.c ****     ********************************************************************************
2549:.\Generated_Source\PSoC5/CyLib.c ****     *
2550:.\Generated_Source\PSoC5/CyLib.c ****     * Summary:
2551:.\Generated_Source\PSoC5/CyLib.c ****     *   Clears any pending interrupt for the specified interrupt number.
2552:.\Generated_Source\PSoC5/CyLib.c ****     *
2553:.\Generated_Source\PSoC5/CyLib.c ****     * Parameters:
2554:.\Generated_Source\PSoC5/CyLib.c ****     *   number: Valid range [0-31].  Interrupt number.
2555:.\Generated_Source\PSoC5/CyLib.c ****     *
2556:.\Generated_Source\PSoC5/CyLib.c ****     * Return:
2557:.\Generated_Source\PSoC5/CyLib.c ****     *  None
2558:.\Generated_Source\PSoC5/CyLib.c ****     *
2559:.\Generated_Source\PSoC5/CyLib.c ****     *******************************************************************************/
2560:.\Generated_Source\PSoC5/CyLib.c ****     void CyIntClearPending(uint8 number) 
2561:.\Generated_Source\PSoC5/CyLib.c ****     {
 4029              		.loc 1 2561 0
 4030              		.cfi_startproc
 4031              		@ args = 0, pretend = 0, frame = 16
 4032              		@ frame_needed = 1, uses_anonymous_args = 0
 4033 0000 80B5     		push	{r7, lr}
 4034              	.LCFI162:
 4035              		.cfi_def_cfa_offset 8
 4036 0002 84B0     		sub	sp, sp, #16
 4037              	.LCFI163:
 4038              		.cfi_def_cfa_offset 24
 4039 0004 00AF     		add	r7, sp, #0
 4040              		.cfi_offset 14, -4
 4041              		.cfi_offset 7, -8
 4042              	.LCFI164:
 4043              		.cfi_def_cfa_register 7
 4044 0006 0346     		mov	r3, r0
 4045 0008 FB71     		strb	r3, [r7, #7]
2562:.\Generated_Source\PSoC5/CyLib.c ****         reg32 * pendReg;
2563:.\Generated_Source\PSoC5/CyLib.c **** 
ARM GAS  C:\Users\Heiwa\AppData\Local\Temp\ccuYQ69z.s 			page 117


2564:.\Generated_Source\PSoC5/CyLib.c ****         CYASSERT(number <= CY_INT_NUMBER_MAX);
 4046              		.loc 1 2564 0
 4047 000a FB79     		ldrb	r3, [r7, #7]	@ zero_extendqisi2
 4048 000c 1F2B     		cmp	r3, #31
 4049 000e 07D9     		bls	.L230
 4050 0010 FB79     		ldrb	r3, [r7, #7]	@ zero_extendqisi2
 4051 0012 1F2B     		cmp	r3, #31
 4052 0014 8CBF     		ite	hi
 4053 0016 0023     		movhi	r3, #0
 4054 0018 0123     		movls	r3, #1
 4055 001a 1846     		mov	r0, r3
 4056 001c FFF7FEFF 		bl	CyHalt
 4057              	.L230:
2565:.\Generated_Source\PSoC5/CyLib.c **** 
2566:.\Generated_Source\PSoC5/CyLib.c ****         /* Get a pointer to the Interrupt clear pending register. */
2567:.\Generated_Source\PSoC5/CyLib.c ****         pendReg = CYINT_CLR_PEND;
 4058              		.loc 1 2567 0
 4059 0020 4EF28023 		movw	r3, #:lower16:-536812928
 4060 0024 CEF20003 		movt	r3, #:upper16:-536812928
 4061 0028 FB60     		str	r3, [r7, #12]
2568:.\Generated_Source\PSoC5/CyLib.c **** 
2569:.\Generated_Source\PSoC5/CyLib.c ****         /* Clear the pending interrupt. */
2570:.\Generated_Source\PSoC5/CyLib.c ****         *pendReg = 1 << (0x1F & number);
 4062              		.loc 1 2570 0
 4063 002a FB79     		ldrb	r3, [r7, #7]	@ zero_extendqisi2
 4064 002c 03F01F03 		and	r3, r3, #31
 4065 0030 4FF00102 		mov	r2, #1
 4066 0034 02FA03F3 		lsl	r3, r2, r3
 4067 0038 1A46     		mov	r2, r3
 4068 003a FB68     		ldr	r3, [r7, #12]
 4069 003c 1A60     		str	r2, [r3, #0]
2571:.\Generated_Source\PSoC5/CyLib.c ****     }
 4070              		.loc 1 2571 0
 4071 003e 07F11007 		add	r7, r7, #16
 4072 0042 BD46     		mov	sp, r7
 4073 0044 80BD     		pop	{r7, pc}
 4074              		.cfi_endproc
 4075              	.LFE60:
 4076              		.size	CyIntClearPending, .-CyIntClearPending
 4077 0046 00BF     		.text
 4078              	.Letext0:
 4079              		.section	.debug_loc,"",%progbits
 4080              	.Ldebug_loc0:
 4081              	.LLST0:
 4082 0000 00000000 		.4byte	.LFB0
 4083 0004 02000000 		.4byte	.LCFI0
 4084 0008 0100     		.2byte	0x1
 4085 000a 5D       		.byte	0x5d
 4086 000b 02000000 		.4byte	.LCFI0
 4087 000f 04000000 		.4byte	.LCFI1
 4088 0013 0200     		.2byte	0x2
 4089 0015 7D       		.byte	0x7d
 4090 0016 08       		.sleb128 8
 4091 0017 04000000 		.4byte	.LCFI1
 4092 001b 06000000 		.4byte	.LCFI2
 4093 001f 0200     		.2byte	0x2
 4094 0021 7D       		.byte	0x7d
ARM GAS  C:\Users\Heiwa\AppData\Local\Temp\ccuYQ69z.s 			page 118


 4095 0022 18       		.sleb128 24
 4096 0023 06000000 		.4byte	.LCFI2
 4097 0027 DA000000 		.4byte	.LFE0
 4098 002b 0200     		.2byte	0x2
 4099 002d 77       		.byte	0x77
 4100 002e 18       		.sleb128 24
 4101 002f 00000000 		.4byte	0x0
 4102 0033 00000000 		.4byte	0x0
 4103              	.LLST1:
 4104 0037 00000000 		.4byte	.LFB1
 4105 003b 02000000 		.4byte	.LCFI3
 4106 003f 0100     		.2byte	0x1
 4107 0041 5D       		.byte	0x5d
 4108 0042 02000000 		.4byte	.LCFI3
 4109 0046 04000000 		.4byte	.LCFI4
 4110 004a 0200     		.2byte	0x2
 4111 004c 7D       		.byte	0x7d
 4112 004d 04       		.sleb128 4
 4113 004e 04000000 		.4byte	.LCFI4
 4114 0052 24000000 		.4byte	.LFE1
 4115 0056 0200     		.2byte	0x2
 4116 0058 77       		.byte	0x77
 4117 0059 04       		.sleb128 4
 4118 005a 00000000 		.4byte	0x0
 4119 005e 00000000 		.4byte	0x0
 4120              	.LLST2:
 4121 0062 00000000 		.4byte	.LFB2
 4122 0066 02000000 		.4byte	.LCFI5
 4123 006a 0100     		.2byte	0x1
 4124 006c 5D       		.byte	0x5d
 4125 006d 02000000 		.4byte	.LCFI5
 4126 0071 04000000 		.4byte	.LCFI6
 4127 0075 0200     		.2byte	0x2
 4128 0077 7D       		.byte	0x7d
 4129 0078 08       		.sleb128 8
 4130 0079 04000000 		.4byte	.LCFI6
 4131 007d 06000000 		.4byte	.LCFI7
 4132 0081 0200     		.2byte	0x2
 4133 0083 7D       		.byte	0x7d
 4134 0084 10       		.sleb128 16
 4135 0085 06000000 		.4byte	.LCFI7
 4136 0089 02010000 		.4byte	.LFE2
 4137 008d 0200     		.2byte	0x2
 4138 008f 77       		.byte	0x77
 4139 0090 10       		.sleb128 16
 4140 0091 00000000 		.4byte	0x0
 4141 0095 00000000 		.4byte	0x0
 4142              	.LLST3:
 4143 0099 00000000 		.4byte	.LFB3
 4144 009d 02000000 		.4byte	.LCFI8
 4145 00a1 0100     		.2byte	0x1
 4146 00a3 5D       		.byte	0x5d
 4147 00a4 02000000 		.4byte	.LCFI8
 4148 00a8 04000000 		.4byte	.LCFI9
 4149 00ac 0200     		.2byte	0x2
 4150 00ae 7D       		.byte	0x7d
 4151 00af 08       		.sleb128 8
ARM GAS  C:\Users\Heiwa\AppData\Local\Temp\ccuYQ69z.s 			page 119


 4152 00b0 04000000 		.4byte	.LCFI9
 4153 00b4 06000000 		.4byte	.LCFI10
 4154 00b8 0200     		.2byte	0x2
 4155 00ba 7D       		.byte	0x7d
 4156 00bb 10       		.sleb128 16
 4157 00bc 06000000 		.4byte	.LCFI10
 4158 00c0 7A000000 		.4byte	.LFE3
 4159 00c4 0200     		.2byte	0x2
 4160 00c6 77       		.byte	0x77
 4161 00c7 10       		.sleb128 16
 4162 00c8 00000000 		.4byte	0x0
 4163 00cc 00000000 		.4byte	0x0
 4164              	.LLST4:
 4165 00d0 00000000 		.4byte	.LFB4
 4166 00d4 02000000 		.4byte	.LCFI11
 4167 00d8 0100     		.2byte	0x1
 4168 00da 5D       		.byte	0x5d
 4169 00db 02000000 		.4byte	.LCFI11
 4170 00df 04000000 		.4byte	.LCFI12
 4171 00e3 0200     		.2byte	0x2
 4172 00e5 7D       		.byte	0x7d
 4173 00e6 08       		.sleb128 8
 4174 00e7 04000000 		.4byte	.LCFI12
 4175 00eb 06000000 		.4byte	.LCFI13
 4176 00ef 0200     		.2byte	0x2
 4177 00f1 7D       		.byte	0x7d
 4178 00f2 18       		.sleb128 24
 4179 00f3 06000000 		.4byte	.LCFI13
 4180 00f7 D0000000 		.4byte	.LFE4
 4181 00fb 0200     		.2byte	0x2
 4182 00fd 77       		.byte	0x77
 4183 00fe 18       		.sleb128 24
 4184 00ff 00000000 		.4byte	0x0
 4185 0103 00000000 		.4byte	0x0
 4186              	.LLST5:
 4187 0107 00000000 		.4byte	.LFB5
 4188 010b 02000000 		.4byte	.LCFI14
 4189 010f 0100     		.2byte	0x1
 4190 0111 5D       		.byte	0x5d
 4191 0112 02000000 		.4byte	.LCFI14
 4192 0116 04000000 		.4byte	.LCFI15
 4193 011a 0200     		.2byte	0x2
 4194 011c 7D       		.byte	0x7d
 4195 011d 04       		.sleb128 4
 4196 011e 04000000 		.4byte	.LCFI15
 4197 0122 24000000 		.4byte	.LFE5
 4198 0126 0200     		.2byte	0x2
 4199 0128 77       		.byte	0x77
 4200 0129 04       		.sleb128 4
 4201 012a 00000000 		.4byte	0x0
 4202 012e 00000000 		.4byte	0x0
 4203              	.LLST6:
 4204 0132 00000000 		.4byte	.LFB6
 4205 0136 02000000 		.4byte	.LCFI16
 4206 013a 0100     		.2byte	0x1
 4207 013c 5D       		.byte	0x5d
 4208 013d 02000000 		.4byte	.LCFI16
ARM GAS  C:\Users\Heiwa\AppData\Local\Temp\ccuYQ69z.s 			page 120


 4209 0141 04000000 		.4byte	.LCFI17
 4210 0145 0200     		.2byte	0x2
 4211 0147 7D       		.byte	0x7d
 4212 0148 04       		.sleb128 4
 4213 0149 04000000 		.4byte	.LCFI17
 4214 014d 06000000 		.4byte	.LCFI18
 4215 0151 0200     		.2byte	0x2
 4216 0153 7D       		.byte	0x7d
 4217 0154 10       		.sleb128 16
 4218 0155 06000000 		.4byte	.LCFI18
 4219 0159 74000000 		.4byte	.LFE6
 4220 015d 0200     		.2byte	0x2
 4221 015f 77       		.byte	0x77
 4222 0160 10       		.sleb128 16
 4223 0161 00000000 		.4byte	0x0
 4224 0165 00000000 		.4byte	0x0
 4225              	.LLST7:
 4226 0169 00000000 		.4byte	.LFB7
 4227 016d 02000000 		.4byte	.LCFI19
 4228 0171 0100     		.2byte	0x1
 4229 0173 5D       		.byte	0x5d
 4230 0174 02000000 		.4byte	.LCFI19
 4231 0178 04000000 		.4byte	.LCFI20
 4232 017c 0200     		.2byte	0x2
 4233 017e 7D       		.byte	0x7d
 4234 017f 08       		.sleb128 8
 4235 0180 04000000 		.4byte	.LCFI20
 4236 0184 06000000 		.4byte	.LCFI21
 4237 0188 0200     		.2byte	0x2
 4238 018a 7D       		.byte	0x7d
 4239 018b 18       		.sleb128 24
 4240 018c 06000000 		.4byte	.LCFI21
 4241 0190 2A010000 		.4byte	.LFE7
 4242 0194 0200     		.2byte	0x2
 4243 0196 77       		.byte	0x77
 4244 0197 18       		.sleb128 24
 4245 0198 00000000 		.4byte	0x0
 4246 019c 00000000 		.4byte	0x0
 4247              	.LLST8:
 4248 01a0 00000000 		.4byte	.LFB8
 4249 01a4 02000000 		.4byte	.LCFI22
 4250 01a8 0100     		.2byte	0x1
 4251 01aa 5D       		.byte	0x5d
 4252 01ab 02000000 		.4byte	.LCFI22
 4253 01af 04000000 		.4byte	.LCFI23
 4254 01b3 0200     		.2byte	0x2
 4255 01b5 7D       		.byte	0x7d
 4256 01b6 08       		.sleb128 8
 4257 01b7 04000000 		.4byte	.LCFI23
 4258 01bb 06000000 		.4byte	.LCFI24
 4259 01bf 0200     		.2byte	0x2
 4260 01c1 7D       		.byte	0x7d
 4261 01c2 18       		.sleb128 24
 4262 01c3 06000000 		.4byte	.LCFI24
 4263 01c7 B2010000 		.4byte	.LFE8
 4264 01cb 0200     		.2byte	0x2
 4265 01cd 77       		.byte	0x77
ARM GAS  C:\Users\Heiwa\AppData\Local\Temp\ccuYQ69z.s 			page 121


 4266 01ce 18       		.sleb128 24
 4267 01cf 00000000 		.4byte	0x0
 4268 01d3 00000000 		.4byte	0x0
 4269              	.LLST9:
 4270 01d7 00000000 		.4byte	.LFB9
 4271 01db 02000000 		.4byte	.LCFI25
 4272 01df 0100     		.2byte	0x1
 4273 01e1 5D       		.byte	0x5d
 4274 01e2 02000000 		.4byte	.LCFI25
 4275 01e6 04000000 		.4byte	.LCFI26
 4276 01ea 0200     		.2byte	0x2
 4277 01ec 7D       		.byte	0x7d
 4278 01ed 08       		.sleb128 8
 4279 01ee 04000000 		.4byte	.LCFI26
 4280 01f2 06000000 		.4byte	.LCFI27
 4281 01f6 0200     		.2byte	0x2
 4282 01f8 7D       		.byte	0x7d
 4283 01f9 10       		.sleb128 16
 4284 01fa 06000000 		.4byte	.LCFI27
 4285 01fe B8000000 		.4byte	.LFE9
 4286 0202 0200     		.2byte	0x2
 4287 0204 77       		.byte	0x77
 4288 0205 10       		.sleb128 16
 4289 0206 00000000 		.4byte	0x0
 4290 020a 00000000 		.4byte	0x0
 4291              	.LLST10:
 4292 020e 00000000 		.4byte	.LFB10
 4293 0212 02000000 		.4byte	.LCFI28
 4294 0216 0100     		.2byte	0x1
 4295 0218 5D       		.byte	0x5d
 4296 0219 02000000 		.4byte	.LCFI28
 4297 021d 04000000 		.4byte	.LCFI29
 4298 0221 0200     		.2byte	0x2
 4299 0223 7D       		.byte	0x7d
 4300 0224 04       		.sleb128 4
 4301 0225 04000000 		.4byte	.LCFI29
 4302 0229 26000000 		.4byte	.LFE10
 4303 022d 0200     		.2byte	0x2
 4304 022f 77       		.byte	0x77
 4305 0230 04       		.sleb128 4
 4306 0231 00000000 		.4byte	0x0
 4307 0235 00000000 		.4byte	0x0
 4308              	.LLST11:
 4309 0239 00000000 		.4byte	.LFB11
 4310 023d 02000000 		.4byte	.LCFI30
 4311 0241 0100     		.2byte	0x1
 4312 0243 5D       		.byte	0x5d
 4313 0244 02000000 		.4byte	.LCFI30
 4314 0248 04000000 		.4byte	.LCFI31
 4315 024c 0200     		.2byte	0x2
 4316 024e 7D       		.byte	0x7d
 4317 024f 04       		.sleb128 4
 4318 0250 04000000 		.4byte	.LCFI31
 4319 0254 24000000 		.4byte	.LFE11
 4320 0258 0200     		.2byte	0x2
 4321 025a 77       		.byte	0x77
 4322 025b 04       		.sleb128 4
ARM GAS  C:\Users\Heiwa\AppData\Local\Temp\ccuYQ69z.s 			page 122


 4323 025c 00000000 		.4byte	0x0
 4324 0260 00000000 		.4byte	0x0
 4325              	.LLST12:
 4326 0264 00000000 		.4byte	.LFB12
 4327 0268 02000000 		.4byte	.LCFI32
 4328 026c 0100     		.2byte	0x1
 4329 026e 5D       		.byte	0x5d
 4330 026f 02000000 		.4byte	.LCFI32
 4331 0273 04000000 		.4byte	.LCFI33
 4332 0277 0200     		.2byte	0x2
 4333 0279 7D       		.byte	0x7d
 4334 027a 04       		.sleb128 4
 4335 027b 04000000 		.4byte	.LCFI33
 4336 027f 06000000 		.4byte	.LCFI34
 4337 0283 0200     		.2byte	0x2
 4338 0285 7D       		.byte	0x7d
 4339 0286 18       		.sleb128 24
 4340 0287 06000000 		.4byte	.LCFI34
 4341 028b 70000000 		.4byte	.LFE12
 4342 028f 0200     		.2byte	0x2
 4343 0291 77       		.byte	0x77
 4344 0292 18       		.sleb128 24
 4345 0293 00000000 		.4byte	0x0
 4346 0297 00000000 		.4byte	0x0
 4347              	.LLST13:
 4348 029b 00000000 		.4byte	.LFB13
 4349 029f 02000000 		.4byte	.LCFI35
 4350 02a3 0100     		.2byte	0x1
 4351 02a5 5D       		.byte	0x5d
 4352 02a6 02000000 		.4byte	.LCFI35
 4353 02aa 04000000 		.4byte	.LCFI36
 4354 02ae 0200     		.2byte	0x2
 4355 02b0 7D       		.byte	0x7d
 4356 02b1 04       		.sleb128 4
 4357 02b2 04000000 		.4byte	.LCFI36
 4358 02b6 06000000 		.4byte	.LCFI37
 4359 02ba 0200     		.2byte	0x2
 4360 02bc 7D       		.byte	0x7d
 4361 02bd 10       		.sleb128 16
 4362 02be 06000000 		.4byte	.LCFI37
 4363 02c2 20000000 		.4byte	.LFE13
 4364 02c6 0200     		.2byte	0x2
 4365 02c8 77       		.byte	0x77
 4366 02c9 10       		.sleb128 16
 4367 02ca 00000000 		.4byte	0x0
 4368 02ce 00000000 		.4byte	0x0
 4369              	.LLST14:
 4370 02d2 00000000 		.4byte	.LFB14
 4371 02d6 02000000 		.4byte	.LCFI38
 4372 02da 0100     		.2byte	0x1
 4373 02dc 5D       		.byte	0x5d
 4374 02dd 02000000 		.4byte	.LCFI38
 4375 02e1 04000000 		.4byte	.LCFI39
 4376 02e5 0200     		.2byte	0x2
 4377 02e7 7D       		.byte	0x7d
 4378 02e8 04       		.sleb128 4
 4379 02e9 04000000 		.4byte	.LCFI39
ARM GAS  C:\Users\Heiwa\AppData\Local\Temp\ccuYQ69z.s 			page 123


 4380 02ed 06000000 		.4byte	.LCFI40
 4381 02f1 0200     		.2byte	0x2
 4382 02f3 7D       		.byte	0x7d
 4383 02f4 10       		.sleb128 16
 4384 02f5 06000000 		.4byte	.LCFI40
 4385 02f9 84000000 		.4byte	.LFE14
 4386 02fd 0200     		.2byte	0x2
 4387 02ff 77       		.byte	0x77
 4388 0300 10       		.sleb128 16
 4389 0301 00000000 		.4byte	0x0
 4390 0305 00000000 		.4byte	0x0
 4391              	.LLST15:
 4392 0309 00000000 		.4byte	.LFB15
 4393 030d 02000000 		.4byte	.LCFI41
 4394 0311 0100     		.2byte	0x1
 4395 0313 5D       		.byte	0x5d
 4396 0314 02000000 		.4byte	.LCFI41
 4397 0318 04000000 		.4byte	.LCFI42
 4398 031c 0200     		.2byte	0x2
 4399 031e 7D       		.byte	0x7d
 4400 031f 08       		.sleb128 8
 4401 0320 04000000 		.4byte	.LCFI42
 4402 0324 06000000 		.4byte	.LCFI43
 4403 0328 0200     		.2byte	0x2
 4404 032a 7D       		.byte	0x7d
 4405 032b 18       		.sleb128 24
 4406 032c 06000000 		.4byte	.LCFI43
 4407 0330 A4000000 		.4byte	.LFE15
 4408 0334 0200     		.2byte	0x2
 4409 0336 77       		.byte	0x77
 4410 0337 18       		.sleb128 24
 4411 0338 00000000 		.4byte	0x0
 4412 033c 00000000 		.4byte	0x0
 4413              	.LLST16:
 4414 0340 00000000 		.4byte	.LFB16
 4415 0344 02000000 		.4byte	.LCFI44
 4416 0348 0100     		.2byte	0x1
 4417 034a 5D       		.byte	0x5d
 4418 034b 02000000 		.4byte	.LCFI44
 4419 034f 04000000 		.4byte	.LCFI45
 4420 0353 0200     		.2byte	0x2
 4421 0355 7D       		.byte	0x7d
 4422 0356 04       		.sleb128 4
 4423 0357 04000000 		.4byte	.LCFI45
 4424 035b 06000000 		.4byte	.LCFI46
 4425 035f 0200     		.2byte	0x2
 4426 0361 7D       		.byte	0x7d
 4427 0362 10       		.sleb128 16
 4428 0363 06000000 		.4byte	.LCFI46
 4429 0367 3C000000 		.4byte	.LFE16
 4430 036b 0200     		.2byte	0x2
 4431 036d 77       		.byte	0x77
 4432 036e 10       		.sleb128 16
 4433 036f 00000000 		.4byte	0x0
 4434 0373 00000000 		.4byte	0x0
 4435              	.LLST17:
 4436 0377 00000000 		.4byte	.LFB17
ARM GAS  C:\Users\Heiwa\AppData\Local\Temp\ccuYQ69z.s 			page 124


 4437 037b 02000000 		.4byte	.LCFI47
 4438 037f 0100     		.2byte	0x1
 4439 0381 5D       		.byte	0x5d
 4440 0382 02000000 		.4byte	.LCFI47
 4441 0386 04000000 		.4byte	.LCFI48
 4442 038a 0200     		.2byte	0x2
 4443 038c 7D       		.byte	0x7d
 4444 038d 04       		.sleb128 4
 4445 038e 04000000 		.4byte	.LCFI48
 4446 0392 26000000 		.4byte	.LFE17
 4447 0396 0200     		.2byte	0x2
 4448 0398 77       		.byte	0x77
 4449 0399 04       		.sleb128 4
 4450 039a 00000000 		.4byte	0x0
 4451 039e 00000000 		.4byte	0x0
 4452              	.LLST18:
 4453 03a2 00000000 		.4byte	.LFB18
 4454 03a6 02000000 		.4byte	.LCFI49
 4455 03aa 0100     		.2byte	0x1
 4456 03ac 5D       		.byte	0x5d
 4457 03ad 02000000 		.4byte	.LCFI49
 4458 03b1 04000000 		.4byte	.LCFI50
 4459 03b5 0200     		.2byte	0x2
 4460 03b7 7D       		.byte	0x7d
 4461 03b8 04       		.sleb128 4
 4462 03b9 04000000 		.4byte	.LCFI50
 4463 03bd 24000000 		.4byte	.LFE18
 4464 03c1 0200     		.2byte	0x2
 4465 03c3 77       		.byte	0x77
 4466 03c4 04       		.sleb128 4
 4467 03c5 00000000 		.4byte	0x0
 4468 03c9 00000000 		.4byte	0x0
 4469              	.LLST19:
 4470 03cd 00000000 		.4byte	.LFB19
 4471 03d1 02000000 		.4byte	.LCFI51
 4472 03d5 0100     		.2byte	0x1
 4473 03d7 5D       		.byte	0x5d
 4474 03d8 02000000 		.4byte	.LCFI51
 4475 03dc 04000000 		.4byte	.LCFI52
 4476 03e0 0200     		.2byte	0x2
 4477 03e2 7D       		.byte	0x7d
 4478 03e3 04       		.sleb128 4
 4479 03e4 04000000 		.4byte	.LCFI52
 4480 03e8 26000000 		.4byte	.LFE19
 4481 03ec 0200     		.2byte	0x2
 4482 03ee 77       		.byte	0x77
 4483 03ef 04       		.sleb128 4
 4484 03f0 00000000 		.4byte	0x0
 4485 03f4 00000000 		.4byte	0x0
 4486              	.LLST20:
 4487 03f8 00000000 		.4byte	.LFB20
 4488 03fc 02000000 		.4byte	.LCFI53
 4489 0400 0100     		.2byte	0x1
 4490 0402 5D       		.byte	0x5d
 4491 0403 02000000 		.4byte	.LCFI53
 4492 0407 04000000 		.4byte	.LCFI54
 4493 040b 0200     		.2byte	0x2
ARM GAS  C:\Users\Heiwa\AppData\Local\Temp\ccuYQ69z.s 			page 125


 4494 040d 7D       		.byte	0x7d
 4495 040e 04       		.sleb128 4
 4496 040f 04000000 		.4byte	.LCFI54
 4497 0413 24000000 		.4byte	.LFE20
 4498 0417 0200     		.2byte	0x2
 4499 0419 77       		.byte	0x77
 4500 041a 04       		.sleb128 4
 4501 041b 00000000 		.4byte	0x0
 4502 041f 00000000 		.4byte	0x0
 4503              	.LLST21:
 4504 0423 00000000 		.4byte	.LFB21
 4505 0427 02000000 		.4byte	.LCFI55
 4506 042b 0100     		.2byte	0x1
 4507 042d 5D       		.byte	0x5d
 4508 042e 02000000 		.4byte	.LCFI55
 4509 0432 04000000 		.4byte	.LCFI56
 4510 0436 0200     		.2byte	0x2
 4511 0438 7D       		.byte	0x7d
 4512 0439 04       		.sleb128 4
 4513 043a 04000000 		.4byte	.LCFI56
 4514 043e 26000000 		.4byte	.LFE21
 4515 0442 0200     		.2byte	0x2
 4516 0444 77       		.byte	0x77
 4517 0445 04       		.sleb128 4
 4518 0446 00000000 		.4byte	0x0
 4519 044a 00000000 		.4byte	0x0
 4520              	.LLST22:
 4521 044e 00000000 		.4byte	.LFB22
 4522 0452 02000000 		.4byte	.LCFI57
 4523 0456 0100     		.2byte	0x1
 4524 0458 5D       		.byte	0x5d
 4525 0459 02000000 		.4byte	.LCFI57
 4526 045d 04000000 		.4byte	.LCFI58
 4527 0461 0200     		.2byte	0x2
 4528 0463 7D       		.byte	0x7d
 4529 0464 04       		.sleb128 4
 4530 0465 04000000 		.4byte	.LCFI58
 4531 0469 24000000 		.4byte	.LFE22
 4532 046d 0200     		.2byte	0x2
 4533 046f 77       		.byte	0x77
 4534 0470 04       		.sleb128 4
 4535 0471 00000000 		.4byte	0x0
 4536 0475 00000000 		.4byte	0x0
 4537              	.LLST23:
 4538 0479 00000000 		.4byte	.LFB23
 4539 047d 02000000 		.4byte	.LCFI59
 4540 0481 0100     		.2byte	0x1
 4541 0483 5D       		.byte	0x5d
 4542 0484 02000000 		.4byte	.LCFI59
 4543 0488 04000000 		.4byte	.LCFI60
 4544 048c 0200     		.2byte	0x2
 4545 048e 7D       		.byte	0x7d
 4546 048f 04       		.sleb128 4
 4547 0490 04000000 		.4byte	.LCFI60
 4548 0494 06000000 		.4byte	.LCFI61
 4549 0498 0200     		.2byte	0x2
 4550 049a 7D       		.byte	0x7d
ARM GAS  C:\Users\Heiwa\AppData\Local\Temp\ccuYQ69z.s 			page 126


 4551 049b 10       		.sleb128 16
 4552 049c 06000000 		.4byte	.LCFI61
 4553 04a0 42000000 		.4byte	.LFE23
 4554 04a4 0200     		.2byte	0x2
 4555 04a6 77       		.byte	0x77
 4556 04a7 10       		.sleb128 16
 4557 04a8 00000000 		.4byte	0x0
 4558 04ac 00000000 		.4byte	0x0
 4559              	.LLST24:
 4560 04b0 00000000 		.4byte	.LFB24
 4561 04b4 02000000 		.4byte	.LCFI62
 4562 04b8 0100     		.2byte	0x1
 4563 04ba 5D       		.byte	0x5d
 4564 04bb 02000000 		.4byte	.LCFI62
 4565 04bf 04000000 		.4byte	.LCFI63
 4566 04c3 0200     		.2byte	0x2
 4567 04c5 7D       		.byte	0x7d
 4568 04c6 04       		.sleb128 4
 4569 04c7 04000000 		.4byte	.LCFI63
 4570 04cb 06000000 		.4byte	.LCFI64
 4571 04cf 0200     		.2byte	0x2
 4572 04d1 7D       		.byte	0x7d
 4573 04d2 18       		.sleb128 24
 4574 04d3 06000000 		.4byte	.LCFI64
 4575 04d7 58000000 		.4byte	.LFE24
 4576 04db 0200     		.2byte	0x2
 4577 04dd 77       		.byte	0x77
 4578 04de 18       		.sleb128 24
 4579 04df 00000000 		.4byte	0x0
 4580 04e3 00000000 		.4byte	0x0
 4581              	.LLST25:
 4582 04e7 00000000 		.4byte	.LFB25
 4583 04eb 02000000 		.4byte	.LCFI65
 4584 04ef 0100     		.2byte	0x1
 4585 04f1 5D       		.byte	0x5d
 4586 04f2 02000000 		.4byte	.LCFI65
 4587 04f6 04000000 		.4byte	.LCFI66
 4588 04fa 0200     		.2byte	0x2
 4589 04fc 7D       		.byte	0x7d
 4590 04fd 08       		.sleb128 8
 4591 04fe 04000000 		.4byte	.LCFI66
 4592 0502 06000000 		.4byte	.LCFI67
 4593 0506 0200     		.2byte	0x2
 4594 0508 7D       		.byte	0x7d
 4595 0509 10       		.sleb128 16
 4596 050a 06000000 		.4byte	.LCFI67
 4597 050e 9C000000 		.4byte	.LFE25
 4598 0512 0200     		.2byte	0x2
 4599 0514 77       		.byte	0x77
 4600 0515 10       		.sleb128 16
 4601 0516 00000000 		.4byte	0x0
 4602 051a 00000000 		.4byte	0x0
 4603              	.LLST26:
 4604 051e 00000000 		.4byte	.LFB26
 4605 0522 02000000 		.4byte	.LCFI68
 4606 0526 0100     		.2byte	0x1
 4607 0528 5D       		.byte	0x5d
ARM GAS  C:\Users\Heiwa\AppData\Local\Temp\ccuYQ69z.s 			page 127


 4608 0529 02000000 		.4byte	.LCFI68
 4609 052d 04000000 		.4byte	.LCFI69
 4610 0531 0200     		.2byte	0x2
 4611 0533 7D       		.byte	0x7d
 4612 0534 04       		.sleb128 4
 4613 0535 04000000 		.4byte	.LCFI69
 4614 0539 60000000 		.4byte	.LFE26
 4615 053d 0200     		.2byte	0x2
 4616 053f 77       		.byte	0x77
 4617 0540 04       		.sleb128 4
 4618 0541 00000000 		.4byte	0x0
 4619 0545 00000000 		.4byte	0x0
 4620              	.LLST27:
 4621 0549 00000000 		.4byte	.LFB27
 4622 054d 02000000 		.4byte	.LCFI70
 4623 0551 0100     		.2byte	0x1
 4624 0553 5D       		.byte	0x5d
 4625 0554 02000000 		.4byte	.LCFI70
 4626 0558 04000000 		.4byte	.LCFI71
 4627 055c 0200     		.2byte	0x2
 4628 055e 7D       		.byte	0x7d
 4629 055f 04       		.sleb128 4
 4630 0560 04000000 		.4byte	.LCFI71
 4631 0564 1C000000 		.4byte	.LFE27
 4632 0568 0200     		.2byte	0x2
 4633 056a 77       		.byte	0x77
 4634 056b 04       		.sleb128 4
 4635 056c 00000000 		.4byte	0x0
 4636 0570 00000000 		.4byte	0x0
 4637              	.LLST28:
 4638 0574 00000000 		.4byte	.LFB28
 4639 0578 02000000 		.4byte	.LCFI72
 4640 057c 0100     		.2byte	0x1
 4641 057e 5D       		.byte	0x5d
 4642 057f 02000000 		.4byte	.LCFI72
 4643 0583 04000000 		.4byte	.LCFI73
 4644 0587 0200     		.2byte	0x2
 4645 0589 7D       		.byte	0x7d
 4646 058a 08       		.sleb128 8
 4647 058b 04000000 		.4byte	.LCFI73
 4648 058f 06000000 		.4byte	.LCFI74
 4649 0593 0200     		.2byte	0x2
 4650 0595 7D       		.byte	0x7d
 4651 0596 18       		.sleb128 24
 4652 0597 06000000 		.4byte	.LCFI74
 4653 059b F6000000 		.4byte	.LFE28
 4654 059f 0200     		.2byte	0x2
 4655 05a1 77       		.byte	0x77
 4656 05a2 18       		.sleb128 24
 4657 05a3 00000000 		.4byte	0x0
 4658 05a7 00000000 		.4byte	0x0
 4659              	.LLST29:
 4660 05ab 00000000 		.4byte	.LFB29
 4661 05af 02000000 		.4byte	.LCFI75
 4662 05b3 0100     		.2byte	0x1
 4663 05b5 5D       		.byte	0x5d
 4664 05b6 02000000 		.4byte	.LCFI75
ARM GAS  C:\Users\Heiwa\AppData\Local\Temp\ccuYQ69z.s 			page 128


 4665 05ba 04000000 		.4byte	.LCFI76
 4666 05be 0200     		.2byte	0x2
 4667 05c0 7D       		.byte	0x7d
 4668 05c1 08       		.sleb128 8
 4669 05c2 04000000 		.4byte	.LCFI76
 4670 05c6 06000000 		.4byte	.LCFI77
 4671 05ca 0200     		.2byte	0x2
 4672 05cc 7D       		.byte	0x7d
 4673 05cd 20       		.sleb128 32
 4674 05ce 06000000 		.4byte	.LCFI77
 4675 05d2 E2000000 		.4byte	.LFE29
 4676 05d6 0200     		.2byte	0x2
 4677 05d8 77       		.byte	0x77
 4678 05d9 20       		.sleb128 32
 4679 05da 00000000 		.4byte	0x0
 4680 05de 00000000 		.4byte	0x0
 4681              	.LLST30:
 4682 05e2 00000000 		.4byte	.LFB30
 4683 05e6 02000000 		.4byte	.LCFI78
 4684 05ea 0100     		.2byte	0x1
 4685 05ec 5D       		.byte	0x5d
 4686 05ed 02000000 		.4byte	.LCFI78
 4687 05f1 04000000 		.4byte	.LCFI79
 4688 05f5 0200     		.2byte	0x2
 4689 05f7 7D       		.byte	0x7d
 4690 05f8 04       		.sleb128 4
 4691 05f9 04000000 		.4byte	.LCFI79
 4692 05fd 24000000 		.4byte	.LFE30
 4693 0601 0200     		.2byte	0x2
 4694 0603 77       		.byte	0x77
 4695 0604 04       		.sleb128 4
 4696 0605 00000000 		.4byte	0x0
 4697 0609 00000000 		.4byte	0x0
 4698              	.LLST31:
 4699 060d 00000000 		.4byte	.LFB31
 4700 0611 02000000 		.4byte	.LCFI80
 4701 0615 0100     		.2byte	0x1
 4702 0617 5D       		.byte	0x5d
 4703 0618 02000000 		.4byte	.LCFI80
 4704 061c 04000000 		.4byte	.LCFI81
 4705 0620 0200     		.2byte	0x2
 4706 0622 7D       		.byte	0x7d
 4707 0623 04       		.sleb128 4
 4708 0624 04000000 		.4byte	.LCFI81
 4709 0628 06000000 		.4byte	.LCFI82
 4710 062c 0200     		.2byte	0x2
 4711 062e 7D       		.byte	0x7d
 4712 062f 10       		.sleb128 16
 4713 0630 06000000 		.4byte	.LCFI82
 4714 0634 3C000000 		.4byte	.LFE31
 4715 0638 0200     		.2byte	0x2
 4716 063a 77       		.byte	0x77
 4717 063b 10       		.sleb128 16
 4718 063c 00000000 		.4byte	0x0
 4719 0640 00000000 		.4byte	0x0
 4720              	.LLST32:
 4721 0644 00000000 		.4byte	.LFB32
ARM GAS  C:\Users\Heiwa\AppData\Local\Temp\ccuYQ69z.s 			page 129


 4722 0648 02000000 		.4byte	.LCFI83
 4723 064c 0100     		.2byte	0x1
 4724 064e 5D       		.byte	0x5d
 4725 064f 02000000 		.4byte	.LCFI83
 4726 0653 04000000 		.4byte	.LCFI84
 4727 0657 0200     		.2byte	0x2
 4728 0659 7D       		.byte	0x7d
 4729 065a 04       		.sleb128 4
 4730 065b 04000000 		.4byte	.LCFI84
 4731 065f 06000000 		.4byte	.LCFI85
 4732 0663 0200     		.2byte	0x2
 4733 0665 7D       		.byte	0x7d
 4734 0666 10       		.sleb128 16
 4735 0667 06000000 		.4byte	.LCFI85
 4736 066b 16000000 		.4byte	.LFE32
 4737 066f 0200     		.2byte	0x2
 4738 0671 77       		.byte	0x77
 4739 0672 10       		.sleb128 16
 4740 0673 00000000 		.4byte	0x0
 4741 0677 00000000 		.4byte	0x0
 4742              	.LLST33:
 4743 067b 00000000 		.4byte	.LFB33
 4744 067f 02000000 		.4byte	.LCFI86
 4745 0683 0100     		.2byte	0x1
 4746 0685 5D       		.byte	0x5d
 4747 0686 02000000 		.4byte	.LCFI86
 4748 068a 04000000 		.4byte	.LCFI87
 4749 068e 0200     		.2byte	0x2
 4750 0690 7D       		.byte	0x7d
 4751 0691 04       		.sleb128 4
 4752 0692 04000000 		.4byte	.LCFI87
 4753 0696 18000000 		.4byte	.LFE33
 4754 069a 0200     		.2byte	0x2
 4755 069c 77       		.byte	0x77
 4756 069d 04       		.sleb128 4
 4757 069e 00000000 		.4byte	0x0
 4758 06a2 00000000 		.4byte	0x0
 4759              	.LLST34:
 4760 06a6 00000000 		.4byte	.LFB34
 4761 06aa 02000000 		.4byte	.LCFI88
 4762 06ae 0100     		.2byte	0x1
 4763 06b0 5D       		.byte	0x5d
 4764 06b1 02000000 		.4byte	.LCFI88
 4765 06b5 04000000 		.4byte	.LCFI89
 4766 06b9 0200     		.2byte	0x2
 4767 06bb 7D       		.byte	0x7d
 4768 06bc 08       		.sleb128 8
 4769 06bd 04000000 		.4byte	.LCFI89
 4770 06c1 06000000 		.4byte	.LCFI90
 4771 06c5 0200     		.2byte	0x2
 4772 06c7 7D       		.byte	0x7d
 4773 06c8 10       		.sleb128 16
 4774 06c9 06000000 		.4byte	.LCFI90
 4775 06cd 48000000 		.4byte	.LFE34
 4776 06d1 0200     		.2byte	0x2
 4777 06d3 77       		.byte	0x77
 4778 06d4 10       		.sleb128 16
ARM GAS  C:\Users\Heiwa\AppData\Local\Temp\ccuYQ69z.s 			page 130


 4779 06d5 00000000 		.4byte	0x0
 4780 06d9 00000000 		.4byte	0x0
 4781              	.LLST35:
 4782 06dd 00000000 		.4byte	.LFB35
 4783 06e1 02000000 		.4byte	.LCFI91
 4784 06e5 0100     		.2byte	0x1
 4785 06e7 5D       		.byte	0x5d
 4786 06e8 02000000 		.4byte	.LCFI91
 4787 06ec 04000000 		.4byte	.LCFI92
 4788 06f0 0200     		.2byte	0x2
 4789 06f2 7D       		.byte	0x7d
 4790 06f3 08       		.sleb128 8
 4791 06f4 04000000 		.4byte	.LCFI92
 4792 06f8 06000000 		.4byte	.LCFI93
 4793 06fc 0200     		.2byte	0x2
 4794 06fe 7D       		.byte	0x7d
 4795 06ff 10       		.sleb128 16
 4796 0700 06000000 		.4byte	.LCFI93
 4797 0704 28000000 		.4byte	.LFE35
 4798 0708 0200     		.2byte	0x2
 4799 070a 77       		.byte	0x77
 4800 070b 10       		.sleb128 16
 4801 070c 00000000 		.4byte	0x0
 4802 0710 00000000 		.4byte	0x0
 4803              	.LLST36:
 4804 0714 00000000 		.4byte	.LFB36
 4805 0718 02000000 		.4byte	.LCFI94
 4806 071c 0100     		.2byte	0x1
 4807 071e 5D       		.byte	0x5d
 4808 071f 02000000 		.4byte	.LCFI94
 4809 0723 04000000 		.4byte	.LCFI95
 4810 0727 0200     		.2byte	0x2
 4811 0729 7D       		.byte	0x7d
 4812 072a 04       		.sleb128 4
 4813 072b 04000000 		.4byte	.LCFI95
 4814 072f 06000000 		.4byte	.LCFI96
 4815 0733 0200     		.2byte	0x2
 4816 0735 7D       		.byte	0x7d
 4817 0736 10       		.sleb128 16
 4818 0737 06000000 		.4byte	.LCFI96
 4819 073b AC000000 		.4byte	.LFE36
 4820 073f 0200     		.2byte	0x2
 4821 0741 77       		.byte	0x77
 4822 0742 10       		.sleb128 16
 4823 0743 00000000 		.4byte	0x0
 4824 0747 00000000 		.4byte	0x0
 4825              	.LLST37:
 4826 074b 00000000 		.4byte	.LFB37
 4827 074f 02000000 		.4byte	.LCFI97
 4828 0753 0100     		.2byte	0x1
 4829 0755 5D       		.byte	0x5d
 4830 0756 02000000 		.4byte	.LCFI97
 4831 075a 04000000 		.4byte	.LCFI98
 4832 075e 0200     		.2byte	0x2
 4833 0760 7D       		.byte	0x7d
 4834 0761 08       		.sleb128 8
 4835 0762 04000000 		.4byte	.LCFI98
ARM GAS  C:\Users\Heiwa\AppData\Local\Temp\ccuYQ69z.s 			page 131


 4836 0766 06000000 		.4byte	.LCFI99
 4837 076a 0200     		.2byte	0x2
 4838 076c 7D       		.byte	0x7d
 4839 076d 10       		.sleb128 16
 4840 076e 06000000 		.4byte	.LCFI99
 4841 0772 98000000 		.4byte	.LFE37
 4842 0776 0200     		.2byte	0x2
 4843 0778 77       		.byte	0x77
 4844 0779 10       		.sleb128 16
 4845 077a 00000000 		.4byte	0x0
 4846 077e 00000000 		.4byte	0x0
 4847              	.LLST38:
 4848 0782 00000000 		.4byte	.LFB38
 4849 0786 02000000 		.4byte	.LCFI100
 4850 078a 0100     		.2byte	0x1
 4851 078c 5D       		.byte	0x5d
 4852 078d 02000000 		.4byte	.LCFI100
 4853 0791 04000000 		.4byte	.LCFI101
 4854 0795 0200     		.2byte	0x2
 4855 0797 7D       		.byte	0x7d
 4856 0798 04       		.sleb128 4
 4857 0799 04000000 		.4byte	.LCFI101
 4858 079d 06000000 		.4byte	.LCFI102
 4859 07a1 0200     		.2byte	0x2
 4860 07a3 7D       		.byte	0x7d
 4861 07a4 10       		.sleb128 16
 4862 07a5 06000000 		.4byte	.LCFI102
 4863 07a9 44000000 		.4byte	.LFE38
 4864 07ad 0200     		.2byte	0x2
 4865 07af 77       		.byte	0x77
 4866 07b0 10       		.sleb128 16
 4867 07b1 00000000 		.4byte	0x0
 4868 07b5 00000000 		.4byte	0x0
 4869              	.LLST39:
 4870 07b9 00000000 		.4byte	.LFB39
 4871 07bd 02000000 		.4byte	.LCFI103
 4872 07c1 0100     		.2byte	0x1
 4873 07c3 5D       		.byte	0x5d
 4874 07c4 02000000 		.4byte	.LCFI103
 4875 07c8 04000000 		.4byte	.LCFI104
 4876 07cc 0200     		.2byte	0x2
 4877 07ce 7D       		.byte	0x7d
 4878 07cf 08       		.sleb128 8
 4879 07d0 04000000 		.4byte	.LCFI104
 4880 07d4 06000000 		.4byte	.LCFI105
 4881 07d8 0200     		.2byte	0x2
 4882 07da 7D       		.byte	0x7d
 4883 07db 10       		.sleb128 16
 4884 07dc 06000000 		.4byte	.LCFI105
 4885 07e0 B2000000 		.4byte	.LFE39
 4886 07e4 0200     		.2byte	0x2
 4887 07e6 77       		.byte	0x77
 4888 07e7 10       		.sleb128 16
 4889 07e8 00000000 		.4byte	0x0
 4890 07ec 00000000 		.4byte	0x0
 4891              	.LLST40:
 4892 07f0 00000000 		.4byte	.LFB40
ARM GAS  C:\Users\Heiwa\AppData\Local\Temp\ccuYQ69z.s 			page 132


 4893 07f4 02000000 		.4byte	.LCFI106
 4894 07f8 0100     		.2byte	0x1
 4895 07fa 5D       		.byte	0x5d
 4896 07fb 02000000 		.4byte	.LCFI106
 4897 07ff 04000000 		.4byte	.LCFI107
 4898 0803 0200     		.2byte	0x2
 4899 0805 7D       		.byte	0x7d
 4900 0806 08       		.sleb128 8
 4901 0807 04000000 		.4byte	.LCFI107
 4902 080b 06000000 		.4byte	.LCFI108
 4903 080f 0200     		.2byte	0x2
 4904 0811 7D       		.byte	0x7d
 4905 0812 10       		.sleb128 16
 4906 0813 06000000 		.4byte	.LCFI108
 4907 0817 B8000000 		.4byte	.LFE40
 4908 081b 0200     		.2byte	0x2
 4909 081d 77       		.byte	0x77
 4910 081e 10       		.sleb128 16
 4911 081f 00000000 		.4byte	0x0
 4912 0823 00000000 		.4byte	0x0
 4913              	.LLST41:
 4914 0827 00000000 		.4byte	.LFB41
 4915 082b 02000000 		.4byte	.LCFI109
 4916 082f 0100     		.2byte	0x1
 4917 0831 5D       		.byte	0x5d
 4918 0832 02000000 		.4byte	.LCFI109
 4919 0836 04000000 		.4byte	.LCFI110
 4920 083a 0200     		.2byte	0x2
 4921 083c 7D       		.byte	0x7d
 4922 083d 04       		.sleb128 4
 4923 083e 04000000 		.4byte	.LCFI110
 4924 0842 38000000 		.4byte	.LFE41
 4925 0846 0200     		.2byte	0x2
 4926 0848 77       		.byte	0x77
 4927 0849 04       		.sleb128 4
 4928 084a 00000000 		.4byte	0x0
 4929 084e 00000000 		.4byte	0x0
 4930              	.LLST42:
 4931 0852 00000000 		.4byte	.LFB42
 4932 0856 02000000 		.4byte	.LCFI111
 4933 085a 0100     		.2byte	0x1
 4934 085c 5D       		.byte	0x5d
 4935 085d 02000000 		.4byte	.LCFI111
 4936 0861 04000000 		.4byte	.LCFI112
 4937 0865 0200     		.2byte	0x2
 4938 0867 7D       		.byte	0x7d
 4939 0868 04       		.sleb128 4
 4940 0869 04000000 		.4byte	.LCFI112
 4941 086d 38000000 		.4byte	.LFE42
 4942 0871 0200     		.2byte	0x2
 4943 0873 77       		.byte	0x77
 4944 0874 04       		.sleb128 4
 4945 0875 00000000 		.4byte	0x0
 4946 0879 00000000 		.4byte	0x0
 4947              	.LLST43:
 4948 087d 00000000 		.4byte	.LFB43
 4949 0881 02000000 		.4byte	.LCFI113
ARM GAS  C:\Users\Heiwa\AppData\Local\Temp\ccuYQ69z.s 			page 133


 4950 0885 0100     		.2byte	0x1
 4951 0887 5D       		.byte	0x5d
 4952 0888 02000000 		.4byte	.LCFI113
 4953 088c 04000000 		.4byte	.LCFI114
 4954 0890 0200     		.2byte	0x2
 4955 0892 7D       		.byte	0x7d
 4956 0893 08       		.sleb128 8
 4957 0894 04000000 		.4byte	.LCFI114
 4958 0898 7C000000 		.4byte	.LFE43
 4959 089c 0200     		.2byte	0x2
 4960 089e 77       		.byte	0x77
 4961 089f 08       		.sleb128 8
 4962 08a0 00000000 		.4byte	0x0
 4963 08a4 00000000 		.4byte	0x0
 4964              	.LLST44:
 4965 08a8 00000000 		.4byte	.LFB44
 4966 08ac 02000000 		.4byte	.LCFI115
 4967 08b0 0100     		.2byte	0x1
 4968 08b2 5D       		.byte	0x5d
 4969 08b3 02000000 		.4byte	.LCFI115
 4970 08b7 04000000 		.4byte	.LCFI116
 4971 08bb 0200     		.2byte	0x2
 4972 08bd 7D       		.byte	0x7d
 4973 08be 04       		.sleb128 4
 4974 08bf 04000000 		.4byte	.LCFI116
 4975 08c3 24000000 		.4byte	.LFE44
 4976 08c7 0200     		.2byte	0x2
 4977 08c9 77       		.byte	0x77
 4978 08ca 04       		.sleb128 4
 4979 08cb 00000000 		.4byte	0x0
 4980 08cf 00000000 		.4byte	0x0
 4981              	.LLST45:
 4982 08d3 00000000 		.4byte	.LFB45
 4983 08d7 02000000 		.4byte	.LCFI117
 4984 08db 0100     		.2byte	0x1
 4985 08dd 5D       		.byte	0x5d
 4986 08de 02000000 		.4byte	.LCFI117
 4987 08e2 04000000 		.4byte	.LCFI118
 4988 08e6 0200     		.2byte	0x2
 4989 08e8 7D       		.byte	0x7d
 4990 08e9 04       		.sleb128 4
 4991 08ea 04000000 		.4byte	.LCFI118
 4992 08ee 06000000 		.4byte	.LCFI119
 4993 08f2 0200     		.2byte	0x2
 4994 08f4 7D       		.byte	0x7d
 4995 08f5 18       		.sleb128 24
 4996 08f6 06000000 		.4byte	.LCFI119
 4997 08fa 4C000000 		.4byte	.LFE45
 4998 08fe 0200     		.2byte	0x2
 4999 0900 77       		.byte	0x77
 5000 0901 18       		.sleb128 24
 5001 0902 00000000 		.4byte	0x0
 5002 0906 00000000 		.4byte	0x0
 5003              	.LLST46:
 5004 090a 00000000 		.4byte	.LFB46
 5005 090e 02000000 		.4byte	.LCFI120
 5006 0912 0100     		.2byte	0x1
ARM GAS  C:\Users\Heiwa\AppData\Local\Temp\ccuYQ69z.s 			page 134


 5007 0914 5D       		.byte	0x5d
 5008 0915 02000000 		.4byte	.LCFI120
 5009 0919 04000000 		.4byte	.LCFI121
 5010 091d 0200     		.2byte	0x2
 5011 091f 7D       		.byte	0x7d
 5012 0920 08       		.sleb128 8
 5013 0921 04000000 		.4byte	.LCFI121
 5014 0925 06000000 		.4byte	.LCFI122
 5015 0929 0200     		.2byte	0x2
 5016 092b 7D       		.byte	0x7d
 5017 092c 10       		.sleb128 16
 5018 092d 06000000 		.4byte	.LCFI122
 5019 0931 2E000000 		.4byte	.LFE46
 5020 0935 0200     		.2byte	0x2
 5021 0937 77       		.byte	0x77
 5022 0938 10       		.sleb128 16
 5023 0939 00000000 		.4byte	0x0
 5024 093d 00000000 		.4byte	0x0
 5025              	.LLST47:
 5026 0941 00000000 		.4byte	.LFB47
 5027 0945 02000000 		.4byte	.LCFI123
 5028 0949 0100     		.2byte	0x1
 5029 094b 5D       		.byte	0x5d
 5030 094c 02000000 		.4byte	.LCFI123
 5031 0950 04000000 		.4byte	.LCFI124
 5032 0954 0200     		.2byte	0x2
 5033 0956 7D       		.byte	0x7d
 5034 0957 04       		.sleb128 4
 5035 0958 04000000 		.4byte	.LCFI124
 5036 095c 06000000 		.4byte	.LCFI125
 5037 0960 0200     		.2byte	0x2
 5038 0962 7D       		.byte	0x7d
 5039 0963 10       		.sleb128 16
 5040 0964 06000000 		.4byte	.LCFI125
 5041 0968 2E000000 		.4byte	.LFE47
 5042 096c 0200     		.2byte	0x2
 5043 096e 77       		.byte	0x77
 5044 096f 10       		.sleb128 16
 5045 0970 00000000 		.4byte	0x0
 5046 0974 00000000 		.4byte	0x0
 5047              	.LLST48:
 5048 0978 00000000 		.4byte	.LFB48
 5049 097c 02000000 		.4byte	.LCFI126
 5050 0980 0100     		.2byte	0x1
 5051 0982 5D       		.byte	0x5d
 5052 0983 02000000 		.4byte	.LCFI126
 5053 0987 04000000 		.4byte	.LCFI127
 5054 098b 0200     		.2byte	0x2
 5055 098d 7D       		.byte	0x7d
 5056 098e 04       		.sleb128 4
 5057 098f 04000000 		.4byte	.LCFI127
 5058 0993 06000000 		.4byte	.LCFI128
 5059 0997 0200     		.2byte	0x2
 5060 0999 7D       		.byte	0x7d
 5061 099a 10       		.sleb128 16
 5062 099b 06000000 		.4byte	.LCFI128
 5063 099f 1E000000 		.4byte	.LFE48
ARM GAS  C:\Users\Heiwa\AppData\Local\Temp\ccuYQ69z.s 			page 135


 5064 09a3 0200     		.2byte	0x2
 5065 09a5 77       		.byte	0x77
 5066 09a6 10       		.sleb128 16
 5067 09a7 00000000 		.4byte	0x0
 5068 09ab 00000000 		.4byte	0x0
 5069              	.LLST49:
 5070 09af 00000000 		.4byte	.LFB49
 5071 09b3 02000000 		.4byte	.LCFI129
 5072 09b7 0100     		.2byte	0x1
 5073 09b9 5D       		.byte	0x5d
 5074 09ba 02000000 		.4byte	.LCFI129
 5075 09be 04000000 		.4byte	.LCFI130
 5076 09c2 0200     		.2byte	0x2
 5077 09c4 7D       		.byte	0x7d
 5078 09c5 04       		.sleb128 4
 5079 09c6 04000000 		.4byte	.LCFI130
 5080 09ca 06000000 		.4byte	.LCFI131
 5081 09ce 0200     		.2byte	0x2
 5082 09d0 7D       		.byte	0x7d
 5083 09d1 10       		.sleb128 16
 5084 09d2 06000000 		.4byte	.LCFI131
 5085 09d6 38000000 		.4byte	.LFE49
 5086 09da 0200     		.2byte	0x2
 5087 09dc 77       		.byte	0x77
 5088 09dd 10       		.sleb128 16
 5089 09de 00000000 		.4byte	0x0
 5090 09e2 00000000 		.4byte	0x0
 5091              	.LLST50:
 5092 09e6 00000000 		.4byte	.LFB50
 5093 09ea 02000000 		.4byte	.LCFI132
 5094 09ee 0100     		.2byte	0x1
 5095 09f0 5D       		.byte	0x5d
 5096 09f1 02000000 		.4byte	.LCFI132
 5097 09f5 04000000 		.4byte	.LCFI133
 5098 09f9 0200     		.2byte	0x2
 5099 09fb 7D       		.byte	0x7d
 5100 09fc 08       		.sleb128 8
 5101 09fd 04000000 		.4byte	.LCFI133
 5102 0a01 06000000 		.4byte	.LCFI134
 5103 0a05 0200     		.2byte	0x2
 5104 0a07 7D       		.byte	0x7d
 5105 0a08 18       		.sleb128 24
 5106 0a09 06000000 		.4byte	.LCFI134
 5107 0a0d 5E000000 		.4byte	.LFE50
 5108 0a11 0200     		.2byte	0x2
 5109 0a13 77       		.byte	0x77
 5110 0a14 18       		.sleb128 24
 5111 0a15 00000000 		.4byte	0x0
 5112 0a19 00000000 		.4byte	0x0
 5113              	.LLST51:
 5114 0a1d 00000000 		.4byte	.LFB51
 5115 0a21 02000000 		.4byte	.LCFI135
 5116 0a25 0100     		.2byte	0x1
 5117 0a27 5D       		.byte	0x5d
 5118 0a28 02000000 		.4byte	.LCFI135
 5119 0a2c 04000000 		.4byte	.LCFI136
 5120 0a30 0200     		.2byte	0x2
ARM GAS  C:\Users\Heiwa\AppData\Local\Temp\ccuYQ69z.s 			page 136


 5121 0a32 7D       		.byte	0x7d
 5122 0a33 08       		.sleb128 8
 5123 0a34 04000000 		.4byte	.LCFI136
 5124 0a38 06000000 		.4byte	.LCFI137
 5125 0a3c 0200     		.2byte	0x2
 5126 0a3e 7D       		.byte	0x7d
 5127 0a3f 18       		.sleb128 24
 5128 0a40 06000000 		.4byte	.LCFI137
 5129 0a44 46000000 		.4byte	.LFE51
 5130 0a48 0200     		.2byte	0x2
 5131 0a4a 77       		.byte	0x77
 5132 0a4b 18       		.sleb128 24
 5133 0a4c 00000000 		.4byte	0x0
 5134 0a50 00000000 		.4byte	0x0
 5135              	.LLST52:
 5136 0a54 00000000 		.4byte	.LFB52
 5137 0a58 02000000 		.4byte	.LCFI138
 5138 0a5c 0100     		.2byte	0x1
 5139 0a5e 5D       		.byte	0x5d
 5140 0a5f 02000000 		.4byte	.LCFI138
 5141 0a63 04000000 		.4byte	.LCFI139
 5142 0a67 0200     		.2byte	0x2
 5143 0a69 7D       		.byte	0x7d
 5144 0a6a 08       		.sleb128 8
 5145 0a6b 04000000 		.4byte	.LCFI139
 5146 0a6f 06000000 		.4byte	.LCFI140
 5147 0a73 0200     		.2byte	0x2
 5148 0a75 7D       		.byte	0x7d
 5149 0a76 18       		.sleb128 24
 5150 0a77 06000000 		.4byte	.LCFI140
 5151 0a7b 66000000 		.4byte	.LFE52
 5152 0a7f 0200     		.2byte	0x2
 5153 0a81 77       		.byte	0x77
 5154 0a82 18       		.sleb128 24
 5155 0a83 00000000 		.4byte	0x0
 5156 0a87 00000000 		.4byte	0x0
 5157              	.LLST53:
 5158 0a8b 00000000 		.4byte	.LFB53
 5159 0a8f 02000000 		.4byte	.LCFI141
 5160 0a93 0100     		.2byte	0x1
 5161 0a95 5D       		.byte	0x5d
 5162 0a96 02000000 		.4byte	.LCFI141
 5163 0a9a 04000000 		.4byte	.LCFI142
 5164 0a9e 0200     		.2byte	0x2
 5165 0aa0 7D       		.byte	0x7d
 5166 0aa1 08       		.sleb128 8
 5167 0aa2 04000000 		.4byte	.LCFI142
 5168 0aa6 06000000 		.4byte	.LCFI143
 5169 0aaa 0200     		.2byte	0x2
 5170 0aac 7D       		.byte	0x7d
 5171 0aad 18       		.sleb128 24
 5172 0aae 06000000 		.4byte	.LCFI143
 5173 0ab2 4A000000 		.4byte	.LFE53
 5174 0ab6 0200     		.2byte	0x2
 5175 0ab8 77       		.byte	0x77
 5176 0ab9 18       		.sleb128 24
 5177 0aba 00000000 		.4byte	0x0
ARM GAS  C:\Users\Heiwa\AppData\Local\Temp\ccuYQ69z.s 			page 137


 5178 0abe 00000000 		.4byte	0x0
 5179              	.LLST54:
 5180 0ac2 00000000 		.4byte	.LFB54
 5181 0ac6 02000000 		.4byte	.LCFI144
 5182 0aca 0100     		.2byte	0x1
 5183 0acc 5D       		.byte	0x5d
 5184 0acd 02000000 		.4byte	.LCFI144
 5185 0ad1 04000000 		.4byte	.LCFI145
 5186 0ad5 0200     		.2byte	0x2
 5187 0ad7 7D       		.byte	0x7d
 5188 0ad8 08       		.sleb128 8
 5189 0ad9 04000000 		.4byte	.LCFI145
 5190 0add 06000000 		.4byte	.LCFI146
 5191 0ae1 0200     		.2byte	0x2
 5192 0ae3 7D       		.byte	0x7d
 5193 0ae4 10       		.sleb128 16
 5194 0ae5 06000000 		.4byte	.LCFI146
 5195 0ae9 5A000000 		.4byte	.LFE54
 5196 0aed 0200     		.2byte	0x2
 5197 0aef 77       		.byte	0x77
 5198 0af0 10       		.sleb128 16
 5199 0af1 00000000 		.4byte	0x0
 5200 0af5 00000000 		.4byte	0x0
 5201              	.LLST55:
 5202 0af9 00000000 		.4byte	.LFB55
 5203 0afd 02000000 		.4byte	.LCFI147
 5204 0b01 0100     		.2byte	0x1
 5205 0b03 5D       		.byte	0x5d
 5206 0b04 02000000 		.4byte	.LCFI147
 5207 0b08 04000000 		.4byte	.LCFI148
 5208 0b0c 0200     		.2byte	0x2
 5209 0b0e 7D       		.byte	0x7d
 5210 0b0f 08       		.sleb128 8
 5211 0b10 04000000 		.4byte	.LCFI148
 5212 0b14 06000000 		.4byte	.LCFI149
 5213 0b18 0200     		.2byte	0x2
 5214 0b1a 7D       		.byte	0x7d
 5215 0b1b 18       		.sleb128 24
 5216 0b1c 06000000 		.4byte	.LCFI149
 5217 0b20 44000000 		.4byte	.LFE55
 5218 0b24 0200     		.2byte	0x2
 5219 0b26 77       		.byte	0x77
 5220 0b27 18       		.sleb128 24
 5221 0b28 00000000 		.4byte	0x0
 5222 0b2c 00000000 		.4byte	0x0
 5223              	.LLST56:
 5224 0b30 00000000 		.4byte	.LFB56
 5225 0b34 02000000 		.4byte	.LCFI150
 5226 0b38 0100     		.2byte	0x1
 5227 0b3a 5D       		.byte	0x5d
 5228 0b3b 02000000 		.4byte	.LCFI150
 5229 0b3f 04000000 		.4byte	.LCFI151
 5230 0b43 0200     		.2byte	0x2
 5231 0b45 7D       		.byte	0x7d
 5232 0b46 08       		.sleb128 8
 5233 0b47 04000000 		.4byte	.LCFI151
 5234 0b4b 06000000 		.4byte	.LCFI152
ARM GAS  C:\Users\Heiwa\AppData\Local\Temp\ccuYQ69z.s 			page 138


 5235 0b4f 0200     		.2byte	0x2
 5236 0b51 7D       		.byte	0x7d
 5237 0b52 18       		.sleb128 24
 5238 0b53 06000000 		.4byte	.LCFI152
 5239 0b57 46000000 		.4byte	.LFE56
 5240 0b5b 0200     		.2byte	0x2
 5241 0b5d 77       		.byte	0x77
 5242 0b5e 18       		.sleb128 24
 5243 0b5f 00000000 		.4byte	0x0
 5244 0b63 00000000 		.4byte	0x0
 5245              	.LLST57:
 5246 0b67 00000000 		.4byte	.LFB57
 5247 0b6b 02000000 		.4byte	.LCFI153
 5248 0b6f 0100     		.2byte	0x1
 5249 0b71 5D       		.byte	0x5d
 5250 0b72 02000000 		.4byte	.LCFI153
 5251 0b76 04000000 		.4byte	.LCFI154
 5252 0b7a 0200     		.2byte	0x2
 5253 0b7c 7D       		.byte	0x7d
 5254 0b7d 08       		.sleb128 8
 5255 0b7e 04000000 		.4byte	.LCFI154
 5256 0b82 06000000 		.4byte	.LCFI155
 5257 0b86 0200     		.2byte	0x2
 5258 0b88 7D       		.byte	0x7d
 5259 0b89 18       		.sleb128 24
 5260 0b8a 06000000 		.4byte	.LCFI155
 5261 0b8e 52000000 		.4byte	.LFE57
 5262 0b92 0200     		.2byte	0x2
 5263 0b94 77       		.byte	0x77
 5264 0b95 18       		.sleb128 24
 5265 0b96 00000000 		.4byte	0x0
 5266 0b9a 00000000 		.4byte	0x0
 5267              	.LLST58:
 5268 0b9e 00000000 		.4byte	.LFB58
 5269 0ba2 02000000 		.4byte	.LCFI156
 5270 0ba6 0100     		.2byte	0x1
 5271 0ba8 5D       		.byte	0x5d
 5272 0ba9 02000000 		.4byte	.LCFI156
 5273 0bad 04000000 		.4byte	.LCFI157
 5274 0bb1 0200     		.2byte	0x2
 5275 0bb3 7D       		.byte	0x7d
 5276 0bb4 08       		.sleb128 8
 5277 0bb5 04000000 		.4byte	.LCFI157
 5278 0bb9 06000000 		.4byte	.LCFI158
 5279 0bbd 0200     		.2byte	0x2
 5280 0bbf 7D       		.byte	0x7d
 5281 0bc0 18       		.sleb128 24
 5282 0bc1 06000000 		.4byte	.LCFI158
 5283 0bc5 46000000 		.4byte	.LFE58
 5284 0bc9 0200     		.2byte	0x2
 5285 0bcb 77       		.byte	0x77
 5286 0bcc 18       		.sleb128 24
 5287 0bcd 00000000 		.4byte	0x0
 5288 0bd1 00000000 		.4byte	0x0
 5289              	.LLST59:
 5290 0bd5 00000000 		.4byte	.LFB59
 5291 0bd9 02000000 		.4byte	.LCFI159
ARM GAS  C:\Users\Heiwa\AppData\Local\Temp\ccuYQ69z.s 			page 139


 5292 0bdd 0100     		.2byte	0x1
 5293 0bdf 5D       		.byte	0x5d
 5294 0be0 02000000 		.4byte	.LCFI159
 5295 0be4 04000000 		.4byte	.LCFI160
 5296 0be8 0200     		.2byte	0x2
 5297 0bea 7D       		.byte	0x7d
 5298 0beb 08       		.sleb128 8
 5299 0bec 04000000 		.4byte	.LCFI160
 5300 0bf0 06000000 		.4byte	.LCFI161
 5301 0bf4 0200     		.2byte	0x2
 5302 0bf6 7D       		.byte	0x7d
 5303 0bf7 18       		.sleb128 24
 5304 0bf8 06000000 		.4byte	.LCFI161
 5305 0bfc 46000000 		.4byte	.LFE59
 5306 0c00 0200     		.2byte	0x2
 5307 0c02 77       		.byte	0x77
 5308 0c03 18       		.sleb128 24
 5309 0c04 00000000 		.4byte	0x0
 5310 0c08 00000000 		.4byte	0x0
 5311              	.LLST60:
 5312 0c0c 00000000 		.4byte	.LFB60
 5313 0c10 02000000 		.4byte	.LCFI162
 5314 0c14 0100     		.2byte	0x1
 5315 0c16 5D       		.byte	0x5d
 5316 0c17 02000000 		.4byte	.LCFI162
 5317 0c1b 04000000 		.4byte	.LCFI163
 5318 0c1f 0200     		.2byte	0x2
 5319 0c21 7D       		.byte	0x7d
 5320 0c22 08       		.sleb128 8
 5321 0c23 04000000 		.4byte	.LCFI163
 5322 0c27 06000000 		.4byte	.LCFI164
 5323 0c2b 0200     		.2byte	0x2
 5324 0c2d 7D       		.byte	0x7d
 5325 0c2e 18       		.sleb128 24
 5326 0c2f 06000000 		.4byte	.LCFI164
 5327 0c33 46000000 		.4byte	.LFE60
 5328 0c37 0200     		.2byte	0x2
 5329 0c39 77       		.byte	0x77
 5330 0c3a 18       		.sleb128 24
 5331 0c3b 00000000 		.4byte	0x0
 5332 0c3f 00000000 		.4byte	0x0
 5333              		.file 2 ".\\Generated_Source\\PSoC5\\/cytypes.h"
 5334              		.section	.debug_info
 5335 0000 830C0000 		.4byte	0xc83
 5336 0004 0200     		.2byte	0x2
 5337 0006 00000000 		.4byte	.Ldebug_abbrev0
 5338 000a 04       		.byte	0x4
 5339 000b 01       		.uleb128 0x1
 5340 000c B2000000 		.4byte	.LASF127
 5341 0010 01       		.byte	0x1
 5342 0011 4E040000 		.4byte	.LASF128
 5343 0015 37050000 		.4byte	.LASF129
 5344 0019 00000000 		.4byte	0x0
 5345 001d 00000000 		.4byte	0x0
 5346 0021 00000000 		.4byte	.Ldebug_ranges0+0x0
 5347 0025 00000000 		.4byte	.Ldebug_line0
 5348 0029 02       		.uleb128 0x2
ARM GAS  C:\Users\Heiwa\AppData\Local\Temp\ccuYQ69z.s 			page 140


 5349 002a 01       		.byte	0x1
 5350 002b 06       		.byte	0x6
 5351 002c 05010000 		.4byte	.LASF0
 5352 0030 02       		.uleb128 0x2
 5353 0031 01       		.byte	0x1
 5354 0032 08       		.byte	0x8
 5355 0033 1F050000 		.4byte	.LASF1
 5356 0037 02       		.uleb128 0x2
 5357 0038 02       		.byte	0x2
 5358 0039 05       		.byte	0x5
 5359 003a 2D050000 		.4byte	.LASF2
 5360 003e 02       		.uleb128 0x2
 5361 003f 02       		.byte	0x2
 5362 0040 07       		.byte	0x7
 5363 0041 D9020000 		.4byte	.LASF3
 5364 0045 03       		.uleb128 0x3
 5365 0046 04       		.byte	0x4
 5366 0047 05       		.byte	0x5
 5367 0048 696E7400 		.ascii	"int\000"
 5368 004c 02       		.uleb128 0x2
 5369 004d 04       		.byte	0x4
 5370 004e 07       		.byte	0x7
 5371 004f 2E020000 		.4byte	.LASF4
 5372 0053 02       		.uleb128 0x2
 5373 0054 08       		.byte	0x8
 5374 0055 05       		.byte	0x5
 5375 0056 F7000000 		.4byte	.LASF5
 5376 005a 02       		.uleb128 0x2
 5377 005b 08       		.byte	0x8
 5378 005c 07       		.byte	0x7
 5379 005d 9B000000 		.4byte	.LASF6
 5380 0061 02       		.uleb128 0x2
 5381 0062 04       		.byte	0x4
 5382 0063 05       		.byte	0x5
 5383 0064 4A010000 		.4byte	.LASF7
 5384 0068 04       		.uleb128 0x4
 5385 0069 04       		.byte	0x4
 5386 006a 07       		.byte	0x7
 5387 006b 02       		.uleb128 0x2
 5388 006c 04       		.byte	0x4
 5389 006d 07       		.byte	0x7
 5390 006e 5E020000 		.4byte	.LASF8
 5391 0072 05       		.uleb128 0x5
 5392 0073 01       		.byte	0x1
 5393 0074 06       		.uleb128 0x6
 5394 0075 04       		.byte	0x4
 5395 0076 72000000 		.4byte	0x72
 5396 007a 02       		.uleb128 0x2
 5397 007b 01       		.byte	0x1
 5398 007c 08       		.byte	0x8
 5399 007d DB050000 		.4byte	.LASF9
 5400 0081 07       		.uleb128 0x7
 5401 0082 94010000 		.4byte	.LASF10
 5402 0086 02       		.byte	0x2
 5403 0087 60       		.byte	0x60
 5404 0088 30000000 		.4byte	0x30
 5405 008c 07       		.uleb128 0x7
ARM GAS  C:\Users\Heiwa\AppData\Local\Temp\ccuYQ69z.s 			page 141


 5406 008d 15000000 		.4byte	.LASF11
 5407 0091 02       		.byte	0x2
 5408 0092 61       		.byte	0x61
 5409 0093 3E000000 		.4byte	0x3e
 5410 0097 07       		.uleb128 0x7
 5411 0098 C3010000 		.4byte	.LASF12
 5412 009c 02       		.byte	0x2
 5413 009d 62       		.byte	0x62
 5414 009e 6B000000 		.4byte	0x6b
 5415 00a2 08       		.uleb128 0x8
 5416 00a3 E5050000 		.4byte	.LASF13
 5417 00a7 02       		.byte	0x2
 5418 00a8 2B01     		.2byte	0x12b
 5419 00aa 74000000 		.4byte	0x74
 5420 00ae 08       		.uleb128 0x8
 5421 00af EA060000 		.4byte	.LASF14
 5422 00b3 02       		.byte	0x2
 5423 00b4 2E01     		.2byte	0x12e
 5424 00b6 6B000000 		.4byte	0x6b
 5425 00ba 09       		.uleb128 0x9
 5426 00bb 81000000 		.4byte	0x81
 5427 00bf 09       		.uleb128 0x9
 5428 00c0 97000000 		.4byte	0x97
 5429 00c4 0A       		.uleb128 0xa
 5430 00c5 01       		.byte	0x1
 5431 00c6 F2050000 		.4byte	.LASF30
 5432 00ca 01       		.byte	0x1
 5433 00cb 46       		.byte	0x46
 5434 00cc 01       		.byte	0x1
 5435 00cd AE000000 		.4byte	0xae
 5436 00d1 00000000 		.4byte	.LFB0
 5437 00d5 DA000000 		.4byte	.LFE0
 5438 00d9 00000000 		.4byte	.LLST0
 5439 00dd 28010000 		.4byte	0x128
 5440 00e1 0B       		.uleb128 0xb
 5441 00e2 3F010000 		.4byte	.LASF19
 5442 00e6 01       		.byte	0x1
 5443 00e7 46       		.byte	0x46
 5444 00e8 81000000 		.4byte	0x81
 5445 00ec 02       		.byte	0x2
 5446 00ed 91       		.byte	0x91
 5447 00ee 6F       		.sleb128 -17
 5448 00ef 0C       		.uleb128 0xc
 5449 00f0 80060000 		.4byte	.LASF15
 5450 00f4 01       		.byte	0x1
 5451 00f5 48       		.byte	0x48
 5452 00f6 AE000000 		.4byte	0xae
 5453 00fa 02       		.byte	0x2
 5454 00fb 91       		.byte	0x91
 5455 00fc 70       		.sleb128 -16
 5456 00fd 0C       		.uleb128 0xc
 5457 00fe 79050000 		.4byte	.LASF16
 5458 0102 01       		.byte	0x1
 5459 0103 4A       		.byte	0x4a
 5460 0104 81000000 		.4byte	0x81
 5461 0108 02       		.byte	0x2
 5462 0109 91       		.byte	0x91
ARM GAS  C:\Users\Heiwa\AppData\Local\Temp\ccuYQ69z.s 			page 142


 5463 010a 75       		.sleb128 -11
 5464 010b 0C       		.uleb128 0xc
 5465 010c 59000000 		.4byte	.LASF17
 5466 0110 01       		.byte	0x1
 5467 0111 4B       		.byte	0x4b
 5468 0112 81000000 		.4byte	0x81
 5469 0116 02       		.byte	0x2
 5470 0117 91       		.byte	0x91
 5471 0118 76       		.sleb128 -10
 5472 0119 0C       		.uleb128 0xc
 5473 011a 62000000 		.4byte	.LASF18
 5474 011e 01       		.byte	0x1
 5475 011f 4C       		.byte	0x4c
 5476 0120 81000000 		.4byte	0x81
 5477 0124 02       		.byte	0x2
 5478 0125 91       		.byte	0x91
 5479 0126 77       		.sleb128 -9
 5480 0127 00       		.byte	0x0
 5481 0128 0D       		.uleb128 0xd
 5482 0129 01       		.byte	0x1
 5483 012a F9030000 		.4byte	.LASF28
 5484 012e 01       		.byte	0x1
 5485 012f 87       		.byte	0x87
 5486 0130 01       		.byte	0x1
 5487 0131 00000000 		.4byte	.LFB1
 5488 0135 24000000 		.4byte	.LFE1
 5489 0139 37000000 		.4byte	.LLST1
 5490 013d 0E       		.uleb128 0xe
 5491 013e 01       		.byte	0x1
 5492 013f 57030000 		.4byte	.LASF21
 5493 0143 01       		.byte	0x1
 5494 0144 AD       		.byte	0xad
 5495 0145 01       		.byte	0x1
 5496 0146 00000000 		.4byte	.LFB2
 5497 014a 02010000 		.4byte	.LFE2
 5498 014e 62000000 		.4byte	.LLST2
 5499 0152 7D010000 		.4byte	0x17d
 5500 0156 0F       		.uleb128 0xf
 5501 0157 5000     		.ascii	"P\000"
 5502 0159 01       		.byte	0x1
 5503 015a AD       		.byte	0xad
 5504 015b 81000000 		.4byte	0x81
 5505 015f 02       		.byte	0x2
 5506 0160 91       		.byte	0x91
 5507 0161 77       		.sleb128 -9
 5508 0162 0F       		.uleb128 0xf
 5509 0163 5100     		.ascii	"Q\000"
 5510 0165 01       		.byte	0x1
 5511 0166 AD       		.byte	0xad
 5512 0167 81000000 		.4byte	0x81
 5513 016b 02       		.byte	0x2
 5514 016c 91       		.byte	0x91
 5515 016d 76       		.sleb128 -10
 5516 016e 0B       		.uleb128 0xb
 5517 016f 86040000 		.4byte	.LASF20
 5518 0173 01       		.byte	0x1
 5519 0174 AD       		.byte	0xad
ARM GAS  C:\Users\Heiwa\AppData\Local\Temp\ccuYQ69z.s 			page 143


 5520 0175 81000000 		.4byte	0x81
 5521 0179 02       		.byte	0x2
 5522 017a 91       		.byte	0x91
 5523 017b 75       		.sleb128 -11
 5524 017c 00       		.byte	0x0
 5525 017d 0E       		.uleb128 0xe
 5526 017e 01       		.byte	0x1
 5527 017f 60010000 		.4byte	.LASF22
 5528 0183 01       		.byte	0x1
 5529 0184 DE       		.byte	0xde
 5530 0185 01       		.byte	0x1
 5531 0186 00000000 		.4byte	.LFB3
 5532 018a 7A000000 		.4byte	.LFE3
 5533 018e 99000000 		.4byte	.LLST3
 5534 0192 A5010000 		.4byte	0x1a5
 5535 0196 0B       		.uleb128 0xb
 5536 0197 BD030000 		.4byte	.LASF23
 5537 019b 01       		.byte	0x1
 5538 019c DE       		.byte	0xde
 5539 019d 81000000 		.4byte	0x81
 5540 01a1 02       		.byte	0x2
 5541 01a2 91       		.byte	0x91
 5542 01a3 77       		.sleb128 -9
 5543 01a4 00       		.byte	0x0
 5544 01a5 10       		.uleb128 0x10
 5545 01a6 01       		.byte	0x1
 5546 01a7 2A000000 		.4byte	.LASF24
 5547 01ab 01       		.byte	0x1
 5548 01ac 1001     		.2byte	0x110
 5549 01ae 01       		.byte	0x1
 5550 01af 00000000 		.4byte	.LFB4
 5551 01b3 D0000000 		.4byte	.LFE4
 5552 01b7 D0000000 		.4byte	.LLST4
 5553 01bb FC010000 		.4byte	0x1fc
 5554 01bf 11       		.uleb128 0x11
 5555 01c0 3F010000 		.4byte	.LASF19
 5556 01c4 01       		.byte	0x1
 5557 01c5 1001     		.2byte	0x110
 5558 01c7 81000000 		.4byte	0x81
 5559 01cb 02       		.byte	0x2
 5560 01cc 91       		.byte	0x91
 5561 01cd 6F       		.sleb128 -17
 5562 01ce 12       		.uleb128 0x12
 5563 01cf 53060000 		.4byte	.LASF25
 5564 01d3 01       		.byte	0x1
 5565 01d4 1201     		.2byte	0x112
 5566 01d6 81000000 		.4byte	0x81
 5567 01da 02       		.byte	0x2
 5568 01db 91       		.byte	0x91
 5569 01dc 75       		.sleb128 -11
 5570 01dd 12       		.uleb128 0x12
 5571 01de 36060000 		.4byte	.LASF26
 5572 01e2 01       		.byte	0x1
 5573 01e3 1301     		.2byte	0x113
 5574 01e5 81000000 		.4byte	0x81
 5575 01e9 02       		.byte	0x2
 5576 01ea 91       		.byte	0x91
ARM GAS  C:\Users\Heiwa\AppData\Local\Temp\ccuYQ69z.s 			page 144


 5577 01eb 76       		.sleb128 -10
 5578 01ec 12       		.uleb128 0x12
 5579 01ed F3060000 		.4byte	.LASF27
 5580 01f1 01       		.byte	0x1
 5581 01f2 1401     		.2byte	0x114
 5582 01f4 81000000 		.4byte	0x81
 5583 01f8 02       		.byte	0x2
 5584 01f9 91       		.byte	0x91
 5585 01fa 77       		.sleb128 -9
 5586 01fb 00       		.byte	0x0
 5587 01fc 13       		.uleb128 0x13
 5588 01fd 01       		.byte	0x1
 5589 01fe CE020000 		.4byte	.LASF29
 5590 0202 01       		.byte	0x1
 5591 0203 5101     		.2byte	0x151
 5592 0205 01       		.byte	0x1
 5593 0206 00000000 		.4byte	.LFB5
 5594 020a 24000000 		.4byte	.LFE5
 5595 020e 07010000 		.4byte	.LLST5
 5596 0212 14       		.uleb128 0x14
 5597 0213 01       		.byte	0x1
 5598 0214 4B020000 		.4byte	.LASF31
 5599 0218 01       		.byte	0x1
 5600 0219 6601     		.2byte	0x166
 5601 021b 01       		.byte	0x1
 5602 021c 81000000 		.4byte	0x81
 5603 0220 00000000 		.4byte	.LFB6
 5604 0224 74000000 		.4byte	.LFE6
 5605 0228 32010000 		.4byte	.LLST6
 5606 022c 40020000 		.4byte	0x240
 5607 0230 12       		.uleb128 0x12
 5608 0231 AA050000 		.4byte	.LASF32
 5609 0235 01       		.byte	0x1
 5610 0236 6801     		.2byte	0x168
 5611 0238 81000000 		.4byte	0x81
 5612 023c 02       		.byte	0x2
 5613 023d 91       		.byte	0x91
 5614 023e 77       		.sleb128 -9
 5615 023f 00       		.byte	0x0
 5616 0240 10       		.uleb128 0x10
 5617 0241 01       		.byte	0x1
 5618 0242 D7060000 		.4byte	.LASF33
 5619 0246 01       		.byte	0x1
 5620 0247 8501     		.2byte	0x185
 5621 0249 01       		.byte	0x1
 5622 024a 00000000 		.4byte	.LFB7
 5623 024e 2A010000 		.4byte	.LFE7
 5624 0252 69010000 		.4byte	.LLST7
 5625 0256 79020000 		.4byte	0x279
 5626 025a 11       		.uleb128 0x11
 5627 025b 11010000 		.4byte	.LASF34
 5628 025f 01       		.byte	0x1
 5629 0260 8501     		.2byte	0x185
 5630 0262 81000000 		.4byte	0x81
 5631 0266 02       		.byte	0x2
 5632 0267 91       		.byte	0x91
 5633 0268 6F       		.sleb128 -17
ARM GAS  C:\Users\Heiwa\AppData\Local\Temp\ccuYQ69z.s 			page 145


 5634 0269 12       		.uleb128 0x12
 5635 026a 2B040000 		.4byte	.LASF35
 5636 026e 01       		.byte	0x1
 5637 026f 8701     		.2byte	0x187
 5638 0271 81000000 		.4byte	0x81
 5639 0275 02       		.byte	0x2
 5640 0276 91       		.byte	0x91
 5641 0277 77       		.sleb128 -9
 5642 0278 00       		.byte	0x0
 5643 0279 10       		.uleb128 0x10
 5644 027a 01       		.byte	0x1
 5645 027b 9E060000 		.4byte	.LASF36
 5646 027f 01       		.byte	0x1
 5647 0280 E201     		.2byte	0x1e2
 5648 0282 01       		.byte	0x1
 5649 0283 00000000 		.4byte	.LFB8
 5650 0287 B2010000 		.4byte	.LFE8
 5651 028b A0010000 		.4byte	.LLST8
 5652 028f C1020000 		.4byte	0x2c1
 5653 0293 11       		.uleb128 0x11
 5654 0294 11010000 		.4byte	.LASF34
 5655 0298 01       		.byte	0x1
 5656 0299 E201     		.2byte	0x1e2
 5657 029b 81000000 		.4byte	0x81
 5658 029f 02       		.byte	0x2
 5659 02a0 91       		.byte	0x91
 5660 02a1 6F       		.sleb128 -17
 5661 02a2 12       		.uleb128 0x12
 5662 02a3 21020000 		.4byte	.LASF37
 5663 02a7 01       		.byte	0x1
 5664 02a8 E401     		.2byte	0x1e4
 5665 02aa 81000000 		.4byte	0x81
 5666 02ae 02       		.byte	0x2
 5667 02af 91       		.byte	0x91
 5668 02b0 76       		.sleb128 -10
 5669 02b1 12       		.uleb128 0x12
 5670 02b2 35070000 		.4byte	.LASF38
 5671 02b6 01       		.byte	0x1
 5672 02b7 E501     		.2byte	0x1e5
 5673 02b9 81000000 		.4byte	0x81
 5674 02bd 02       		.byte	0x2
 5675 02be 91       		.byte	0x91
 5676 02bf 77       		.sleb128 -9
 5677 02c0 00       		.byte	0x0
 5678 02c1 10       		.uleb128 0x10
 5679 02c2 01       		.byte	0x1
 5680 02c3 3B020000 		.4byte	.LASF39
 5681 02c7 01       		.byte	0x1
 5682 02c8 7A02     		.2byte	0x27a
 5683 02ca 01       		.byte	0x1
 5684 02cb 00000000 		.4byte	.LFB9
 5685 02cf B8000000 		.4byte	.LFE9
 5686 02d3 D7010000 		.4byte	.LLST9
 5687 02d7 EB020000 		.4byte	0x2eb
 5688 02db 11       		.uleb128 0x11
 5689 02dc BD030000 		.4byte	.LASF23
 5690 02e0 01       		.byte	0x1
ARM GAS  C:\Users\Heiwa\AppData\Local\Temp\ccuYQ69z.s 			page 146


 5691 02e1 7A02     		.2byte	0x27a
 5692 02e3 81000000 		.4byte	0x81
 5693 02e7 02       		.byte	0x2
 5694 02e8 91       		.byte	0x91
 5695 02e9 77       		.sleb128 -9
 5696 02ea 00       		.byte	0x0
 5697 02eb 13       		.uleb128 0x13
 5698 02ec 01       		.byte	0x1
 5699 02ed 45000000 		.4byte	.LASF40
 5700 02f1 01       		.byte	0x1
 5701 02f2 A402     		.2byte	0x2a4
 5702 02f4 01       		.byte	0x1
 5703 02f5 00000000 		.4byte	.LFB10
 5704 02f9 26000000 		.4byte	.LFE10
 5705 02fd 0E020000 		.4byte	.LLST10
 5706 0301 13       		.uleb128 0x13
 5707 0302 01       		.byte	0x1
 5708 0303 DC030000 		.4byte	.LASF41
 5709 0307 01       		.byte	0x1
 5710 0308 B902     		.2byte	0x2b9
 5711 030a 01       		.byte	0x1
 5712 030b 00000000 		.4byte	.LFB11
 5713 030f 24000000 		.4byte	.LFE11
 5714 0313 39020000 		.4byte	.LLST11
 5715 0317 10       		.uleb128 0x10
 5716 0318 01       		.byte	0x1
 5717 0319 20030000 		.4byte	.LASF42
 5718 031d 01       		.byte	0x1
 5719 031e DC02     		.2byte	0x2dc
 5720 0320 01       		.byte	0x1
 5721 0321 00000000 		.4byte	.LFB12
 5722 0325 70000000 		.4byte	.LFE12
 5723 0329 64020000 		.4byte	.LLST12
 5724 032d 5F030000 		.4byte	0x35f
 5725 0331 11       		.uleb128 0x11
 5726 0332 BD030000 		.4byte	.LASF23
 5727 0336 01       		.byte	0x1
 5728 0337 DC02     		.2byte	0x2dc
 5729 0339 81000000 		.4byte	0x81
 5730 033d 02       		.byte	0x2
 5731 033e 91       		.byte	0x91
 5732 033f 6F       		.sleb128 -17
 5733 0340 12       		.uleb128 0x12
 5734 0341 13030000 		.4byte	.LASF43
 5735 0345 01       		.byte	0x1
 5736 0346 DE02     		.2byte	0x2de
 5737 0348 81000000 		.4byte	0x81
 5738 034c 02       		.byte	0x2
 5739 034d 91       		.byte	0x91
 5740 034e 76       		.sleb128 -10
 5741 034f 12       		.uleb128 0x12
 5742 0350 06030000 		.4byte	.LASF44
 5743 0354 01       		.byte	0x1
 5744 0355 E202     		.2byte	0x2e2
 5745 0357 81000000 		.4byte	0x81
 5746 035b 02       		.byte	0x2
 5747 035c 91       		.byte	0x91
ARM GAS  C:\Users\Heiwa\AppData\Local\Temp\ccuYQ69z.s 			page 147


 5748 035d 77       		.sleb128 -9
 5749 035e 00       		.byte	0x0
 5750 035f 10       		.uleb128 0x10
 5751 0360 01       		.byte	0x1
 5752 0361 6F040000 		.4byte	.LASF45
 5753 0365 01       		.byte	0x1
 5754 0366 1B03     		.2byte	0x31b
 5755 0368 01       		.byte	0x1
 5756 0369 00000000 		.4byte	.LFB13
 5757 036d 20000000 		.4byte	.LFE13
 5758 0371 9B020000 		.4byte	.LLST13
 5759 0375 89030000 		.4byte	0x389
 5760 0379 11       		.uleb128 0x11
 5761 037a 1C000000 		.4byte	.LASF46
 5762 037e 01       		.byte	0x1
 5763 037f 1B03     		.2byte	0x31b
 5764 0381 81000000 		.4byte	0x81
 5765 0385 02       		.byte	0x2
 5766 0386 91       		.byte	0x91
 5767 0387 77       		.sleb128 -9
 5768 0388 00       		.byte	0x0
 5769 0389 10       		.uleb128 0x10
 5770 038a 01       		.byte	0x1
 5771 038b 6B000000 		.4byte	.LASF47
 5772 038f 01       		.byte	0x1
 5773 0390 3103     		.2byte	0x331
 5774 0392 01       		.byte	0x1
 5775 0393 00000000 		.4byte	.LFB14
 5776 0397 84000000 		.4byte	.LFE14
 5777 039b D2020000 		.4byte	.LLST14
 5778 039f B3030000 		.4byte	0x3b3
 5779 03a3 11       		.uleb128 0x11
 5780 03a4 1C000000 		.4byte	.LASF46
 5781 03a8 01       		.byte	0x1
 5782 03a9 3103     		.2byte	0x331
 5783 03ab 8C000000 		.4byte	0x8c
 5784 03af 02       		.byte	0x2
 5785 03b0 91       		.byte	0x91
 5786 03b1 76       		.sleb128 -10
 5787 03b2 00       		.byte	0x0
 5788 03b3 10       		.uleb128 0x10
 5789 03b4 01       		.byte	0x1
 5790 03b5 6C060000 		.4byte	.LASF48
 5791 03b9 01       		.byte	0x1
 5792 03ba 5803     		.2byte	0x358
 5793 03bc 01       		.byte	0x1
 5794 03bd 00000000 		.4byte	.LFB15
 5795 03c1 A4000000 		.4byte	.LFE15
 5796 03c5 09030000 		.4byte	.LLST15
 5797 03c9 FB030000 		.4byte	0x3fb
 5798 03cd 11       		.uleb128 0x11
 5799 03ce 1C000000 		.4byte	.LASF46
 5800 03d2 01       		.byte	0x1
 5801 03d3 5803     		.2byte	0x358
 5802 03d5 8C000000 		.4byte	0x8c
 5803 03d9 02       		.byte	0x2
 5804 03da 91       		.byte	0x91
ARM GAS  C:\Users\Heiwa\AppData\Local\Temp\ccuYQ69z.s 			page 148


 5805 03db 6E       		.sleb128 -18
 5806 03dc 12       		.uleb128 0x12
 5807 03dd 7D010000 		.4byte	.LASF49
 5808 03e1 01       		.byte	0x1
 5809 03e2 5A03     		.2byte	0x35a
 5810 03e4 8C000000 		.4byte	0x8c
 5811 03e8 02       		.byte	0x2
 5812 03e9 91       		.byte	0x91
 5813 03ea 74       		.sleb128 -12
 5814 03eb 12       		.uleb128 0x12
 5815 03ec E8010000 		.4byte	.LASF50
 5816 03f0 01       		.byte	0x1
 5817 03f1 5B03     		.2byte	0x35b
 5818 03f3 81000000 		.4byte	0x81
 5819 03f7 02       		.byte	0x2
 5820 03f8 91       		.byte	0x91
 5821 03f9 77       		.sleb128 -9
 5822 03fa 00       		.byte	0x0
 5823 03fb 10       		.uleb128 0x10
 5824 03fc 01       		.byte	0x1
 5825 03fd 23060000 		.4byte	.LASF51
 5826 0401 01       		.byte	0x1
 5827 0402 B603     		.2byte	0x3b6
 5828 0404 01       		.byte	0x1
 5829 0405 00000000 		.4byte	.LFB16
 5830 0409 3C000000 		.4byte	.LFE16
 5831 040d 40030000 		.4byte	.LLST16
 5832 0411 25040000 		.4byte	0x425
 5833 0415 11       		.uleb128 0x11
 5834 0416 BD030000 		.4byte	.LASF23
 5835 041a 01       		.byte	0x1
 5836 041b B603     		.2byte	0x3b6
 5837 041d 81000000 		.4byte	0x81
 5838 0421 02       		.byte	0x2
 5839 0422 91       		.byte	0x91
 5840 0423 77       		.sleb128 -9
 5841 0424 00       		.byte	0x0
 5842 0425 13       		.uleb128 0x13
 5843 0426 01       		.byte	0x1
 5844 0427 31010000 		.4byte	.LASF52
 5845 042b 01       		.byte	0x1
 5846 042c CF03     		.2byte	0x3cf
 5847 042e 01       		.byte	0x1
 5848 042f 00000000 		.4byte	.LFB17
 5849 0433 26000000 		.4byte	.LFE17
 5850 0437 77030000 		.4byte	.LLST17
 5851 043b 13       		.uleb128 0x13
 5852 043c 01       		.byte	0x1
 5853 043d AB010000 		.4byte	.LASF53
 5854 0441 01       		.byte	0x1
 5855 0442 EB03     		.2byte	0x3eb
 5856 0444 01       		.byte	0x1
 5857 0445 00000000 		.4byte	.LFB18
 5858 0449 24000000 		.4byte	.LFE18
 5859 044d A2030000 		.4byte	.LLST18
 5860 0451 13       		.uleb128 0x13
 5861 0452 01       		.byte	0x1
ARM GAS  C:\Users\Heiwa\AppData\Local\Temp\ccuYQ69z.s 			page 149


 5862 0453 1B040000 		.4byte	.LASF54
 5863 0457 01       		.byte	0x1
 5864 0458 0004     		.2byte	0x400
 5865 045a 01       		.byte	0x1
 5866 045b 00000000 		.4byte	.LFB19
 5867 045f 26000000 		.4byte	.LFE19
 5868 0463 CD030000 		.4byte	.LLST19
 5869 0467 13       		.uleb128 0x13
 5870 0468 01       		.byte	0x1
 5871 0469 36000000 		.4byte	.LASF55
 5872 046d 01       		.byte	0x1
 5873 046e 1504     		.2byte	0x415
 5874 0470 01       		.byte	0x1
 5875 0471 00000000 		.4byte	.LFB20
 5876 0475 24000000 		.4byte	.LFE20
 5877 0479 F8030000 		.4byte	.LLST20
 5878 047d 13       		.uleb128 0x13
 5879 047e 01       		.byte	0x1
 5880 047f A8040000 		.4byte	.LASF56
 5881 0483 01       		.byte	0x1
 5882 0484 2D04     		.2byte	0x42d
 5883 0486 01       		.byte	0x1
 5884 0487 00000000 		.4byte	.LFB21
 5885 048b 26000000 		.4byte	.LFE21
 5886 048f 23040000 		.4byte	.LLST21
 5887 0493 13       		.uleb128 0x13
 5888 0494 01       		.byte	0x1
 5889 0495 DC040000 		.4byte	.LASF57
 5890 0499 01       		.byte	0x1
 5891 049a 4504     		.2byte	0x445
 5892 049c 01       		.byte	0x1
 5893 049d 00000000 		.4byte	.LFB22
 5894 04a1 24000000 		.4byte	.LFE22
 5895 04a5 4E040000 		.4byte	.LLST22
 5896 04a9 10       		.uleb128 0x10
 5897 04aa 01       		.byte	0x1
 5898 04ab 87060000 		.4byte	.LASF58
 5899 04af 01       		.byte	0x1
 5900 04b0 5E04     		.2byte	0x45e
 5901 04b2 01       		.byte	0x1
 5902 04b3 00000000 		.4byte	.LFB23
 5903 04b7 42000000 		.4byte	.LFE23
 5904 04bb 79040000 		.4byte	.LLST23
 5905 04bf D3040000 		.4byte	0x4d3
 5906 04c3 11       		.uleb128 0x11
 5907 04c4 BD030000 		.4byte	.LASF23
 5908 04c8 01       		.byte	0x1
 5909 04c9 5E04     		.2byte	0x45e
 5910 04cb 81000000 		.4byte	0x81
 5911 04cf 02       		.byte	0x2
 5912 04d0 91       		.byte	0x91
 5913 04d1 77       		.sleb128 -9
 5914 04d2 00       		.byte	0x0
 5915 04d3 14       		.uleb128 0x14
 5916 04d4 01       		.byte	0x1
 5917 04d5 BB020000 		.4byte	.LASF59
 5918 04d9 01       		.byte	0x1
ARM GAS  C:\Users\Heiwa\AppData\Local\Temp\ccuYQ69z.s 			page 150


 5919 04da 7604     		.2byte	0x476
 5920 04dc 01       		.byte	0x1
 5921 04dd 81000000 		.4byte	0x81
 5922 04e1 00000000 		.4byte	.LFB24
 5923 04e5 58000000 		.4byte	.LFE24
 5924 04e9 B0040000 		.4byte	.LLST24
 5925 04ed 10050000 		.4byte	0x510
 5926 04f1 11       		.uleb128 0x11
 5927 04f2 E0050000 		.4byte	.LASF60
 5928 04f6 01       		.byte	0x1
 5929 04f7 7604     		.2byte	0x476
 5930 04f9 81000000 		.4byte	0x81
 5931 04fd 02       		.byte	0x2
 5932 04fe 91       		.byte	0x91
 5933 04ff 6F       		.sleb128 -17
 5934 0500 12       		.uleb128 0x12
 5935 0501 44010000 		.4byte	.LASF61
 5936 0505 01       		.byte	0x1
 5937 0506 7804     		.2byte	0x478
 5938 0508 81000000 		.4byte	0x81
 5939 050c 02       		.byte	0x2
 5940 050d 91       		.byte	0x91
 5941 050e 77       		.sleb128 -9
 5942 050f 00       		.byte	0x0
 5943 0510 10       		.uleb128 0x10
 5944 0511 01       		.byte	0x1
 5945 0512 88000000 		.4byte	.LASF62
 5946 0516 01       		.byte	0x1
 5947 0517 9A04     		.2byte	0x49a
 5948 0519 01       		.byte	0x1
 5949 051a 00000000 		.4byte	.LFB25
 5950 051e 9C000000 		.4byte	.LFE25
 5951 0522 E7040000 		.4byte	.LLST25
 5952 0526 38050000 		.4byte	0x538
 5953 052a 15       		.uleb128 0x15
 5954 052b 6900     		.ascii	"i\000"
 5955 052d 01       		.byte	0x1
 5956 052e 9C04     		.2byte	0x49c
 5957 0530 BF000000 		.4byte	0xbf
 5958 0534 02       		.byte	0x2
 5959 0535 91       		.byte	0x91
 5960 0536 74       		.sleb128 -12
 5961 0537 00       		.byte	0x0
 5962 0538 13       		.uleb128 0x13
 5963 0539 01       		.byte	0x1
 5964 053a A9020000 		.4byte	.LASF63
 5965 053e 01       		.byte	0x1
 5966 053f C504     		.2byte	0x4c5
 5967 0541 01       		.byte	0x1
 5968 0542 00000000 		.4byte	.LFB26
 5969 0546 60000000 		.4byte	.LFE26
 5970 054a 1E050000 		.4byte	.LLST26
 5971 054e 16       		.uleb128 0x16
 5972 054f 01       		.byte	0x1
 5973 0550 AC060000 		.4byte	.LASF130
 5974 0554 01       		.byte	0x1
 5975 0555 E304     		.2byte	0x4e3
ARM GAS  C:\Users\Heiwa\AppData\Local\Temp\ccuYQ69z.s 			page 151


 5976 0557 01       		.byte	0x1
 5977 0558 81000000 		.4byte	0x81
 5978 055c 00000000 		.4byte	.LFB27
 5979 0560 1C000000 		.4byte	.LFE27
 5980 0564 49050000 		.4byte	.LLST27
 5981 0568 14       		.uleb128 0x14
 5982 0569 01       		.byte	0x1
 5983 056a 8E040000 		.4byte	.LASF64
 5984 056e 01       		.byte	0x1
 5985 056f FB04     		.2byte	0x4fb
 5986 0571 01       		.byte	0x1
 5987 0572 81000000 		.4byte	0x81
 5988 0576 00000000 		.4byte	.LFB28
 5989 057a F6000000 		.4byte	.LFE28
 5990 057e 74050000 		.4byte	.LLST28
 5991 0582 A5050000 		.4byte	0x5a5
 5992 0586 11       		.uleb128 0x11
 5993 0587 E0050000 		.4byte	.LASF60
 5994 058b 01       		.byte	0x1
 5995 058c FB04     		.2byte	0x4fb
 5996 058e 81000000 		.4byte	0x81
 5997 0592 02       		.byte	0x2
 5998 0593 91       		.byte	0x91
 5999 0594 6F       		.sleb128 -17
 6000 0595 12       		.uleb128 0x12
 6001 0596 44010000 		.4byte	.LASF61
 6002 059a 01       		.byte	0x1
 6003 059b FD04     		.2byte	0x4fd
 6004 059d 81000000 		.4byte	0x81
 6005 05a1 02       		.byte	0x2
 6006 05a2 91       		.byte	0x91
 6007 05a3 77       		.sleb128 -9
 6008 05a4 00       		.byte	0x0
 6009 05a5 14       		.uleb128 0x14
 6010 05a6 01       		.byte	0x1
 6011 05a7 8B030000 		.4byte	.LASF65
 6012 05ab 01       		.byte	0x1
 6013 05ac 4005     		.2byte	0x540
 6014 05ae 01       		.byte	0x1
 6015 05af AE000000 		.4byte	0xae
 6016 05b3 00000000 		.4byte	.LFB29
 6017 05b7 E2000000 		.4byte	.LFE29
 6018 05bb AB050000 		.4byte	.LLST29
 6019 05bf 2D060000 		.4byte	0x62d
 6020 05c3 11       		.uleb128 0x11
 6021 05c4 3F010000 		.4byte	.LASF19
 6022 05c8 01       		.byte	0x1
 6023 05c9 4005     		.2byte	0x540
 6024 05cb 81000000 		.4byte	0x81
 6025 05cf 02       		.byte	0x2
 6026 05d0 91       		.byte	0x91
 6027 05d1 67       		.sleb128 -25
 6028 05d2 12       		.uleb128 0x12
 6029 05d3 80060000 		.4byte	.LASF15
 6030 05d7 01       		.byte	0x1
 6031 05d8 4205     		.2byte	0x542
 6032 05da AE000000 		.4byte	0xae
ARM GAS  C:\Users\Heiwa\AppData\Local\Temp\ccuYQ69z.s 			page 152


 6033 05de 02       		.byte	0x2
 6034 05df 91       		.byte	0x91
 6035 05e0 70       		.sleb128 -16
 6036 05e1 12       		.uleb128 0x12
 6037 05e2 70020000 		.4byte	.LASF66
 6038 05e6 01       		.byte	0x1
 6039 05e7 4505     		.2byte	0x545
 6040 05e9 BA000000 		.4byte	0xba
 6041 05ed 02       		.byte	0x2
 6042 05ee 91       		.byte	0x91
 6043 05ef 6F       		.sleb128 -17
 6044 05f0 12       		.uleb128 0x12
 6045 05f1 0F000000 		.4byte	.LASF67
 6046 05f5 01       		.byte	0x1
 6047 05f6 4A05     		.2byte	0x54a
 6048 05f8 BA000000 		.4byte	0xba
 6049 05fc 02       		.byte	0x2
 6050 05fd 91       		.byte	0x91
 6051 05fe 6E       		.sleb128 -18
 6052 05ff 12       		.uleb128 0x12
 6053 0600 79050000 		.4byte	.LASF16
 6054 0604 01       		.byte	0x1
 6055 0605 4B05     		.2byte	0x54b
 6056 0607 81000000 		.4byte	0x81
 6057 060b 02       		.byte	0x2
 6058 060c 91       		.byte	0x91
 6059 060d 75       		.sleb128 -11
 6060 060e 12       		.uleb128 0x12
 6061 060f 59000000 		.4byte	.LASF17
 6062 0613 01       		.byte	0x1
 6063 0614 4C05     		.2byte	0x54c
 6064 0616 81000000 		.4byte	0x81
 6065 061a 02       		.byte	0x2
 6066 061b 91       		.byte	0x91
 6067 061c 76       		.sleb128 -10
 6068 061d 12       		.uleb128 0x12
 6069 061e 62000000 		.4byte	.LASF18
 6070 0622 01       		.byte	0x1
 6071 0623 4D05     		.2byte	0x54d
 6072 0625 81000000 		.4byte	0x81
 6073 0629 02       		.byte	0x2
 6074 062a 91       		.byte	0x91
 6075 062b 77       		.sleb128 -9
 6076 062c 00       		.byte	0x0
 6077 062d 13       		.uleb128 0x13
 6078 062e 01       		.byte	0x1
 6079 062f 47060000 		.4byte	.LASF68
 6080 0633 01       		.byte	0x1
 6081 0634 9F05     		.2byte	0x59f
 6082 0636 01       		.byte	0x1
 6083 0637 00000000 		.4byte	.LFB30
 6084 063b 24000000 		.4byte	.LFE30
 6085 063f E2050000 		.4byte	.LLST30
 6086 0643 10       		.uleb128 0x10
 6087 0644 01       		.byte	0x1
 6088 0645 C4030000 		.4byte	.LASF69
 6089 0649 01       		.byte	0x1
ARM GAS  C:\Users\Heiwa\AppData\Local\Temp\ccuYQ69z.s 			page 153


 6090 064a 3106     		.2byte	0x631
 6091 064c 01       		.byte	0x1
 6092 064d 00000000 		.4byte	.LFB31
 6093 0651 3C000000 		.4byte	.LFE31
 6094 0655 0D060000 		.4byte	.LLST31
 6095 0659 6D060000 		.4byte	0x66d
 6096 065d 11       		.uleb128 0x11
 6097 065e B8040000 		.4byte	.LASF70
 6098 0662 01       		.byte	0x1
 6099 0663 3106     		.2byte	0x631
 6100 0665 81000000 		.4byte	0x81
 6101 0669 02       		.byte	0x2
 6102 066a 91       		.byte	0x91
 6103 066b 77       		.sleb128 -9
 6104 066c 00       		.byte	0x0
 6105 066d 10       		.uleb128 0x10
 6106 066e 01       		.byte	0x1
 6107 066f 18050000 		.4byte	.LASF71
 6108 0673 01       		.byte	0x1
 6109 0674 7706     		.2byte	0x677
 6110 0676 01       		.byte	0x1
 6111 0677 00000000 		.4byte	.LFB32
 6112 067b 16000000 		.4byte	.LFE32
 6113 067f 44060000 		.4byte	.LLST32
 6114 0683 97060000 		.4byte	0x697
 6115 0687 11       		.uleb128 0x11
 6116 0688 B5050000 		.4byte	.LASF72
 6117 068c 01       		.byte	0x1
 6118 068d 7706     		.2byte	0x677
 6119 068f 81000000 		.4byte	0x81
 6120 0693 02       		.byte	0x2
 6121 0694 91       		.byte	0x91
 6122 0695 77       		.sleb128 -9
 6123 0696 00       		.byte	0x0
 6124 0697 13       		.uleb128 0x13
 6125 0698 01       		.byte	0x1
 6126 0699 C8000000 		.4byte	.LASF73
 6127 069d 01       		.byte	0x1
 6128 069e 9306     		.2byte	0x693
 6129 06a0 01       		.byte	0x1
 6130 06a1 00000000 		.4byte	.LFB33
 6131 06a5 18000000 		.4byte	.LFE33
 6132 06a9 7B060000 		.4byte	.LLST33
 6133 06ad 10       		.uleb128 0x10
 6134 06ae 01       		.byte	0x1
 6135 06af 64060000 		.4byte	.LASF74
 6136 06b3 01       		.byte	0x1
 6137 06b4 AE06     		.2byte	0x6ae
 6138 06b6 01       		.byte	0x1
 6139 06b7 00000000 		.4byte	.LFB34
 6140 06bb 48000000 		.4byte	.LFE34
 6141 06bf A6060000 		.4byte	.LLST34
 6142 06c3 D7060000 		.4byte	0x6d7
 6143 06c7 11       		.uleb128 0x11
 6144 06c8 CF040000 		.4byte	.LASF75
 6145 06cc 01       		.byte	0x1
 6146 06cd AE06     		.2byte	0x6ae
ARM GAS  C:\Users\Heiwa\AppData\Local\Temp\ccuYQ69z.s 			page 154


 6147 06cf 97000000 		.4byte	0x97
 6148 06d3 02       		.byte	0x2
 6149 06d4 91       		.byte	0x91
 6150 06d5 74       		.sleb128 -12
 6151 06d6 00       		.byte	0x0
 6152 06d7 10       		.uleb128 0x10
 6153 06d8 01       		.byte	0x1
 6154 06d9 9A010000 		.4byte	.LASF76
 6155 06dd 01       		.byte	0x1
 6156 06de DF06     		.2byte	0x6df
 6157 06e0 01       		.byte	0x1
 6158 06e1 00000000 		.4byte	.LFB35
 6159 06e5 28000000 		.4byte	.LFE35
 6160 06e9 DD060000 		.4byte	.LLST35
 6161 06ed 01070000 		.4byte	0x701
 6162 06f1 11       		.uleb128 0x11
 6163 06f2 03070000 		.4byte	.LASF77
 6164 06f6 01       		.byte	0x1
 6165 06f7 DF06     		.2byte	0x6df
 6166 06f9 8C000000 		.4byte	0x8c
 6167 06fd 02       		.byte	0x2
 6168 06fe 91       		.byte	0x91
 6169 06ff 76       		.sleb128 -10
 6170 0700 00       		.byte	0x0
 6171 0701 10       		.uleb128 0x10
 6172 0702 01       		.byte	0x1
 6173 0703 16010000 		.4byte	.LASF78
 6174 0707 01       		.byte	0x1
 6175 0708 F506     		.2byte	0x6f5
 6176 070a 01       		.byte	0x1
 6177 070b 00000000 		.4byte	.LFB36
 6178 070f AC000000 		.4byte	.LFE36
 6179 0713 14070000 		.4byte	.LLST36
 6180 0717 2B070000 		.4byte	0x72b
 6181 071b 11       		.uleb128 0x11
 6182 071c 11010000 		.4byte	.LASF34
 6183 0720 01       		.byte	0x1
 6184 0721 F506     		.2byte	0x6f5
 6185 0723 97000000 		.4byte	0x97
 6186 0727 02       		.byte	0x2
 6187 0728 91       		.byte	0x91
 6188 0729 74       		.sleb128 -12
 6189 072a 00       		.byte	0x0
 6190 072b 10       		.uleb128 0x10
 6191 072c 01       		.byte	0x1
 6192 072d EC020000 		.4byte	.LASF79
 6193 0731 01       		.byte	0x1
 6194 0732 3407     		.2byte	0x734
 6195 0734 01       		.byte	0x1
 6196 0735 00000000 		.4byte	.LFB37
 6197 0739 98000000 		.4byte	.LFE37
 6198 073d 4B070000 		.4byte	.LLST37
 6199 0741 64070000 		.4byte	0x764
 6200 0745 11       		.uleb128 0x11
 6201 0746 D6030000 		.4byte	.LASF80
 6202 074a 01       		.byte	0x1
 6203 074b 3407     		.2byte	0x734
ARM GAS  C:\Users\Heiwa\AppData\Local\Temp\ccuYQ69z.s 			page 155


 6204 074d 81000000 		.4byte	0x81
 6205 0751 02       		.byte	0x2
 6206 0752 91       		.byte	0x91
 6207 0753 77       		.sleb128 -9
 6208 0754 11       		.uleb128 0x11
 6209 0755 D4050000 		.4byte	.LASF81
 6210 0759 01       		.byte	0x1
 6211 075a 3407     		.2byte	0x734
 6212 075c 81000000 		.4byte	0x81
 6213 0760 02       		.byte	0x2
 6214 0761 91       		.byte	0x91
 6215 0762 76       		.sleb128 -10
 6216 0763 00       		.byte	0x0
 6217 0764 10       		.uleb128 0x10
 6218 0765 01       		.byte	0x1
 6219 0766 B8010000 		.4byte	.LASF82
 6220 076a 01       		.byte	0x1
 6221 076b 6007     		.2byte	0x760
 6222 076d 01       		.byte	0x1
 6223 076e 00000000 		.4byte	.LFB38
 6224 0772 44000000 		.4byte	.LFE38
 6225 0776 82070000 		.4byte	.LLST38
 6226 077a 8E070000 		.4byte	0x78e
 6227 077e 12       		.uleb128 0x12
 6228 077f 97060000 		.4byte	.LASF83
 6229 0783 01       		.byte	0x1
 6230 0784 6507     		.2byte	0x765
 6231 0786 81000000 		.4byte	0x81
 6232 078a 02       		.byte	0x2
 6233 078b 91       		.byte	0x91
 6234 078c 77       		.sleb128 -9
 6235 078d 00       		.byte	0x0
 6236 078e 10       		.uleb128 0x10
 6237 078f 01       		.byte	0x1
 6238 0790 23070000 		.4byte	.LASF84
 6239 0794 01       		.byte	0x1
 6240 0795 8907     		.2byte	0x789
 6241 0797 01       		.byte	0x1
 6242 0798 00000000 		.4byte	.LFB39
 6243 079c B2000000 		.4byte	.LFE39
 6244 07a0 B9070000 		.4byte	.LLST39
 6245 07a4 C7070000 		.4byte	0x7c7
 6246 07a8 11       		.uleb128 0x11
 6247 07a9 24000000 		.4byte	.LASF85
 6248 07ad 01       		.byte	0x1
 6249 07ae 8907     		.2byte	0x789
 6250 07b0 81000000 		.4byte	0x81
 6251 07b4 02       		.byte	0x2
 6252 07b5 91       		.byte	0x91
 6253 07b6 77       		.sleb128 -9
 6254 07b7 11       		.uleb128 0x11
 6255 07b8 0E050000 		.4byte	.LASF86
 6256 07bc 01       		.byte	0x1
 6257 07bd 8907     		.2byte	0x789
 6258 07bf 81000000 		.4byte	0x81
 6259 07c3 02       		.byte	0x2
 6260 07c4 91       		.byte	0x91
ARM GAS  C:\Users\Heiwa\AppData\Local\Temp\ccuYQ69z.s 			page 156


 6261 07c5 76       		.sleb128 -10
 6262 07c6 00       		.byte	0x0
 6263 07c7 10       		.uleb128 0x10
 6264 07c8 01       		.byte	0x1
 6265 07c9 78020000 		.4byte	.LASF87
 6266 07cd 01       		.byte	0x1
 6267 07ce C107     		.2byte	0x7c1
 6268 07d0 01       		.byte	0x1
 6269 07d1 00000000 		.4byte	.LFB40
 6270 07d5 B8000000 		.4byte	.LFE40
 6271 07d9 F0070000 		.4byte	.LLST40
 6272 07dd 00080000 		.4byte	0x800
 6273 07e1 11       		.uleb128 0x11
 6274 07e2 24000000 		.4byte	.LASF85
 6275 07e6 01       		.byte	0x1
 6276 07e7 C107     		.2byte	0x7c1
 6277 07e9 81000000 		.4byte	0x81
 6278 07ed 02       		.byte	0x2
 6279 07ee 91       		.byte	0x91
 6280 07ef 77       		.sleb128 -9
 6281 07f0 11       		.uleb128 0x11
 6282 07f1 0E050000 		.4byte	.LASF86
 6283 07f5 01       		.byte	0x1
 6284 07f6 C107     		.2byte	0x7c1
 6285 07f8 81000000 		.4byte	0x81
 6286 07fc 02       		.byte	0x2
 6287 07fd 91       		.byte	0x91
 6288 07fe 76       		.sleb128 -10
 6289 07ff 00       		.byte	0x0
 6290 0800 13       		.uleb128 0x13
 6291 0801 01       		.byte	0x1
 6292 0802 C4060000 		.4byte	.LASF88
 6293 0806 01       		.byte	0x1
 6294 0807 F207     		.2byte	0x7f2
 6295 0809 01       		.byte	0x1
 6296 080a 00000000 		.4byte	.LFB41
 6297 080e 38000000 		.4byte	.LFE41
 6298 0812 27080000 		.4byte	.LLST41
 6299 0816 13       		.uleb128 0x13
 6300 0817 01       		.byte	0x1
 6301 0818 02060000 		.4byte	.LASF89
 6302 081c 01       		.byte	0x1
 6303 081d 0E08     		.2byte	0x80e
 6304 081f 01       		.byte	0x1
 6305 0820 00000000 		.4byte	.LFB42
 6306 0824 38000000 		.4byte	.LFE42
 6307 0828 52080000 		.4byte	.LLST42
 6308 082c 13       		.uleb128 0x13
 6309 082d 01       		.byte	0x1
 6310 082e 10070000 		.4byte	.LASF90
 6311 0832 01       		.byte	0x1
 6312 0833 2908     		.2byte	0x829
 6313 0835 01       		.byte	0x1
 6314 0836 00000000 		.4byte	.LFB43
 6315 083a 7C000000 		.4byte	.LFE43
 6316 083e 7D080000 		.4byte	.LLST43
 6317 0842 13       		.uleb128 0x13
ARM GAS  C:\Users\Heiwa\AppData\Local\Temp\ccuYQ69z.s 			page 157


 6318 0843 01       		.byte	0x1
 6319 0844 98030000 		.4byte	.LASF91
 6320 0848 01       		.byte	0x1
 6321 0849 4C08     		.2byte	0x84c
 6322 084b 01       		.byte	0x1
 6323 084c 00000000 		.4byte	.LFB44
 6324 0850 24000000 		.4byte	.LFE44
 6325 0854 A8080000 		.4byte	.LLST44
 6326 0858 14       		.uleb128 0x14
 6327 0859 01       		.byte	0x1
 6328 085a FD040000 		.4byte	.LASF92
 6329 085e 01       		.byte	0x1
 6330 085f 6608     		.2byte	0x866
 6331 0861 01       		.byte	0x1
 6332 0862 81000000 		.4byte	0x81
 6333 0866 00000000 		.4byte	.LFB45
 6334 086a 4C000000 		.4byte	.LFE45
 6335 086e D3080000 		.4byte	.LLST45
 6336 0872 95080000 		.4byte	0x895
 6337 0876 11       		.uleb128 0x11
 6338 0877 CA010000 		.4byte	.LASF93
 6339 087b 01       		.byte	0x1
 6340 087c 6608     		.2byte	0x866
 6341 087e 81000000 		.4byte	0x81
 6342 0882 02       		.byte	0x2
 6343 0883 91       		.byte	0x91
 6344 0884 6F       		.sleb128 -17
 6345 0885 12       		.uleb128 0x12
 6346 0886 80060000 		.4byte	.LASF15
 6347 088a 01       		.byte	0x1
 6348 088b 6808     		.2byte	0x868
 6349 088d 81000000 		.4byte	0x81
 6350 0891 02       		.byte	0x2
 6351 0892 91       		.byte	0x91
 6352 0893 77       		.sleb128 -9
 6353 0894 00       		.byte	0x0
 6354 0895 14       		.uleb128 0x14
 6355 0896 01       		.byte	0x1
 6356 0897 08040000 		.4byte	.LASF94
 6357 089b 01       		.byte	0x1
 6358 089c 7F08     		.2byte	0x87f
 6359 089e 01       		.byte	0x1
 6360 089f 81000000 		.4byte	0x81
 6361 08a3 00000000 		.4byte	.LFB46
 6362 08a7 2E000000 		.4byte	.LFE46
 6363 08ab 0A090000 		.4byte	.LLST46
 6364 08af D2080000 		.4byte	0x8d2
 6365 08b3 12       		.uleb128 0x12
 6366 08b4 22010000 		.4byte	.LASF95
 6367 08b8 01       		.byte	0x1
 6368 08b9 8108     		.2byte	0x881
 6369 08bb 81000000 		.4byte	0x81
 6370 08bf 02       		.byte	0x2
 6371 08c0 91       		.byte	0x91
 6372 08c1 76       		.sleb128 -10
 6373 08c2 12       		.uleb128 0x12
 6374 08c3 14020000 		.4byte	.LASF96
ARM GAS  C:\Users\Heiwa\AppData\Local\Temp\ccuYQ69z.s 			page 158


 6375 08c7 01       		.byte	0x1
 6376 08c8 8208     		.2byte	0x882
 6377 08ca 81000000 		.4byte	0x81
 6378 08ce 02       		.byte	0x2
 6379 08cf 91       		.byte	0x91
 6380 08d0 77       		.sleb128 -9
 6381 08d1 00       		.byte	0x0
 6382 08d2 14       		.uleb128 0x14
 6383 08d3 01       		.byte	0x1
 6384 08d4 9B020000 		.4byte	.LASF97
 6385 08d8 01       		.byte	0x1
 6386 08d9 9A08     		.2byte	0x89a
 6387 08db 01       		.byte	0x1
 6388 08dc 97000000 		.4byte	0x97
 6389 08e0 00000000 		.4byte	.LFB47
 6390 08e4 2E000000 		.4byte	.LFE47
 6391 08e8 41090000 		.4byte	.LLST47
 6392 08ec 00090000 		.4byte	0x900
 6393 08f0 12       		.uleb128 0x12
 6394 08f1 BC050000 		.4byte	.LASF98
 6395 08f5 01       		.byte	0x1
 6396 08f6 9C08     		.2byte	0x89c
 6397 08f8 97000000 		.4byte	0x97
 6398 08fc 02       		.byte	0x2
 6399 08fd 91       		.byte	0x91
 6400 08fe 74       		.sleb128 -12
 6401 08ff 00       		.byte	0x0
 6402 0900 10       		.uleb128 0x10
 6403 0901 01       		.byte	0x1
 6404 0902 16060000 		.4byte	.LASF99
 6405 0906 01       		.byte	0x1
 6406 0907 B608     		.2byte	0x8b6
 6407 0909 01       		.byte	0x1
 6408 090a 00000000 		.4byte	.LFB48
 6409 090e 1E000000 		.4byte	.LFE48
 6410 0912 78090000 		.4byte	.LLST48
 6411 0916 2A090000 		.4byte	0x92a
 6412 091a 11       		.uleb128 0x11
 6413 091b CA010000 		.4byte	.LASF93
 6414 091f 01       		.byte	0x1
 6415 0920 B608     		.2byte	0x8b6
 6416 0922 97000000 		.4byte	0x97
 6417 0926 02       		.byte	0x2
 6418 0927 91       		.byte	0x91
 6419 0928 74       		.sleb128 -12
 6420 0929 00       		.byte	0x0
 6421 092a 10       		.uleb128 0x10
 6422 092b 01       		.byte	0x1
 6423 092c 94050000 		.4byte	.LASF100
 6424 0930 01       		.byte	0x1
 6425 0931 CB08     		.2byte	0x8cb
 6426 0933 01       		.byte	0x1
 6427 0934 00000000 		.4byte	.LFB49
 6428 0938 38000000 		.4byte	.LFE49
 6429 093c AF090000 		.4byte	.LLST49
 6430 0940 54090000 		.4byte	0x954
 6431 0944 12       		.uleb128 0x12
ARM GAS  C:\Users\Heiwa\AppData\Local\Temp\ccuYQ69z.s 			page 159


 6432 0945 38040000 		.4byte	.LASF101
 6433 0949 01       		.byte	0x1
 6434 094a CE08     		.2byte	0x8ce
 6435 094c 8C000000 		.4byte	0x8c
 6436 0950 02       		.byte	0x2
 6437 0951 91       		.byte	0x91
 6438 0952 76       		.sleb128 -10
 6439 0953 00       		.byte	0x0
 6440 0954 14       		.uleb128 0x14
 6441 0955 01       		.byte	0x1
 6442 0956 79030000 		.4byte	.LASF102
 6443 095a 01       		.byte	0x1
 6444 095b F008     		.2byte	0x8f0
 6445 095d 01       		.byte	0x1
 6446 095e A2000000 		.4byte	0xa2
 6447 0962 00000000 		.4byte	.LFB50
 6448 0966 5E000000 		.4byte	.LFE50
 6449 096a E6090000 		.4byte	.LLST50
 6450 096e AF090000 		.4byte	0x9af
 6451 0972 11       		.uleb128 0x11
 6452 0973 36030000 		.4byte	.LASF103
 6453 0977 01       		.byte	0x1
 6454 0978 F008     		.2byte	0x8f0
 6455 097a 81000000 		.4byte	0x81
 6456 097e 02       		.byte	0x2
 6457 097f 91       		.byte	0x91
 6458 0980 6F       		.sleb128 -17
 6459 0981 11       		.uleb128 0x11
 6460 0982 F1030000 		.4byte	.LASF104
 6461 0986 01       		.byte	0x1
 6462 0987 F008     		.2byte	0x8f0
 6463 0989 A2000000 		.4byte	0xa2
 6464 098d 02       		.byte	0x2
 6465 098e 91       		.byte	0x91
 6466 098f 68       		.sleb128 -24
 6467 0990 12       		.uleb128 0x12
 6468 0991 A4010000 		.4byte	.LASF105
 6469 0995 01       		.byte	0x1
 6470 0996 F208     		.2byte	0x8f2
 6471 0998 A2000000 		.4byte	0xa2
 6472 099c 02       		.byte	0x2
 6473 099d 91       		.byte	0x91
 6474 099e 70       		.sleb128 -16
 6475 099f 12       		.uleb128 0x12
 6476 09a0 00000000 		.4byte	.LASF106
 6477 09a4 01       		.byte	0x1
 6478 09a5 F308     		.2byte	0x8f3
 6479 09a7 AF090000 		.4byte	0x9af
 6480 09ab 02       		.byte	0x2
 6481 09ac 91       		.byte	0x91
 6482 09ad 74       		.sleb128 -12
 6483 09ae 00       		.byte	0x0
 6484 09af 06       		.uleb128 0x6
 6485 09b0 04       		.byte	0x4
 6486 09b1 A2000000 		.4byte	0xa2
 6487 09b5 14       		.uleb128 0x14
 6488 09b6 01       		.byte	0x1
ARM GAS  C:\Users\Heiwa\AppData\Local\Temp\ccuYQ69z.s 			page 160


 6489 09b7 02020000 		.4byte	.LASF107
 6490 09bb 01       		.byte	0x1
 6491 09bc 1109     		.2byte	0x911
 6492 09be 01       		.byte	0x1
 6493 09bf A2000000 		.4byte	0xa2
 6494 09c3 00000000 		.4byte	.LFB51
 6495 09c7 46000000 		.4byte	.LFE51
 6496 09cb 1D0A0000 		.4byte	.LLST51
 6497 09cf F2090000 		.4byte	0x9f2
 6498 09d3 11       		.uleb128 0x11
 6499 09d4 36030000 		.4byte	.LASF103
 6500 09d8 01       		.byte	0x1
 6501 09d9 1109     		.2byte	0x911
 6502 09db 81000000 		.4byte	0x81
 6503 09df 02       		.byte	0x2
 6504 09e0 91       		.byte	0x91
 6505 09e1 6F       		.sleb128 -17
 6506 09e2 12       		.uleb128 0x12
 6507 09e3 00000000 		.4byte	.LASF106
 6508 09e7 01       		.byte	0x1
 6509 09e8 1309     		.2byte	0x913
 6510 09ea AF090000 		.4byte	0x9af
 6511 09ee 02       		.byte	0x2
 6512 09ef 91       		.byte	0x91
 6513 09f0 74       		.sleb128 -12
 6514 09f1 00       		.byte	0x0
 6515 09f2 14       		.uleb128 0x14
 6516 09f3 01       		.byte	0x1
 6517 09f4 F7020000 		.4byte	.LASF108
 6518 09f8 01       		.byte	0x1
 6519 09f9 2909     		.2byte	0x929
 6520 09fb 01       		.byte	0x1
 6521 09fc A2000000 		.4byte	0xa2
 6522 0a00 00000000 		.4byte	.LFB52
 6523 0a04 66000000 		.4byte	.LFE52
 6524 0a08 540A0000 		.4byte	.LLST52
 6525 0a0c 4D0A0000 		.4byte	0xa4d
 6526 0a10 11       		.uleb128 0x11
 6527 0a11 36030000 		.4byte	.LASF103
 6528 0a15 01       		.byte	0x1
 6529 0a16 2909     		.2byte	0x929
 6530 0a18 81000000 		.4byte	0x81
 6531 0a1c 02       		.byte	0x2
 6532 0a1d 91       		.byte	0x91
 6533 0a1e 6F       		.sleb128 -17
 6534 0a1f 11       		.uleb128 0x11
 6535 0a20 F1030000 		.4byte	.LASF104
 6536 0a24 01       		.byte	0x1
 6537 0a25 2909     		.2byte	0x929
 6538 0a27 A2000000 		.4byte	0xa2
 6539 0a2b 02       		.byte	0x2
 6540 0a2c 91       		.byte	0x91
 6541 0a2d 68       		.sleb128 -24
 6542 0a2e 12       		.uleb128 0x12
 6543 0a2f A4010000 		.4byte	.LASF105
 6544 0a33 01       		.byte	0x1
 6545 0a34 2B09     		.2byte	0x92b
ARM GAS  C:\Users\Heiwa\AppData\Local\Temp\ccuYQ69z.s 			page 161


 6546 0a36 A2000000 		.4byte	0xa2
 6547 0a3a 02       		.byte	0x2
 6548 0a3b 91       		.byte	0x91
 6549 0a3c 70       		.sleb128 -16
 6550 0a3d 12       		.uleb128 0x12
 6551 0a3e 00000000 		.4byte	.LASF106
 6552 0a42 01       		.byte	0x1
 6553 0a43 2C09     		.2byte	0x92c
 6554 0a45 AF090000 		.4byte	0x9af
 6555 0a49 02       		.byte	0x2
 6556 0a4a 91       		.byte	0x91
 6557 0a4b 74       		.sleb128 -12
 6558 0a4c 00       		.byte	0x0
 6559 0a4d 14       		.uleb128 0x14
 6560 0a4e 01       		.byte	0x1
 6561 0a4f C0040000 		.4byte	.LASF109
 6562 0a53 01       		.byte	0x1
 6563 0a54 4809     		.2byte	0x948
 6564 0a56 01       		.byte	0x1
 6565 0a57 A2000000 		.4byte	0xa2
 6566 0a5b 00000000 		.4byte	.LFB53
 6567 0a5f 4A000000 		.4byte	.LFE53
 6568 0a63 8B0A0000 		.4byte	.LLST53
 6569 0a67 8A0A0000 		.4byte	0xa8a
 6570 0a6b 11       		.uleb128 0x11
 6571 0a6c 36030000 		.4byte	.LASF103
 6572 0a70 01       		.byte	0x1
 6573 0a71 4809     		.2byte	0x948
 6574 0a73 81000000 		.4byte	0x81
 6575 0a77 02       		.byte	0x2
 6576 0a78 91       		.byte	0x91
 6577 0a79 6F       		.sleb128 -17
 6578 0a7a 12       		.uleb128 0x12
 6579 0a7b 00000000 		.4byte	.LASF106
 6580 0a7f 01       		.byte	0x1
 6581 0a80 4A09     		.2byte	0x94a
 6582 0a82 AF090000 		.4byte	0x9af
 6583 0a86 02       		.byte	0x2
 6584 0a87 91       		.byte	0x91
 6585 0a88 74       		.sleb128 -12
 6586 0a89 00       		.byte	0x0
 6587 0a8a 10       		.uleb128 0x10
 6588 0a8b 01       		.byte	0x1
 6589 0a8c 46030000 		.4byte	.LASF110
 6590 0a90 01       		.byte	0x1
 6591 0a91 6009     		.2byte	0x960
 6592 0a93 01       		.byte	0x1
 6593 0a94 00000000 		.4byte	.LFB54
 6594 0a98 5A000000 		.4byte	.LFE54
 6595 0a9c C20A0000 		.4byte	.LLST54
 6596 0aa0 C30A0000 		.4byte	0xac3
 6597 0aa4 11       		.uleb128 0x11
 6598 0aa5 36030000 		.4byte	.LASF103
 6599 0aa9 01       		.byte	0x1
 6600 0aaa 6009     		.2byte	0x960
 6601 0aac 81000000 		.4byte	0x81
 6602 0ab0 02       		.byte	0x2
ARM GAS  C:\Users\Heiwa\AppData\Local\Temp\ccuYQ69z.s 			page 162


 6603 0ab1 91       		.byte	0x91
 6604 0ab2 77       		.sleb128 -9
 6605 0ab3 11       		.uleb128 0x11
 6606 0ab4 3D030000 		.4byte	.LASF111
 6607 0ab8 01       		.byte	0x1
 6608 0ab9 6009     		.2byte	0x960
 6609 0abb 81000000 		.4byte	0x81
 6610 0abf 02       		.byte	0x2
 6611 0ac0 91       		.byte	0x91
 6612 0ac1 76       		.sleb128 -10
 6613 0ac2 00       		.byte	0x0
 6614 0ac3 14       		.uleb128 0x14
 6615 0ac4 01       		.byte	0x1
 6616 0ac5 D7010000 		.4byte	.LASF112
 6617 0ac9 01       		.byte	0x1
 6618 0aca 7609     		.2byte	0x976
 6619 0acc 01       		.byte	0x1
 6620 0acd 81000000 		.4byte	0x81
 6621 0ad1 00000000 		.4byte	.LFB55
 6622 0ad5 44000000 		.4byte	.LFE55
 6623 0ad9 F90A0000 		.4byte	.LLST55
 6624 0add 000B0000 		.4byte	0xb00
 6625 0ae1 11       		.uleb128 0x11
 6626 0ae2 36030000 		.4byte	.LASF103
 6627 0ae6 01       		.byte	0x1
 6628 0ae7 7609     		.2byte	0x976
 6629 0ae9 81000000 		.4byte	0x81
 6630 0aed 02       		.byte	0x2
 6631 0aee 91       		.byte	0x91
 6632 0aef 6F       		.sleb128 -17
 6633 0af0 12       		.uleb128 0x12
 6634 0af1 3D030000 		.4byte	.LASF111
 6635 0af5 01       		.byte	0x1
 6636 0af6 7809     		.2byte	0x978
 6637 0af8 81000000 		.4byte	0x81
 6638 0afc 02       		.byte	0x2
 6639 0afd 91       		.byte	0x91
 6640 0afe 77       		.sleb128 -9
 6641 0aff 00       		.byte	0x0
 6642 0b00 10       		.uleb128 0x10
 6643 0b01 01       		.byte	0x1
 6644 0b02 88050000 		.4byte	.LASF113
 6645 0b06 01       		.byte	0x1
 6646 0b07 9009     		.2byte	0x990
 6647 0b09 01       		.byte	0x1
 6648 0b0a 00000000 		.4byte	.LFB56
 6649 0b0e 46000000 		.4byte	.LFE56
 6650 0b12 300B0000 		.4byte	.LLST56
 6651 0b16 390B0000 		.4byte	0xb39
 6652 0b1a 11       		.uleb128 0x11
 6653 0b1b 36030000 		.4byte	.LASF103
 6654 0b1f 01       		.byte	0x1
 6655 0b20 9009     		.2byte	0x990
 6656 0b22 81000000 		.4byte	0x81
 6657 0b26 02       		.byte	0x2
 6658 0b27 91       		.byte	0x91
 6659 0b28 6F       		.sleb128 -17
ARM GAS  C:\Users\Heiwa\AppData\Local\Temp\ccuYQ69z.s 			page 163


 6660 0b29 12       		.uleb128 0x12
 6661 0b2a BE000000 		.4byte	.LASF114
 6662 0b2e 01       		.byte	0x1
 6663 0b2f 9209     		.2byte	0x992
 6664 0b31 390B0000 		.4byte	0xb39
 6665 0b35 02       		.byte	0x2
 6666 0b36 91       		.byte	0x91
 6667 0b37 74       		.sleb128 -12
 6668 0b38 00       		.byte	0x0
 6669 0b39 06       		.uleb128 0x6
 6670 0b3a 04       		.byte	0x4
 6671 0b3b 3F0B0000 		.4byte	0xb3f
 6672 0b3f 09       		.uleb128 0x9
 6673 0b40 6B000000 		.4byte	0x6b
 6674 0b44 14       		.uleb128 0x14
 6675 0b45 01       		.byte	0x1
 6676 0b46 E9000000 		.4byte	.LASF115
 6677 0b4a 01       		.byte	0x1
 6678 0b4b AC09     		.2byte	0x9ac
 6679 0b4d 01       		.byte	0x1
 6680 0b4e 81000000 		.4byte	0x81
 6681 0b52 00000000 		.4byte	.LFB57
 6682 0b56 52000000 		.4byte	.LFE57
 6683 0b5a 670B0000 		.4byte	.LLST57
 6684 0b5e 810B0000 		.4byte	0xb81
 6685 0b62 11       		.uleb128 0x11
 6686 0b63 36030000 		.4byte	.LASF103
 6687 0b67 01       		.byte	0x1
 6688 0b68 AC09     		.2byte	0x9ac
 6689 0b6a 81000000 		.4byte	0x81
 6690 0b6e 02       		.byte	0x2
 6691 0b6f 91       		.byte	0x91
 6692 0b70 6F       		.sleb128 -17
 6693 0b71 12       		.uleb128 0x12
 6694 0b72 A1050000 		.4byte	.LASF116
 6695 0b76 01       		.byte	0x1
 6696 0b77 AE09     		.2byte	0x9ae
 6697 0b79 390B0000 		.4byte	0xb39
 6698 0b7d 02       		.byte	0x2
 6699 0b7e 91       		.byte	0x91
 6700 0b7f 74       		.sleb128 -12
 6701 0b80 00       		.byte	0x0
 6702 0b81 10       		.uleb128 0x10
 6703 0b82 01       		.byte	0x1
 6704 0b83 53010000 		.4byte	.LASF117
 6705 0b87 01       		.byte	0x1
 6706 0b88 C809     		.2byte	0x9c8
 6707 0b8a 01       		.byte	0x1
 6708 0b8b 00000000 		.4byte	.LFB58
 6709 0b8f 46000000 		.4byte	.LFE58
 6710 0b93 9E0B0000 		.4byte	.LLST58
 6711 0b97 BA0B0000 		.4byte	0xbba
 6712 0b9b 11       		.uleb128 0x11
 6713 0b9c 36030000 		.4byte	.LASF103
 6714 0ba0 01       		.byte	0x1
 6715 0ba1 C809     		.2byte	0x9c8
 6716 0ba3 81000000 		.4byte	0x81
ARM GAS  C:\Users\Heiwa\AppData\Local\Temp\ccuYQ69z.s 			page 164


 6717 0ba7 02       		.byte	0x2
 6718 0ba8 91       		.byte	0x91
 6719 0ba9 6F       		.sleb128 -17
 6720 0baa 12       		.uleb128 0x12
 6721 0bab 74010000 		.4byte	.LASF118
 6722 0baf 01       		.byte	0x1
 6723 0bb0 CA09     		.2byte	0x9ca
 6724 0bb2 390B0000 		.4byte	0xb39
 6725 0bb6 02       		.byte	0x2
 6726 0bb7 91       		.byte	0x91
 6727 0bb8 74       		.sleb128 -12
 6728 0bb9 00       		.byte	0x0
 6729 0bba 10       		.uleb128 0x10
 6730 0bbb 01       		.byte	0x1
 6731 0bbc 8B020000 		.4byte	.LASF119
 6732 0bc0 01       		.byte	0x1
 6733 0bc1 E409     		.2byte	0x9e4
 6734 0bc3 01       		.byte	0x1
 6735 0bc4 00000000 		.4byte	.LFB59
 6736 0bc8 46000000 		.4byte	.LFE59
 6737 0bcc D50B0000 		.4byte	.LLST59
 6738 0bd0 F30B0000 		.4byte	0xbf3
 6739 0bd4 11       		.uleb128 0x11
 6740 0bd5 36030000 		.4byte	.LASF103
 6741 0bd9 01       		.byte	0x1
 6742 0bda E409     		.2byte	0x9e4
 6743 0bdc 81000000 		.4byte	0x81
 6744 0be0 02       		.byte	0x2
 6745 0be1 91       		.byte	0x91
 6746 0be2 6F       		.sleb128 -17
 6747 0be3 12       		.uleb128 0x12
 6748 0be4 CF010000 		.4byte	.LASF120
 6749 0be8 01       		.byte	0x1
 6750 0be9 E609     		.2byte	0x9e6
 6751 0beb 390B0000 		.4byte	0xb39
 6752 0bef 02       		.byte	0x2
 6753 0bf0 91       		.byte	0x91
 6754 0bf1 74       		.sleb128 -12
 6755 0bf2 00       		.byte	0x0
 6756 0bf3 10       		.uleb128 0x10
 6757 0bf4 01       		.byte	0x1
 6758 0bf5 67030000 		.4byte	.LASF121
 6759 0bf9 01       		.byte	0x1
 6760 0bfa 000A     		.2byte	0xa00
 6761 0bfc 01       		.byte	0x1
 6762 0bfd 00000000 		.4byte	.LFB60
 6763 0c01 46000000 		.4byte	.LFE60
 6764 0c05 0C0C0000 		.4byte	.LLST60
 6765 0c09 2C0C0000 		.4byte	0xc2c
 6766 0c0d 11       		.uleb128 0x11
 6767 0c0e 36030000 		.4byte	.LASF103
 6768 0c12 01       		.byte	0x1
 6769 0c13 000A     		.2byte	0xa00
 6770 0c15 81000000 		.4byte	0x81
 6771 0c19 02       		.byte	0x2
 6772 0c1a 91       		.byte	0x91
 6773 0c1b 6F       		.sleb128 -17
ARM GAS  C:\Users\Heiwa\AppData\Local\Temp\ccuYQ69z.s 			page 165


 6774 0c1c 12       		.uleb128 0x12
 6775 0c1d CF010000 		.4byte	.LASF120
 6776 0c21 01       		.byte	0x1
 6777 0c22 020A     		.2byte	0xa02
 6778 0c24 390B0000 		.4byte	0xb39
 6779 0c28 02       		.byte	0x2
 6780 0c29 91       		.byte	0x91
 6781 0c2a 74       		.sleb128 -12
 6782 0c2b 00       		.byte	0x0
 6783 0c2c 17       		.uleb128 0x17
 6784 0c2d 40040000 		.4byte	.LASF122
 6785 0c31 01       		.byte	0x1
 6786 0c32 15       		.byte	0x15
 6787 0c33 81000000 		.4byte	0x81
 6788 0c37 01       		.byte	0x1
 6789 0c38 05       		.byte	0x5
 6790 0c39 03       		.byte	0x3
 6791 0c3a 00000000 		.4byte	CyResetStatus
 6792 0c3e 17       		.uleb128 0x17
 6793 0c3f ED040000 		.4byte	.LASF123
 6794 0c43 01       		.byte	0x1
 6795 0c44 17       		.byte	0x17
 6796 0c45 97000000 		.4byte	0x97
 6797 0c49 01       		.byte	0x1
 6798 0c4a 05       		.byte	0x5
 6799 0c4b 03       		.byte	0x3
 6800 0c4c 00000000 		.4byte	cydelay_freq_hz
 6801 0c50 17       		.uleb128 0x17
 6802 0c51 AC030000 		.4byte	.LASF124
 6803 0c55 01       		.byte	0x1
 6804 0c56 18       		.byte	0x18
 6805 0c57 97000000 		.4byte	0x97
 6806 0c5b 01       		.byte	0x1
 6807 0c5c 05       		.byte	0x5
 6808 0c5d 03       		.byte	0x3
 6809 0c5e 00000000 		.4byte	cydelay_freq_khz
 6810 0c62 17       		.uleb128 0x17
 6811 0c63 D8000000 		.4byte	.LASF125
 6812 0c67 01       		.byte	0x1
 6813 0c68 19       		.byte	0x19
 6814 0c69 81000000 		.4byte	0x81
 6815 0c6d 01       		.byte	0x1
 6816 0c6e 05       		.byte	0x5
 6817 0c6f 03       		.byte	0x3
 6818 0c70 00000000 		.4byte	cydelay_freq_mhz
 6819 0c74 17       		.uleb128 0x17
 6820 0c75 C5050000 		.4byte	.LASF126
 6821 0c79 01       		.byte	0x1
 6822 0c7a 1A       		.byte	0x1a
 6823 0c7b 97000000 		.4byte	0x97
 6824 0c7f 01       		.byte	0x1
 6825 0c80 05       		.byte	0x5
 6826 0c81 03       		.byte	0x3
 6827 0c82 00000000 		.4byte	cydelay_32k_ms
 6828 0c86 00       		.byte	0x0
 6829              		.section	.debug_abbrev
 6830 0000 01       		.uleb128 0x1
ARM GAS  C:\Users\Heiwa\AppData\Local\Temp\ccuYQ69z.s 			page 166


 6831 0001 11       		.uleb128 0x11
 6832 0002 01       		.byte	0x1
 6833 0003 25       		.uleb128 0x25
 6834 0004 0E       		.uleb128 0xe
 6835 0005 13       		.uleb128 0x13
 6836 0006 0B       		.uleb128 0xb
 6837 0007 03       		.uleb128 0x3
 6838 0008 0E       		.uleb128 0xe
 6839 0009 1B       		.uleb128 0x1b
 6840 000a 0E       		.uleb128 0xe
 6841 000b 11       		.uleb128 0x11
 6842 000c 01       		.uleb128 0x1
 6843 000d 52       		.uleb128 0x52
 6844 000e 01       		.uleb128 0x1
 6845 000f 55       		.uleb128 0x55
 6846 0010 06       		.uleb128 0x6
 6847 0011 10       		.uleb128 0x10
 6848 0012 06       		.uleb128 0x6
 6849 0013 00       		.byte	0x0
 6850 0014 00       		.byte	0x0
 6851 0015 02       		.uleb128 0x2
 6852 0016 24       		.uleb128 0x24
 6853 0017 00       		.byte	0x0
 6854 0018 0B       		.uleb128 0xb
 6855 0019 0B       		.uleb128 0xb
 6856 001a 3E       		.uleb128 0x3e
 6857 001b 0B       		.uleb128 0xb
 6858 001c 03       		.uleb128 0x3
 6859 001d 0E       		.uleb128 0xe
 6860 001e 00       		.byte	0x0
 6861 001f 00       		.byte	0x0
 6862 0020 03       		.uleb128 0x3
 6863 0021 24       		.uleb128 0x24
 6864 0022 00       		.byte	0x0
 6865 0023 0B       		.uleb128 0xb
 6866 0024 0B       		.uleb128 0xb
 6867 0025 3E       		.uleb128 0x3e
 6868 0026 0B       		.uleb128 0xb
 6869 0027 03       		.uleb128 0x3
 6870 0028 08       		.uleb128 0x8
 6871 0029 00       		.byte	0x0
 6872 002a 00       		.byte	0x0
 6873 002b 04       		.uleb128 0x4
 6874 002c 24       		.uleb128 0x24
 6875 002d 00       		.byte	0x0
 6876 002e 0B       		.uleb128 0xb
 6877 002f 0B       		.uleb128 0xb
 6878 0030 3E       		.uleb128 0x3e
 6879 0031 0B       		.uleb128 0xb
 6880 0032 00       		.byte	0x0
 6881 0033 00       		.byte	0x0
 6882 0034 05       		.uleb128 0x5
 6883 0035 15       		.uleb128 0x15
 6884 0036 00       		.byte	0x0
 6885 0037 27       		.uleb128 0x27
 6886 0038 0C       		.uleb128 0xc
 6887 0039 00       		.byte	0x0
ARM GAS  C:\Users\Heiwa\AppData\Local\Temp\ccuYQ69z.s 			page 167


 6888 003a 00       		.byte	0x0
 6889 003b 06       		.uleb128 0x6
 6890 003c 0F       		.uleb128 0xf
 6891 003d 00       		.byte	0x0
 6892 003e 0B       		.uleb128 0xb
 6893 003f 0B       		.uleb128 0xb
 6894 0040 49       		.uleb128 0x49
 6895 0041 13       		.uleb128 0x13
 6896 0042 00       		.byte	0x0
 6897 0043 00       		.byte	0x0
 6898 0044 07       		.uleb128 0x7
 6899 0045 16       		.uleb128 0x16
 6900 0046 00       		.byte	0x0
 6901 0047 03       		.uleb128 0x3
 6902 0048 0E       		.uleb128 0xe
 6903 0049 3A       		.uleb128 0x3a
 6904 004a 0B       		.uleb128 0xb
 6905 004b 3B       		.uleb128 0x3b
 6906 004c 0B       		.uleb128 0xb
 6907 004d 49       		.uleb128 0x49
 6908 004e 13       		.uleb128 0x13
 6909 004f 00       		.byte	0x0
 6910 0050 00       		.byte	0x0
 6911 0051 08       		.uleb128 0x8
 6912 0052 16       		.uleb128 0x16
 6913 0053 00       		.byte	0x0
 6914 0054 03       		.uleb128 0x3
 6915 0055 0E       		.uleb128 0xe
 6916 0056 3A       		.uleb128 0x3a
 6917 0057 0B       		.uleb128 0xb
 6918 0058 3B       		.uleb128 0x3b
 6919 0059 05       		.uleb128 0x5
 6920 005a 49       		.uleb128 0x49
 6921 005b 13       		.uleb128 0x13
 6922 005c 00       		.byte	0x0
 6923 005d 00       		.byte	0x0
 6924 005e 09       		.uleb128 0x9
 6925 005f 35       		.uleb128 0x35
 6926 0060 00       		.byte	0x0
 6927 0061 49       		.uleb128 0x49
 6928 0062 13       		.uleb128 0x13
 6929 0063 00       		.byte	0x0
 6930 0064 00       		.byte	0x0
 6931 0065 0A       		.uleb128 0xa
 6932 0066 2E       		.uleb128 0x2e
 6933 0067 01       		.byte	0x1
 6934 0068 3F       		.uleb128 0x3f
 6935 0069 0C       		.uleb128 0xc
 6936 006a 03       		.uleb128 0x3
 6937 006b 0E       		.uleb128 0xe
 6938 006c 3A       		.uleb128 0x3a
 6939 006d 0B       		.uleb128 0xb
 6940 006e 3B       		.uleb128 0x3b
 6941 006f 0B       		.uleb128 0xb
 6942 0070 27       		.uleb128 0x27
 6943 0071 0C       		.uleb128 0xc
 6944 0072 49       		.uleb128 0x49
ARM GAS  C:\Users\Heiwa\AppData\Local\Temp\ccuYQ69z.s 			page 168


 6945 0073 13       		.uleb128 0x13
 6946 0074 11       		.uleb128 0x11
 6947 0075 01       		.uleb128 0x1
 6948 0076 12       		.uleb128 0x12
 6949 0077 01       		.uleb128 0x1
 6950 0078 40       		.uleb128 0x40
 6951 0079 06       		.uleb128 0x6
 6952 007a 01       		.uleb128 0x1
 6953 007b 13       		.uleb128 0x13
 6954 007c 00       		.byte	0x0
 6955 007d 00       		.byte	0x0
 6956 007e 0B       		.uleb128 0xb
 6957 007f 05       		.uleb128 0x5
 6958 0080 00       		.byte	0x0
 6959 0081 03       		.uleb128 0x3
 6960 0082 0E       		.uleb128 0xe
 6961 0083 3A       		.uleb128 0x3a
 6962 0084 0B       		.uleb128 0xb
 6963 0085 3B       		.uleb128 0x3b
 6964 0086 0B       		.uleb128 0xb
 6965 0087 49       		.uleb128 0x49
 6966 0088 13       		.uleb128 0x13
 6967 0089 02       		.uleb128 0x2
 6968 008a 0A       		.uleb128 0xa
 6969 008b 00       		.byte	0x0
 6970 008c 00       		.byte	0x0
 6971 008d 0C       		.uleb128 0xc
 6972 008e 34       		.uleb128 0x34
 6973 008f 00       		.byte	0x0
 6974 0090 03       		.uleb128 0x3
 6975 0091 0E       		.uleb128 0xe
 6976 0092 3A       		.uleb128 0x3a
 6977 0093 0B       		.uleb128 0xb
 6978 0094 3B       		.uleb128 0x3b
 6979 0095 0B       		.uleb128 0xb
 6980 0096 49       		.uleb128 0x49
 6981 0097 13       		.uleb128 0x13
 6982 0098 02       		.uleb128 0x2
 6983 0099 0A       		.uleb128 0xa
 6984 009a 00       		.byte	0x0
 6985 009b 00       		.byte	0x0
 6986 009c 0D       		.uleb128 0xd
 6987 009d 2E       		.uleb128 0x2e
 6988 009e 00       		.byte	0x0
 6989 009f 3F       		.uleb128 0x3f
 6990 00a0 0C       		.uleb128 0xc
 6991 00a1 03       		.uleb128 0x3
 6992 00a2 0E       		.uleb128 0xe
 6993 00a3 3A       		.uleb128 0x3a
 6994 00a4 0B       		.uleb128 0xb
 6995 00a5 3B       		.uleb128 0x3b
 6996 00a6 0B       		.uleb128 0xb
 6997 00a7 27       		.uleb128 0x27
 6998 00a8 0C       		.uleb128 0xc
 6999 00a9 11       		.uleb128 0x11
 7000 00aa 01       		.uleb128 0x1
 7001 00ab 12       		.uleb128 0x12
ARM GAS  C:\Users\Heiwa\AppData\Local\Temp\ccuYQ69z.s 			page 169


 7002 00ac 01       		.uleb128 0x1
 7003 00ad 40       		.uleb128 0x40
 7004 00ae 06       		.uleb128 0x6
 7005 00af 00       		.byte	0x0
 7006 00b0 00       		.byte	0x0
 7007 00b1 0E       		.uleb128 0xe
 7008 00b2 2E       		.uleb128 0x2e
 7009 00b3 01       		.byte	0x1
 7010 00b4 3F       		.uleb128 0x3f
 7011 00b5 0C       		.uleb128 0xc
 7012 00b6 03       		.uleb128 0x3
 7013 00b7 0E       		.uleb128 0xe
 7014 00b8 3A       		.uleb128 0x3a
 7015 00b9 0B       		.uleb128 0xb
 7016 00ba 3B       		.uleb128 0x3b
 7017 00bb 0B       		.uleb128 0xb
 7018 00bc 27       		.uleb128 0x27
 7019 00bd 0C       		.uleb128 0xc
 7020 00be 11       		.uleb128 0x11
 7021 00bf 01       		.uleb128 0x1
 7022 00c0 12       		.uleb128 0x12
 7023 00c1 01       		.uleb128 0x1
 7024 00c2 40       		.uleb128 0x40
 7025 00c3 06       		.uleb128 0x6
 7026 00c4 01       		.uleb128 0x1
 7027 00c5 13       		.uleb128 0x13
 7028 00c6 00       		.byte	0x0
 7029 00c7 00       		.byte	0x0
 7030 00c8 0F       		.uleb128 0xf
 7031 00c9 05       		.uleb128 0x5
 7032 00ca 00       		.byte	0x0
 7033 00cb 03       		.uleb128 0x3
 7034 00cc 08       		.uleb128 0x8
 7035 00cd 3A       		.uleb128 0x3a
 7036 00ce 0B       		.uleb128 0xb
 7037 00cf 3B       		.uleb128 0x3b
 7038 00d0 0B       		.uleb128 0xb
 7039 00d1 49       		.uleb128 0x49
 7040 00d2 13       		.uleb128 0x13
 7041 00d3 02       		.uleb128 0x2
 7042 00d4 0A       		.uleb128 0xa
 7043 00d5 00       		.byte	0x0
 7044 00d6 00       		.byte	0x0
 7045 00d7 10       		.uleb128 0x10
 7046 00d8 2E       		.uleb128 0x2e
 7047 00d9 01       		.byte	0x1
 7048 00da 3F       		.uleb128 0x3f
 7049 00db 0C       		.uleb128 0xc
 7050 00dc 03       		.uleb128 0x3
 7051 00dd 0E       		.uleb128 0xe
 7052 00de 3A       		.uleb128 0x3a
 7053 00df 0B       		.uleb128 0xb
 7054 00e0 3B       		.uleb128 0x3b
 7055 00e1 05       		.uleb128 0x5
 7056 00e2 27       		.uleb128 0x27
 7057 00e3 0C       		.uleb128 0xc
 7058 00e4 11       		.uleb128 0x11
ARM GAS  C:\Users\Heiwa\AppData\Local\Temp\ccuYQ69z.s 			page 170


 7059 00e5 01       		.uleb128 0x1
 7060 00e6 12       		.uleb128 0x12
 7061 00e7 01       		.uleb128 0x1
 7062 00e8 40       		.uleb128 0x40
 7063 00e9 06       		.uleb128 0x6
 7064 00ea 01       		.uleb128 0x1
 7065 00eb 13       		.uleb128 0x13
 7066 00ec 00       		.byte	0x0
 7067 00ed 00       		.byte	0x0
 7068 00ee 11       		.uleb128 0x11
 7069 00ef 05       		.uleb128 0x5
 7070 00f0 00       		.byte	0x0
 7071 00f1 03       		.uleb128 0x3
 7072 00f2 0E       		.uleb128 0xe
 7073 00f3 3A       		.uleb128 0x3a
 7074 00f4 0B       		.uleb128 0xb
 7075 00f5 3B       		.uleb128 0x3b
 7076 00f6 05       		.uleb128 0x5
 7077 00f7 49       		.uleb128 0x49
 7078 00f8 13       		.uleb128 0x13
 7079 00f9 02       		.uleb128 0x2
 7080 00fa 0A       		.uleb128 0xa
 7081 00fb 00       		.byte	0x0
 7082 00fc 00       		.byte	0x0
 7083 00fd 12       		.uleb128 0x12
 7084 00fe 34       		.uleb128 0x34
 7085 00ff 00       		.byte	0x0
 7086 0100 03       		.uleb128 0x3
 7087 0101 0E       		.uleb128 0xe
 7088 0102 3A       		.uleb128 0x3a
 7089 0103 0B       		.uleb128 0xb
 7090 0104 3B       		.uleb128 0x3b
 7091 0105 05       		.uleb128 0x5
 7092 0106 49       		.uleb128 0x49
 7093 0107 13       		.uleb128 0x13
 7094 0108 02       		.uleb128 0x2
 7095 0109 0A       		.uleb128 0xa
 7096 010a 00       		.byte	0x0
 7097 010b 00       		.byte	0x0
 7098 010c 13       		.uleb128 0x13
 7099 010d 2E       		.uleb128 0x2e
 7100 010e 00       		.byte	0x0
 7101 010f 3F       		.uleb128 0x3f
 7102 0110 0C       		.uleb128 0xc
 7103 0111 03       		.uleb128 0x3
 7104 0112 0E       		.uleb128 0xe
 7105 0113 3A       		.uleb128 0x3a
 7106 0114 0B       		.uleb128 0xb
 7107 0115 3B       		.uleb128 0x3b
 7108 0116 05       		.uleb128 0x5
 7109 0117 27       		.uleb128 0x27
 7110 0118 0C       		.uleb128 0xc
 7111 0119 11       		.uleb128 0x11
 7112 011a 01       		.uleb128 0x1
 7113 011b 12       		.uleb128 0x12
 7114 011c 01       		.uleb128 0x1
 7115 011d 40       		.uleb128 0x40
ARM GAS  C:\Users\Heiwa\AppData\Local\Temp\ccuYQ69z.s 			page 171


 7116 011e 06       		.uleb128 0x6
 7117 011f 00       		.byte	0x0
 7118 0120 00       		.byte	0x0
 7119 0121 14       		.uleb128 0x14
 7120 0122 2E       		.uleb128 0x2e
 7121 0123 01       		.byte	0x1
 7122 0124 3F       		.uleb128 0x3f
 7123 0125 0C       		.uleb128 0xc
 7124 0126 03       		.uleb128 0x3
 7125 0127 0E       		.uleb128 0xe
 7126 0128 3A       		.uleb128 0x3a
 7127 0129 0B       		.uleb128 0xb
 7128 012a 3B       		.uleb128 0x3b
 7129 012b 05       		.uleb128 0x5
 7130 012c 27       		.uleb128 0x27
 7131 012d 0C       		.uleb128 0xc
 7132 012e 49       		.uleb128 0x49
 7133 012f 13       		.uleb128 0x13
 7134 0130 11       		.uleb128 0x11
 7135 0131 01       		.uleb128 0x1
 7136 0132 12       		.uleb128 0x12
 7137 0133 01       		.uleb128 0x1
 7138 0134 40       		.uleb128 0x40
 7139 0135 06       		.uleb128 0x6
 7140 0136 01       		.uleb128 0x1
 7141 0137 13       		.uleb128 0x13
 7142 0138 00       		.byte	0x0
 7143 0139 00       		.byte	0x0
 7144 013a 15       		.uleb128 0x15
 7145 013b 34       		.uleb128 0x34
 7146 013c 00       		.byte	0x0
 7147 013d 03       		.uleb128 0x3
 7148 013e 08       		.uleb128 0x8
 7149 013f 3A       		.uleb128 0x3a
 7150 0140 0B       		.uleb128 0xb
 7151 0141 3B       		.uleb128 0x3b
 7152 0142 05       		.uleb128 0x5
 7153 0143 49       		.uleb128 0x49
 7154 0144 13       		.uleb128 0x13
 7155 0145 02       		.uleb128 0x2
 7156 0146 0A       		.uleb128 0xa
 7157 0147 00       		.byte	0x0
 7158 0148 00       		.byte	0x0
 7159 0149 16       		.uleb128 0x16
 7160 014a 2E       		.uleb128 0x2e
 7161 014b 00       		.byte	0x0
 7162 014c 3F       		.uleb128 0x3f
 7163 014d 0C       		.uleb128 0xc
 7164 014e 03       		.uleb128 0x3
 7165 014f 0E       		.uleb128 0xe
 7166 0150 3A       		.uleb128 0x3a
 7167 0151 0B       		.uleb128 0xb
 7168 0152 3B       		.uleb128 0x3b
 7169 0153 05       		.uleb128 0x5
 7170 0154 27       		.uleb128 0x27
 7171 0155 0C       		.uleb128 0xc
 7172 0156 49       		.uleb128 0x49
ARM GAS  C:\Users\Heiwa\AppData\Local\Temp\ccuYQ69z.s 			page 172


 7173 0157 13       		.uleb128 0x13
 7174 0158 11       		.uleb128 0x11
 7175 0159 01       		.uleb128 0x1
 7176 015a 12       		.uleb128 0x12
 7177 015b 01       		.uleb128 0x1
 7178 015c 40       		.uleb128 0x40
 7179 015d 06       		.uleb128 0x6
 7180 015e 00       		.byte	0x0
 7181 015f 00       		.byte	0x0
 7182 0160 17       		.uleb128 0x17
 7183 0161 34       		.uleb128 0x34
 7184 0162 00       		.byte	0x0
 7185 0163 03       		.uleb128 0x3
 7186 0164 0E       		.uleb128 0xe
 7187 0165 3A       		.uleb128 0x3a
 7188 0166 0B       		.uleb128 0xb
 7189 0167 3B       		.uleb128 0x3b
 7190 0168 0B       		.uleb128 0xb
 7191 0169 49       		.uleb128 0x49
 7192 016a 13       		.uleb128 0x13
 7193 016b 3F       		.uleb128 0x3f
 7194 016c 0C       		.uleb128 0xc
 7195 016d 02       		.uleb128 0x2
 7196 016e 0A       		.uleb128 0xa
 7197 016f 00       		.byte	0x0
 7198 0170 00       		.byte	0x0
 7199 0171 00       		.byte	0x0
 7200              		.section	.debug_pubnames,"",%progbits
 7201 0000 54050000 		.4byte	0x554
 7202 0004 0200     		.2byte	0x2
 7203 0006 00000000 		.4byte	.Ldebug_info0
 7204 000a 870C0000 		.4byte	0xc87
 7205 000e C4000000 		.4byte	0xc4
 7206 0012 4379504C 		.ascii	"CyPLL_OUT_Start\000"
 7206      4C5F4F55 
 7206      545F5374 
 7206      61727400 
 7207 0022 28010000 		.4byte	0x128
 7208 0026 4379504C 		.ascii	"CyPLL_OUT_Stop\000"
 7208      4C5F4F55 
 7208      545F5374 
 7208      6F7000
 7209 0035 3D010000 		.4byte	0x13d
 7210 0039 4379504C 		.ascii	"CyPLL_OUT_SetPQ\000"
 7210      4C5F4F55 
 7210      545F5365 
 7210      74505100 
 7211 0049 7D010000 		.4byte	0x17d
 7212 004d 4379504C 		.ascii	"CyPLL_OUT_SetSource\000"
 7212      4C5F4F55 
 7212      545F5365 
 7212      74536F75 
 7212      72636500 
 7213 0061 A5010000 		.4byte	0x1a5
 7214 0065 4379494D 		.ascii	"CyIMO_Start\000"
 7214      4F5F5374 
 7214      61727400 
ARM GAS  C:\Users\Heiwa\AppData\Local\Temp\ccuYQ69z.s 			page 173


 7215 0071 FC010000 		.4byte	0x1fc
 7216 0075 4379494D 		.ascii	"CyIMO_Stop\000"
 7216      4F5F5374 
 7216      6F7000
 7217 0080 12020000 		.4byte	0x212
 7218 0084 43795553 		.ascii	"CyUSB_PowerOnCheck\000"
 7218      425F506F 
 7218      7765724F 
 7218      6E436865 
 7218      636B00
 7219 0097 40020000 		.4byte	0x240
 7220 009b 4379494D 		.ascii	"CyIMO_SetTrimValue\000"
 7220      4F5F5365 
 7220      74547269 
 7220      6D56616C 
 7220      756500
 7221 00ae 79020000 		.4byte	0x279
 7222 00b2 4379494D 		.ascii	"CyIMO_SetFreq\000"
 7222      4F5F5365 
 7222      74467265 
 7222      7100
 7223 00c0 C1020000 		.4byte	0x2c1
 7224 00c4 4379494D 		.ascii	"CyIMO_SetSource\000"
 7224      4F5F5365 
 7224      74536F75 
 7224      72636500 
 7225 00d4 EB020000 		.4byte	0x2eb
 7226 00d8 4379494D 		.ascii	"CyIMO_EnableDoubler\000"
 7226      4F5F456E 
 7226      61626C65 
 7226      446F7562 
 7226      6C657200 
 7227 00ec 01030000 		.4byte	0x301
 7228 00f0 4379494D 		.ascii	"CyIMO_DisableDoubler\000"
 7228      4F5F4469 
 7228      7361626C 
 7228      65446F75 
 7228      626C6572 
 7229 0105 17030000 		.4byte	0x317
 7230 0109 43794D61 		.ascii	"CyMasterClk_SetSource\000"
 7230      73746572 
 7230      436C6B5F 
 7230      53657453 
 7230      6F757263 
 7231 011f 5F030000 		.4byte	0x35f
 7232 0123 43794D61 		.ascii	"CyMasterClk_SetDivider\000"
 7232      73746572 
 7232      436C6B5F 
 7232      53657444 
 7232      69766964 
 7233 013a 89030000 		.4byte	0x389
 7234 013e 43794275 		.ascii	"CyBusClk_Internal_SetDivider\000"
 7234      73436C6B 
 7234      5F496E74 
 7234      65726E61 
 7234      6C5F5365 
 7235 015b B3030000 		.4byte	0x3b3
ARM GAS  C:\Users\Heiwa\AppData\Local\Temp\ccuYQ69z.s 			page 174


 7236 015f 43794275 		.ascii	"CyBusClk_SetDivider\000"
 7236      73436C6B 
 7236      5F536574 
 7236      44697669 
 7236      64657200 
 7237 0173 FB030000 		.4byte	0x3fb
 7238 0177 43795573 		.ascii	"CyUsbClk_SetSource\000"
 7238      62436C6B 
 7238      5F536574 
 7238      536F7572 
 7238      636500
 7239 018a 25040000 		.4byte	0x425
 7240 018e 4379494C 		.ascii	"CyILO_Start1K\000"
 7240      4F5F5374 
 7240      61727431 
 7240      4B00
 7241 019c 3B040000 		.4byte	0x43b
 7242 01a0 4379494C 		.ascii	"CyILO_Stop1K\000"
 7242      4F5F5374 
 7242      6F70314B 
 7242      00
 7243 01ad 51040000 		.4byte	0x451
 7244 01b1 4379494C 		.ascii	"CyILO_Start100K\000"
 7244      4F5F5374 
 7244      61727431 
 7244      30304B00 
 7245 01c1 67040000 		.4byte	0x467
 7246 01c5 4379494C 		.ascii	"CyILO_Stop100K\000"
 7246      4F5F5374 
 7246      6F703130 
 7246      304B00
 7247 01d4 7D040000 		.4byte	0x47d
 7248 01d8 4379494C 		.ascii	"CyILO_Enable33K\000"
 7248      4F5F456E 
 7248      61626C65 
 7248      33334B00 
 7249 01e8 93040000 		.4byte	0x493
 7250 01ec 4379494C 		.ascii	"CyILO_Disable33K\000"
 7250      4F5F4469 
 7250      7361626C 
 7250      6533334B 
 7250      00
 7251 01fd A9040000 		.4byte	0x4a9
 7252 0201 4379494C 		.ascii	"CyILO_SetSource\000"
 7252      4F5F5365 
 7252      74536F75 
 7252      72636500 
 7253 0211 D3040000 		.4byte	0x4d3
 7254 0215 4379494C 		.ascii	"CyILO_SetPowerMode\000"
 7254      4F5F5365 
 7254      74506F77 
 7254      65724D6F 
 7254      646500
 7255 0228 10050000 		.4byte	0x510
 7256 022c 43795854 		.ascii	"CyXTAL_32KHZ_Start\000"
 7256      414C5F33 
 7256      324B485A 
ARM GAS  C:\Users\Heiwa\AppData\Local\Temp\ccuYQ69z.s 			page 175


 7256      5F537461 
 7256      727400
 7257 023f 38050000 		.4byte	0x538
 7258 0243 43795854 		.ascii	"CyXTAL_32KHZ_Stop\000"
 7258      414C5F33 
 7258      324B485A 
 7258      5F53746F 
 7258      7000
 7259 0255 4E050000 		.4byte	0x54e
 7260 0259 43795854 		.ascii	"CyXTAL_32KHZ_ReadStatus\000"
 7260      414C5F33 
 7260      324B485A 
 7260      5F526561 
 7260      64537461 
 7261 0271 68050000 		.4byte	0x568
 7262 0275 43795854 		.ascii	"CyXTAL_32KHZ_SetPowerMode\000"
 7262      414C5F33 
 7262      324B485A 
 7262      5F536574 
 7262      506F7765 
 7263 028f A5050000 		.4byte	0x5a5
 7264 0293 43795854 		.ascii	"CyXTAL_Start\000"
 7264      414C5F53 
 7264      74617274 
 7264      00
 7265 02a0 2D060000 		.4byte	0x62d
 7266 02a4 43795854 		.ascii	"CyXTAL_Stop\000"
 7266      414C5F53 
 7266      746F7000 
 7267 02b0 43060000 		.4byte	0x643
 7268 02b4 43795854 		.ascii	"CyXTAL_SetStartup\000"
 7268      414C5F53 
 7268      65745374 
 7268      61727475 
 7268      7000
 7269 02c6 6D060000 		.4byte	0x66d
 7270 02ca 43794861 		.ascii	"CyHalt\000"
 7270      6C7400
 7271 02d1 97060000 		.4byte	0x697
 7272 02d5 4379536F 		.ascii	"CySoftwareReset\000"
 7272      66747761 
 7272      72655265 
 7272      73657400 
 7273 02e5 AD060000 		.4byte	0x6ad
 7274 02e9 43794465 		.ascii	"CyDelay\000"
 7274      6C617900 
 7275 02f1 D7060000 		.4byte	0x6d7
 7276 02f5 43794465 		.ascii	"CyDelayUs\000"
 7276      6C617955 
 7276      7300
 7277 02ff 01070000 		.4byte	0x701
 7278 0303 43794465 		.ascii	"CyDelayFreq\000"
 7278      6C617946 
 7278      72657100 
 7279 030f 2B070000 		.4byte	0x72b
 7280 0313 43795764 		.ascii	"CyWdtStart\000"
 7280      74537461 
ARM GAS  C:\Users\Heiwa\AppData\Local\Temp\ccuYQ69z.s 			page 176


 7280      727400
 7281 031e 64070000 		.4byte	0x764
 7282 0322 43795764 		.ascii	"CyWdtClear\000"
 7282      74436C65 
 7282      617200
 7283 032d 8E070000 		.4byte	0x78e
 7284 0331 43795664 		.ascii	"CyVdLvDigitEnable\000"
 7284      4C764469 
 7284      67697445 
 7284      6E61626C 
 7284      6500
 7285 0343 C7070000 		.4byte	0x7c7
 7286 0347 43795664 		.ascii	"CyVdLvAnalogEnable\000"
 7286      4C76416E 
 7286      616C6F67 
 7286      456E6162 
 7286      6C6500
 7287 035a 00080000 		.4byte	0x800
 7288 035e 43795664 		.ascii	"CyVdLvDigitDisable\000"
 7288      4C764469 
 7288      67697444 
 7288      69736162 
 7288      6C6500
 7289 0371 16080000 		.4byte	0x816
 7290 0375 43795664 		.ascii	"CyVdLvAnalogDisable\000"
 7290      4C76416E 
 7290      616C6F67 
 7290      44697361 
 7290      626C6500 
 7291 0389 2C080000 		.4byte	0x82c
 7292 038d 43795664 		.ascii	"CyVdHvAnalogEnable\000"
 7292      4876416E 
 7292      616C6F67 
 7292      456E6162 
 7292      6C6500
 7293 03a0 42080000 		.4byte	0x842
 7294 03a4 43795664 		.ascii	"CyVdHvAnalogDisable\000"
 7294      4876416E 
 7294      616C6F67 
 7294      44697361 
 7294      626C6500 
 7295 03b8 58080000 		.4byte	0x858
 7296 03bc 43795664 		.ascii	"CyVdStickyStatus\000"
 7296      53746963 
 7296      6B795374 
 7296      61747573 
 7296      00
 7297 03cd 95080000 		.4byte	0x895
 7298 03d1 43795664 		.ascii	"CyVdRealTimeStatus\000"
 7298      5265616C 
 7298      54696D65 
 7298      53746174 
 7298      757300
 7299 03e4 D2080000 		.4byte	0x8d2
 7300 03e8 43794469 		.ascii	"CyDisableInts\000"
 7300      7361626C 
 7300      65496E74 
ARM GAS  C:\Users\Heiwa\AppData\Local\Temp\ccuYQ69z.s 			page 177


 7300      7300
 7301 03f6 00090000 		.4byte	0x900
 7302 03fa 4379456E 		.ascii	"CyEnableInts\000"
 7302      61626C65 
 7302      496E7473 
 7302      00
 7303 0407 2A090000 		.4byte	0x92a
 7304 040b 4379466C 		.ascii	"CyFlushCache\000"
 7304      75736843 
 7304      61636865 
 7304      00
 7305 0418 54090000 		.4byte	0x954
 7306 041c 4379496E 		.ascii	"CyIntSetSysVector\000"
 7306      74536574 
 7306      53797356 
 7306      6563746F 
 7306      7200
 7307 042e B5090000 		.4byte	0x9b5
 7308 0432 4379496E 		.ascii	"CyIntGetSysVector\000"
 7308      74476574 
 7308      53797356 
 7308      6563746F 
 7308      7200
 7309 0444 F2090000 		.4byte	0x9f2
 7310 0448 4379496E 		.ascii	"CyIntSetVector\000"
 7310      74536574 
 7310      56656374 
 7310      6F7200
 7311 0457 4D0A0000 		.4byte	0xa4d
 7312 045b 4379496E 		.ascii	"CyIntGetVector\000"
 7312      74476574 
 7312      56656374 
 7312      6F7200
 7313 046a 8A0A0000 		.4byte	0xa8a
 7314 046e 4379496E 		.ascii	"CyIntSetPriority\000"
 7314      74536574 
 7314      5072696F 
 7314      72697479 
 7314      00
 7315 047f C30A0000 		.4byte	0xac3
 7316 0483 4379496E 		.ascii	"CyIntGetPriority\000"
 7316      74476574 
 7316      5072696F 
 7316      72697479 
 7316      00
 7317 0494 000B0000 		.4byte	0xb00
 7318 0498 4379496E 		.ascii	"CyIntEnable\000"
 7318      74456E61 
 7318      626C6500 
 7319 04a4 440B0000 		.4byte	0xb44
 7320 04a8 4379496E 		.ascii	"CyIntGetState\000"
 7320      74476574 
 7320      53746174 
 7320      6500
 7321 04b6 810B0000 		.4byte	0xb81
 7322 04ba 4379496E 		.ascii	"CyIntDisable\000"
 7322      74446973 
ARM GAS  C:\Users\Heiwa\AppData\Local\Temp\ccuYQ69z.s 			page 178


 7322      61626C65 
 7322      00
 7323 04c7 BA0B0000 		.4byte	0xbba
 7324 04cb 4379496E 		.ascii	"CyIntSetPending\000"
 7324      74536574 
 7324      50656E64 
 7324      696E6700 
 7325 04db F30B0000 		.4byte	0xbf3
 7326 04df 4379496E 		.ascii	"CyIntClearPending\000"
 7326      74436C65 
 7326      61725065 
 7326      6E64696E 
 7326      6700
 7327 04f1 2C0C0000 		.4byte	0xc2c
 7328 04f5 43795265 		.ascii	"CyResetStatus\000"
 7328      73657453 
 7328      74617475 
 7328      7300
 7329 0503 3E0C0000 		.4byte	0xc3e
 7330 0507 63796465 		.ascii	"cydelay_freq_hz\000"
 7330      6C61795F 
 7330      66726571 
 7330      5F687A00 
 7331 0517 500C0000 		.4byte	0xc50
 7332 051b 63796465 		.ascii	"cydelay_freq_khz\000"
 7332      6C61795F 
 7332      66726571 
 7332      5F6B687A 
 7332      00
 7333 052c 620C0000 		.4byte	0xc62
 7334 0530 63796465 		.ascii	"cydelay_freq_mhz\000"
 7334      6C61795F 
 7334      66726571 
 7334      5F6D687A 
 7334      00
 7335 0541 740C0000 		.4byte	0xc74
 7336 0545 63796465 		.ascii	"cydelay_32k_ms\000"
 7336      6C61795F 
 7336      33326B5F 
 7336      6D7300
 7337 0554 00000000 		.4byte	0x0
 7338              		.section	.debug_aranges,"",%progbits
 7339 0000 FC010000 		.4byte	0x1fc
 7340 0004 0200     		.2byte	0x2
 7341 0006 00000000 		.4byte	.Ldebug_info0
 7342 000a 04       		.byte	0x4
 7343 000b 00       		.byte	0x0
 7344 000c 0000     		.2byte	0x0
 7345 000e 0000     		.2byte	0x0
 7346 0010 00000000 		.4byte	.LFB0
 7347 0014 DA000000 		.4byte	.LFE0-.LFB0
 7348 0018 00000000 		.4byte	.LFB1
 7349 001c 24000000 		.4byte	.LFE1-.LFB1
 7350 0020 00000000 		.4byte	.LFB2
 7351 0024 02010000 		.4byte	.LFE2-.LFB2
 7352 0028 00000000 		.4byte	.LFB3
 7353 002c 7A000000 		.4byte	.LFE3-.LFB3
ARM GAS  C:\Users\Heiwa\AppData\Local\Temp\ccuYQ69z.s 			page 179


 7354 0030 00000000 		.4byte	.LFB4
 7355 0034 D0000000 		.4byte	.LFE4-.LFB4
 7356 0038 00000000 		.4byte	.LFB5
 7357 003c 24000000 		.4byte	.LFE5-.LFB5
 7358 0040 00000000 		.4byte	.LFB6
 7359 0044 74000000 		.4byte	.LFE6-.LFB6
 7360 0048 00000000 		.4byte	.LFB7
 7361 004c 2A010000 		.4byte	.LFE7-.LFB7
 7362 0050 00000000 		.4byte	.LFB8
 7363 0054 B2010000 		.4byte	.LFE8-.LFB8
 7364 0058 00000000 		.4byte	.LFB9
 7365 005c B8000000 		.4byte	.LFE9-.LFB9
 7366 0060 00000000 		.4byte	.LFB10
 7367 0064 26000000 		.4byte	.LFE10-.LFB10
 7368 0068 00000000 		.4byte	.LFB11
 7369 006c 24000000 		.4byte	.LFE11-.LFB11
 7370 0070 00000000 		.4byte	.LFB12
 7371 0074 70000000 		.4byte	.LFE12-.LFB12
 7372 0078 00000000 		.4byte	.LFB13
 7373 007c 20000000 		.4byte	.LFE13-.LFB13
 7374 0080 00000000 		.4byte	.LFB14
 7375 0084 84000000 		.4byte	.LFE14-.LFB14
 7376 0088 00000000 		.4byte	.LFB15
 7377 008c A4000000 		.4byte	.LFE15-.LFB15
 7378 0090 00000000 		.4byte	.LFB16
 7379 0094 3C000000 		.4byte	.LFE16-.LFB16
 7380 0098 00000000 		.4byte	.LFB17
 7381 009c 26000000 		.4byte	.LFE17-.LFB17
 7382 00a0 00000000 		.4byte	.LFB18
 7383 00a4 24000000 		.4byte	.LFE18-.LFB18
 7384 00a8 00000000 		.4byte	.LFB19
 7385 00ac 26000000 		.4byte	.LFE19-.LFB19
 7386 00b0 00000000 		.4byte	.LFB20
 7387 00b4 24000000 		.4byte	.LFE20-.LFB20
 7388 00b8 00000000 		.4byte	.LFB21
 7389 00bc 26000000 		.4byte	.LFE21-.LFB21
 7390 00c0 00000000 		.4byte	.LFB22
 7391 00c4 24000000 		.4byte	.LFE22-.LFB22
 7392 00c8 00000000 		.4byte	.LFB23
 7393 00cc 42000000 		.4byte	.LFE23-.LFB23
 7394 00d0 00000000 		.4byte	.LFB24
 7395 00d4 58000000 		.4byte	.LFE24-.LFB24
 7396 00d8 00000000 		.4byte	.LFB25
 7397 00dc 9C000000 		.4byte	.LFE25-.LFB25
 7398 00e0 00000000 		.4byte	.LFB26
 7399 00e4 60000000 		.4byte	.LFE26-.LFB26
 7400 00e8 00000000 		.4byte	.LFB27
 7401 00ec 1C000000 		.4byte	.LFE27-.LFB27
 7402 00f0 00000000 		.4byte	.LFB28
 7403 00f4 F6000000 		.4byte	.LFE28-.LFB28
 7404 00f8 00000000 		.4byte	.LFB29
 7405 00fc E2000000 		.4byte	.LFE29-.LFB29
 7406 0100 00000000 		.4byte	.LFB30
 7407 0104 24000000 		.4byte	.LFE30-.LFB30
 7408 0108 00000000 		.4byte	.LFB31
 7409 010c 3C000000 		.4byte	.LFE31-.LFB31
 7410 0110 00000000 		.4byte	.LFB32
ARM GAS  C:\Users\Heiwa\AppData\Local\Temp\ccuYQ69z.s 			page 180


 7411 0114 16000000 		.4byte	.LFE32-.LFB32
 7412 0118 00000000 		.4byte	.LFB33
 7413 011c 18000000 		.4byte	.LFE33-.LFB33
 7414 0120 00000000 		.4byte	.LFB34
 7415 0124 48000000 		.4byte	.LFE34-.LFB34
 7416 0128 00000000 		.4byte	.LFB35
 7417 012c 28000000 		.4byte	.LFE35-.LFB35
 7418 0130 00000000 		.4byte	.LFB36
 7419 0134 AC000000 		.4byte	.LFE36-.LFB36
 7420 0138 00000000 		.4byte	.LFB37
 7421 013c 98000000 		.4byte	.LFE37-.LFB37
 7422 0140 00000000 		.4byte	.LFB38
 7423 0144 44000000 		.4byte	.LFE38-.LFB38
 7424 0148 00000000 		.4byte	.LFB39
 7425 014c B2000000 		.4byte	.LFE39-.LFB39
 7426 0150 00000000 		.4byte	.LFB40
 7427 0154 B8000000 		.4byte	.LFE40-.LFB40
 7428 0158 00000000 		.4byte	.LFB41
 7429 015c 38000000 		.4byte	.LFE41-.LFB41
 7430 0160 00000000 		.4byte	.LFB42
 7431 0164 38000000 		.4byte	.LFE42-.LFB42
 7432 0168 00000000 		.4byte	.LFB43
 7433 016c 7C000000 		.4byte	.LFE43-.LFB43
 7434 0170 00000000 		.4byte	.LFB44
 7435 0174 24000000 		.4byte	.LFE44-.LFB44
 7436 0178 00000000 		.4byte	.LFB45
 7437 017c 4C000000 		.4byte	.LFE45-.LFB45
 7438 0180 00000000 		.4byte	.LFB46
 7439 0184 2E000000 		.4byte	.LFE46-.LFB46
 7440 0188 00000000 		.4byte	.LFB47
 7441 018c 2E000000 		.4byte	.LFE47-.LFB47
 7442 0190 00000000 		.4byte	.LFB48
 7443 0194 1E000000 		.4byte	.LFE48-.LFB48
 7444 0198 00000000 		.4byte	.LFB49
 7445 019c 38000000 		.4byte	.LFE49-.LFB49
 7446 01a0 00000000 		.4byte	.LFB50
 7447 01a4 5E000000 		.4byte	.LFE50-.LFB50
 7448 01a8 00000000 		.4byte	.LFB51
 7449 01ac 46000000 		.4byte	.LFE51-.LFB51
 7450 01b0 00000000 		.4byte	.LFB52
 7451 01b4 66000000 		.4byte	.LFE52-.LFB52
 7452 01b8 00000000 		.4byte	.LFB53
 7453 01bc 4A000000 		.4byte	.LFE53-.LFB53
 7454 01c0 00000000 		.4byte	.LFB54
 7455 01c4 5A000000 		.4byte	.LFE54-.LFB54
 7456 01c8 00000000 		.4byte	.LFB55
 7457 01cc 44000000 		.4byte	.LFE55-.LFB55
 7458 01d0 00000000 		.4byte	.LFB56
 7459 01d4 46000000 		.4byte	.LFE56-.LFB56
 7460 01d8 00000000 		.4byte	.LFB57
 7461 01dc 52000000 		.4byte	.LFE57-.LFB57
 7462 01e0 00000000 		.4byte	.LFB58
 7463 01e4 46000000 		.4byte	.LFE58-.LFB58
 7464 01e8 00000000 		.4byte	.LFB59
 7465 01ec 46000000 		.4byte	.LFE59-.LFB59
 7466 01f0 00000000 		.4byte	.LFB60
 7467 01f4 46000000 		.4byte	.LFE60-.LFB60
ARM GAS  C:\Users\Heiwa\AppData\Local\Temp\ccuYQ69z.s 			page 181


 7468 01f8 00000000 		.4byte	0x0
 7469 01fc 00000000 		.4byte	0x0
 7470              		.section	.debug_ranges,"",%progbits
 7471              	.Ldebug_ranges0:
 7472 0000 00000000 		.4byte	.Ltext0
 7473 0004 00000000 		.4byte	.Letext0
 7474 0008 00000000 		.4byte	.LFB0
 7475 000c DA000000 		.4byte	.LFE0
 7476 0010 00000000 		.4byte	.LFB1
 7477 0014 24000000 		.4byte	.LFE1
 7478 0018 00000000 		.4byte	.LFB2
 7479 001c 02010000 		.4byte	.LFE2
 7480 0020 00000000 		.4byte	.LFB3
 7481 0024 7A000000 		.4byte	.LFE3
 7482 0028 00000000 		.4byte	.LFB4
 7483 002c D0000000 		.4byte	.LFE4
 7484 0030 00000000 		.4byte	.LFB5
 7485 0034 24000000 		.4byte	.LFE5
 7486 0038 00000000 		.4byte	.LFB6
 7487 003c 74000000 		.4byte	.LFE6
 7488 0040 00000000 		.4byte	.LFB7
 7489 0044 2A010000 		.4byte	.LFE7
 7490 0048 00000000 		.4byte	.LFB8
 7491 004c B2010000 		.4byte	.LFE8
 7492 0050 00000000 		.4byte	.LFB9
 7493 0054 B8000000 		.4byte	.LFE9
 7494 0058 00000000 		.4byte	.LFB10
 7495 005c 26000000 		.4byte	.LFE10
 7496 0060 00000000 		.4byte	.LFB11
 7497 0064 24000000 		.4byte	.LFE11
 7498 0068 00000000 		.4byte	.LFB12
 7499 006c 70000000 		.4byte	.LFE12
 7500 0070 00000000 		.4byte	.LFB13
 7501 0074 20000000 		.4byte	.LFE13
 7502 0078 00000000 		.4byte	.LFB14
 7503 007c 84000000 		.4byte	.LFE14
 7504 0080 00000000 		.4byte	.LFB15
 7505 0084 A4000000 		.4byte	.LFE15
 7506 0088 00000000 		.4byte	.LFB16
 7507 008c 3C000000 		.4byte	.LFE16
 7508 0090 00000000 		.4byte	.LFB17
 7509 0094 26000000 		.4byte	.LFE17
 7510 0098 00000000 		.4byte	.LFB18
 7511 009c 24000000 		.4byte	.LFE18
 7512 00a0 00000000 		.4byte	.LFB19
 7513 00a4 26000000 		.4byte	.LFE19
 7514 00a8 00000000 		.4byte	.LFB20
 7515 00ac 24000000 		.4byte	.LFE20
 7516 00b0 00000000 		.4byte	.LFB21
 7517 00b4 26000000 		.4byte	.LFE21
 7518 00b8 00000000 		.4byte	.LFB22
 7519 00bc 24000000 		.4byte	.LFE22
 7520 00c0 00000000 		.4byte	.LFB23
 7521 00c4 42000000 		.4byte	.LFE23
 7522 00c8 00000000 		.4byte	.LFB24
 7523 00cc 58000000 		.4byte	.LFE24
 7524 00d0 00000000 		.4byte	.LFB25
ARM GAS  C:\Users\Heiwa\AppData\Local\Temp\ccuYQ69z.s 			page 182


 7525 00d4 9C000000 		.4byte	.LFE25
 7526 00d8 00000000 		.4byte	.LFB26
 7527 00dc 60000000 		.4byte	.LFE26
 7528 00e0 00000000 		.4byte	.LFB27
 7529 00e4 1C000000 		.4byte	.LFE27
 7530 00e8 00000000 		.4byte	.LFB28
 7531 00ec F6000000 		.4byte	.LFE28
 7532 00f0 00000000 		.4byte	.LFB29
 7533 00f4 E2000000 		.4byte	.LFE29
 7534 00f8 00000000 		.4byte	.LFB30
 7535 00fc 24000000 		.4byte	.LFE30
 7536 0100 00000000 		.4byte	.LFB31
 7537 0104 3C000000 		.4byte	.LFE31
 7538 0108 00000000 		.4byte	.LFB32
 7539 010c 16000000 		.4byte	.LFE32
 7540 0110 00000000 		.4byte	.LFB33
 7541 0114 18000000 		.4byte	.LFE33
 7542 0118 00000000 		.4byte	.LFB34
 7543 011c 48000000 		.4byte	.LFE34
 7544 0120 00000000 		.4byte	.LFB35
 7545 0124 28000000 		.4byte	.LFE35
 7546 0128 00000000 		.4byte	.LFB36
 7547 012c AC000000 		.4byte	.LFE36
 7548 0130 00000000 		.4byte	.LFB37
 7549 0134 98000000 		.4byte	.LFE37
 7550 0138 00000000 		.4byte	.LFB38
 7551 013c 44000000 		.4byte	.LFE38
 7552 0140 00000000 		.4byte	.LFB39
 7553 0144 B2000000 		.4byte	.LFE39
 7554 0148 00000000 		.4byte	.LFB40
 7555 014c B8000000 		.4byte	.LFE40
 7556 0150 00000000 		.4byte	.LFB41
 7557 0154 38000000 		.4byte	.LFE41
 7558 0158 00000000 		.4byte	.LFB42
 7559 015c 38000000 		.4byte	.LFE42
 7560 0160 00000000 		.4byte	.LFB43
 7561 0164 7C000000 		.4byte	.LFE43
 7562 0168 00000000 		.4byte	.LFB44
 7563 016c 24000000 		.4byte	.LFE44
 7564 0170 00000000 		.4byte	.LFB45
 7565 0174 4C000000 		.4byte	.LFE45
 7566 0178 00000000 		.4byte	.LFB46
 7567 017c 2E000000 		.4byte	.LFE46
 7568 0180 00000000 		.4byte	.LFB47
 7569 0184 2E000000 		.4byte	.LFE47
 7570 0188 00000000 		.4byte	.LFB48
 7571 018c 1E000000 		.4byte	.LFE48
 7572 0190 00000000 		.4byte	.LFB49
 7573 0194 38000000 		.4byte	.LFE49
 7574 0198 00000000 		.4byte	.LFB50
 7575 019c 5E000000 		.4byte	.LFE50
 7576 01a0 00000000 		.4byte	.LFB51
 7577 01a4 46000000 		.4byte	.LFE51
 7578 01a8 00000000 		.4byte	.LFB52
 7579 01ac 66000000 		.4byte	.LFE52
 7580 01b0 00000000 		.4byte	.LFB53
 7581 01b4 4A000000 		.4byte	.LFE53
ARM GAS  C:\Users\Heiwa\AppData\Local\Temp\ccuYQ69z.s 			page 183


 7582 01b8 00000000 		.4byte	.LFB54
 7583 01bc 5A000000 		.4byte	.LFE54
 7584 01c0 00000000 		.4byte	.LFB55
 7585 01c4 44000000 		.4byte	.LFE55
 7586 01c8 00000000 		.4byte	.LFB56
 7587 01cc 46000000 		.4byte	.LFE56
 7588 01d0 00000000 		.4byte	.LFB57
 7589 01d4 52000000 		.4byte	.LFE57
 7590 01d8 00000000 		.4byte	.LFB58
 7591 01dc 46000000 		.4byte	.LFE58
 7592 01e0 00000000 		.4byte	.LFB59
 7593 01e4 46000000 		.4byte	.LFE59
 7594 01e8 00000000 		.4byte	.LFB60
 7595 01ec 46000000 		.4byte	.LFE60
 7596 01f0 00000000 		.4byte	0x0
 7597 01f4 00000000 		.4byte	0x0
 7598              		.section	.debug_str,"MS",%progbits,1
 7599              	.LASF106:
 7600 0000 72616D56 		.ascii	"ramVectorTable\000"
 7600      6563746F 
 7600      72546162 
 7600      6C6500
 7601              	.LASF67:
 7602 000f 636F756E 		.ascii	"count\000"
 7602      7400
 7603              	.LASF11:
 7604 0015 75696E74 		.ascii	"uint16\000"
 7604      313600
 7605              	.LASF46:
 7606 001c 64697669 		.ascii	"divider\000"
 7606      64657200 
 7607              	.LASF85:
 7608 0024 72657365 		.ascii	"reset\000"
 7608      7400
 7609              	.LASF24:
 7610 002a 4379494D 		.ascii	"CyIMO_Start\000"
 7610      4F5F5374 
 7610      61727400 
 7611              	.LASF55:
 7612 0036 4379494C 		.ascii	"CyILO_Stop100K\000"
 7612      4F5F5374 
 7612      6F703130 
 7612      304B00
 7613              	.LASF40:
 7614 0045 4379494D 		.ascii	"CyIMO_EnableDoubler\000"
 7614      4F5F456E 
 7614      61626C65 
 7614      446F7562 
 7614      6C657200 
 7615              	.LASF17:
 7616 0059 706D5477 		.ascii	"pmTwCfg0\000"
 7616      43666730 
 7616      00
 7617              	.LASF18:
 7618 0062 706D5477 		.ascii	"pmTwCfg2\000"
 7618      43666732 
 7618      00
ARM GAS  C:\Users\Heiwa\AppData\Local\Temp\ccuYQ69z.s 			page 184


 7619              	.LASF47:
 7620 006b 43794275 		.ascii	"CyBusClk_Internal_SetDivider\000"
 7620      73436C6B 
 7620      5F496E74 
 7620      65726E61 
 7620      6C5F5365 
 7621              	.LASF62:
 7622 0088 43795854 		.ascii	"CyXTAL_32KHZ_Start\000"
 7622      414C5F33 
 7622      324B485A 
 7622      5F537461 
 7622      727400
 7623              	.LASF6:
 7624 009b 6C6F6E67 		.ascii	"long long unsigned int\000"
 7624      206C6F6E 
 7624      6720756E 
 7624      7369676E 
 7624      65642069 
 7625              	.LASF127:
 7626 00b2 474E5520 		.ascii	"GNU C 4.4.1\000"
 7626      4320342E 
 7626      342E3100 
 7627              	.LASF114:
 7628 00be 656E6162 		.ascii	"enableReg\000"
 7628      6C655265 
 7628      6700
 7629              	.LASF73:
 7630 00c8 4379536F 		.ascii	"CySoftwareReset\000"
 7630      66747761 
 7630      72655265 
 7630      73657400 
 7631              	.LASF125:
 7632 00d8 63796465 		.ascii	"cydelay_freq_mhz\000"
 7632      6C61795F 
 7632      66726571 
 7632      5F6D687A 
 7632      00
 7633              	.LASF115:
 7634 00e9 4379496E 		.ascii	"CyIntGetState\000"
 7634      74476574 
 7634      53746174 
 7634      6500
 7635              	.LASF5:
 7636 00f7 6C6F6E67 		.ascii	"long long int\000"
 7636      206C6F6E 
 7636      6720696E 
 7636      7400
 7637              	.LASF0:
 7638 0105 7369676E 		.ascii	"signed char\000"
 7638      65642063 
 7638      68617200 
 7639              	.LASF34:
 7640 0111 66726571 		.ascii	"freq\000"
 7640      00
 7641              	.LASF78:
 7642 0116 43794465 		.ascii	"CyDelayFreq\000"
 7642      6C617946 
ARM GAS  C:\Users\Heiwa\AppData\Local\Temp\ccuYQ69z.s 			page 185


 7642      72657100 
 7643              	.LASF95:
 7644 0122 696E7465 		.ascii	"interruptState\000"
 7644      72727570 
 7644      74537461 
 7644      746500
 7645              	.LASF52:
 7646 0131 4379494C 		.ascii	"CyILO_Start1K\000"
 7646      4F5F5374 
 7646      61727431 
 7646      4B00
 7647              	.LASF19:
 7648 013f 77616974 		.ascii	"wait\000"
 7648      00
 7649              	.LASF61:
 7650 0144 73746174 		.ascii	"state\000"
 7650      6500
 7651              	.LASF7:
 7652 014a 6C6F6E67 		.ascii	"long int\000"
 7652      20696E74 
 7652      00
 7653              	.LASF117:
 7654 0153 4379496E 		.ascii	"CyIntDisable\000"
 7654      74446973 
 7654      61626C65 
 7654      00
 7655              	.LASF22:
 7656 0160 4379504C 		.ascii	"CyPLL_OUT_SetSource\000"
 7656      4C5F4F55 
 7656      545F5365 
 7656      74536F75 
 7656      72636500 
 7657              	.LASF118:
 7658 0174 636C6561 		.ascii	"clearReg\000"
 7658      72526567 
 7658      00
 7659              	.LASF49:
 7660 017d 63757272 		.ascii	"current_busclk_divider\000"
 7660      656E745F 
 7660      62757363 
 7660      6C6B5F64 
 7660      69766964 
 7661              	.LASF10:
 7662 0194 75696E74 		.ascii	"uint8\000"
 7662      3800
 7663              	.LASF76:
 7664 019a 43794465 		.ascii	"CyDelayUs\000"
 7664      6C617955 
 7664      7300
 7665              	.LASF105:
 7666 01a4 6F6C6449 		.ascii	"oldIsr\000"
 7666      737200
 7667              	.LASF53:
 7668 01ab 4379494C 		.ascii	"CyILO_Stop1K\000"
 7668      4F5F5374 
 7668      6F70314B 
 7668      00
ARM GAS  C:\Users\Heiwa\AppData\Local\Temp\ccuYQ69z.s 			page 186


 7669              	.LASF82:
 7670 01b8 43795764 		.ascii	"CyWdtClear\000"
 7670      74436C65 
 7670      617200
 7671              	.LASF12:
 7672 01c3 75696E74 		.ascii	"uint32\000"
 7672      333200
 7673              	.LASF93:
 7674 01ca 6D61736B 		.ascii	"mask\000"
 7674      00
 7675              	.LASF120:
 7676 01cf 70656E64 		.ascii	"pendReg\000"
 7676      52656700 
 7677              	.LASF112:
 7678 01d7 4379496E 		.ascii	"CyIntGetPriority\000"
 7678      74476574 
 7678      5072696F 
 7678      72697479 
 7678      00
 7679              	.LASF50:
 7680 01e8 63757272 		.ascii	"current_masterclk_divider\000"
 7680      656E745F 
 7680      6D617374 
 7680      6572636C 
 7680      6B5F6469 
 7681              	.LASF107:
 7682 0202 4379496E 		.ascii	"CyIntGetSysVector\000"
 7682      74476574 
 7682      53797356 
 7682      6563746F 
 7682      7200
 7683              	.LASF96:
 7684 0214 5664466C 		.ascii	"VdFlagsState\000"
 7684      61677353 
 7684      74617465 
 7684      00
 7685              	.LASF37:
 7686 0221 63757272 		.ascii	"current_freq\000"
 7686      656E745F 
 7686      66726571 
 7686      00
 7687              	.LASF4:
 7688 022e 756E7369 		.ascii	"unsigned int\000"
 7688      676E6564 
 7688      20696E74 
 7688      00
 7689              	.LASF39:
 7690 023b 4379494D 		.ascii	"CyIMO_SetSource\000"
 7690      4F5F5365 
 7690      74536F75 
 7690      72636500 
 7691              	.LASF31:
 7692 024b 43795553 		.ascii	"CyUSB_PowerOnCheck\000"
 7692      425F506F 
 7692      7765724F 
 7692      6E436865 
 7692      636B00
ARM GAS  C:\Users\Heiwa\AppData\Local\Temp\ccuYQ69z.s 			page 187


 7693              	.LASF8:
 7694 025e 6C6F6E67 		.ascii	"long unsigned int\000"
 7694      20756E73 
 7694      69676E65 
 7694      6420696E 
 7694      7400
 7695              	.LASF66:
 7696 0270 74696D65 		.ascii	"timeout\000"
 7696      6F757400 
 7697              	.LASF87:
 7698 0278 43795664 		.ascii	"CyVdLvAnalogEnable\000"
 7698      4C76416E 
 7698      616C6F67 
 7698      456E6162 
 7698      6C6500
 7699              	.LASF119:
 7700 028b 4379496E 		.ascii	"CyIntSetPending\000"
 7700      74536574 
 7700      50656E64 
 7700      696E6700 
 7701              	.LASF97:
 7702 029b 43794469 		.ascii	"CyDisableInts\000"
 7702      7361626C 
 7702      65496E74 
 7702      7300
 7703              	.LASF63:
 7704 02a9 43795854 		.ascii	"CyXTAL_32KHZ_Stop\000"
 7704      414C5F33 
 7704      324B485A 
 7704      5F53746F 
 7704      7000
 7705              	.LASF59:
 7706 02bb 4379494C 		.ascii	"CyILO_SetPowerMode\000"
 7706      4F5F5365 
 7706      74506F77 
 7706      65724D6F 
 7706      646500
 7707              	.LASF29:
 7708 02ce 4379494D 		.ascii	"CyIMO_Stop\000"
 7708      4F5F5374 
 7708      6F7000
 7709              	.LASF3:
 7710 02d9 73686F72 		.ascii	"short unsigned int\000"
 7710      7420756E 
 7710      7369676E 
 7710      65642069 
 7710      6E7400
 7711              	.LASF79:
 7712 02ec 43795764 		.ascii	"CyWdtStart\000"
 7712      74537461 
 7712      727400
 7713              	.LASF108:
 7714 02f7 4379496E 		.ascii	"CyIntSetVector\000"
 7714      74536574 
 7714      56656374 
 7714      6F7200
 7715              	.LASF44:
ARM GAS  C:\Users\Heiwa\AppData\Local\Temp\ccuYQ69z.s 			page 188


 7716 0306 6D617374 		.ascii	"master_reg_0\000"
 7716      65725F72 
 7716      65675F30 
 7716      00
 7717              	.LASF43:
 7718 0313 6D617374 		.ascii	"master_reg_1\000"
 7718      65725F72 
 7718      65675F31 
 7718      00
 7719              	.LASF42:
 7720 0320 43794D61 		.ascii	"CyMasterClk_SetSource\000"
 7720      73746572 
 7720      436C6B5F 
 7720      53657453 
 7720      6F757263 
 7721              	.LASF103:
 7722 0336 6E756D62 		.ascii	"number\000"
 7722      657200
 7723              	.LASF111:
 7724 033d 7072696F 		.ascii	"priority\000"
 7724      72697479 
 7724      00
 7725              	.LASF110:
 7726 0346 4379496E 		.ascii	"CyIntSetPriority\000"
 7726      74536574 
 7726      5072696F 
 7726      72697479 
 7726      00
 7727              	.LASF21:
 7728 0357 4379504C 		.ascii	"CyPLL_OUT_SetPQ\000"
 7728      4C5F4F55 
 7728      545F5365 
 7728      74505100 
 7729              	.LASF121:
 7730 0367 4379496E 		.ascii	"CyIntClearPending\000"
 7730      74436C65 
 7730      61725065 
 7730      6E64696E 
 7730      6700
 7731              	.LASF102:
 7732 0379 4379496E 		.ascii	"CyIntSetSysVector\000"
 7732      74536574 
 7732      53797356 
 7732      6563746F 
 7732      7200
 7733              	.LASF65:
 7734 038b 43795854 		.ascii	"CyXTAL_Start\000"
 7734      414C5F53 
 7734      74617274 
 7734      00
 7735              	.LASF91:
 7736 0398 43795664 		.ascii	"CyVdHvAnalogDisable\000"
 7736      4876416E 
 7736      616C6F67 
 7736      44697361 
 7736      626C6500 
 7737              	.LASF124:
ARM GAS  C:\Users\Heiwa\AppData\Local\Temp\ccuYQ69z.s 			page 189


 7738 03ac 63796465 		.ascii	"cydelay_freq_khz\000"
 7738      6C61795F 
 7738      66726571 
 7738      5F6B687A 
 7738      00
 7739              	.LASF23:
 7740 03bd 736F7572 		.ascii	"source\000"
 7740      636500
 7741              	.LASF69:
 7742 03c4 43795854 		.ascii	"CyXTAL_SetStartup\000"
 7742      414C5F53 
 7742      65745374 
 7742      61727475 
 7742      7000
 7743              	.LASF80:
 7744 03d6 7469636B 		.ascii	"ticks\000"
 7744      7300
 7745              	.LASF41:
 7746 03dc 4379494D 		.ascii	"CyIMO_DisableDoubler\000"
 7746      4F5F4469 
 7746      7361626C 
 7746      65446F75 
 7746      626C6572 
 7747              	.LASF104:
 7748 03f1 61646472 		.ascii	"address\000"
 7748      65737300 
 7749              	.LASF28:
 7750 03f9 4379504C 		.ascii	"CyPLL_OUT_Stop\000"
 7750      4C5F4F55 
 7750      545F5374 
 7750      6F7000
 7751              	.LASF94:
 7752 0408 43795664 		.ascii	"CyVdRealTimeStatus\000"
 7752      5265616C 
 7752      54696D65 
 7752      53746174 
 7752      757300
 7753              	.LASF54:
 7754 041b 4379494C 		.ascii	"CyILO_Start100K\000"
 7754      4F5F5374 
 7754      61727431 
 7754      30304B00 
 7755              	.LASF35:
 7756 042b 7573625F 		.ascii	"usb_power_on\000"
 7756      706F7765 
 7756      725F6F6E 
 7756      00
 7757              	.LASF101:
 7758 0438 6374726C 		.ascii	"ctrlreg\000"
 7758      72656700 
 7759              	.LASF122:
 7760 0440 43795265 		.ascii	"CyResetStatus\000"
 7760      73657453 
 7760      74617475 
 7760      7300
 7761              	.LASF128:
 7762 044e 2E5C4765 		.ascii	".\\Generated_Source\\PSoC5\\CyLib.c\000"
ARM GAS  C:\Users\Heiwa\AppData\Local\Temp\ccuYQ69z.s 			page 190


 7762      6E657261 
 7762      7465645F 
 7762      536F7572 
 7762      63655C50 
 7763              	.LASF45:
 7764 046f 43794D61 		.ascii	"CyMasterClk_SetDivider\000"
 7764      73746572 
 7764      436C6B5F 
 7764      53657444 
 7764      69766964 
 7765              	.LASF20:
 7766 0486 63757272 		.ascii	"current\000"
 7766      656E7400 
 7767              	.LASF64:
 7768 048e 43795854 		.ascii	"CyXTAL_32KHZ_SetPowerMode\000"
 7768      414C5F33 
 7768      324B485A 
 7768      5F536574 
 7768      506F7765 
 7769              	.LASF56:
 7770 04a8 4379494C 		.ascii	"CyILO_Enable33K\000"
 7770      4F5F456E 
 7770      61626C65 
 7770      33334B00 
 7771              	.LASF70:
 7772 04b8 73657474 		.ascii	"setting\000"
 7772      696E6700 
 7773              	.LASF109:
 7774 04c0 4379496E 		.ascii	"CyIntGetVector\000"
 7774      74476574 
 7774      56656374 
 7774      6F7200
 7775              	.LASF75:
 7776 04cf 6D696C6C 		.ascii	"milliseconds\000"
 7776      69736563 
 7776      6F6E6473 
 7776      00
 7777              	.LASF57:
 7778 04dc 4379494C 		.ascii	"CyILO_Disable33K\000"
 7778      4F5F4469 
 7778      7361626C 
 7778      6533334B 
 7778      00
 7779              	.LASF123:
 7780 04ed 63796465 		.ascii	"cydelay_freq_hz\000"
 7780      6C61795F 
 7780      66726571 
 7780      5F687A00 
 7781              	.LASF92:
 7782 04fd 43795664 		.ascii	"CyVdStickyStatus\000"
 7782      53746963 
 7782      6B795374 
 7782      61747573 
 7782      00
 7783              	.LASF86:
 7784 050e 74687265 		.ascii	"threshold\000"
 7784      73686F6C 
ARM GAS  C:\Users\Heiwa\AppData\Local\Temp\ccuYQ69z.s 			page 191


 7784      6400
 7785              	.LASF71:
 7786 0518 43794861 		.ascii	"CyHalt\000"
 7786      6C7400
 7787              	.LASF1:
 7788 051f 756E7369 		.ascii	"unsigned char\000"
 7788      676E6564 
 7788      20636861 
 7788      7200
 7789              	.LASF2:
 7790 052d 73686F72 		.ascii	"short int\000"
 7790      7420696E 
 7790      7400
 7791              	.LASF129:
 7792 0537 433A5C55 		.ascii	"C:\\Users\\Heiwa\\Desktop\\PSOC_S Atmel_M\\PSoC Sla"
 7792      73657273 
 7792      5C486569 
 7792      77615C44 
 7792      65736B74 
 7793 0565 76655C50 		.ascii	"ve\\PSoC Slave.cydsn\000"
 7793      536F4320 
 7793      536C6176 
 7793      652E6379 
 7793      64736E00 
 7794              	.LASF16:
 7795 0579 696C6F45 		.ascii	"iloEnableState\000"
 7795      6E61626C 
 7795      65537461 
 7795      746500
 7796              	.LASF113:
 7797 0588 4379496E 		.ascii	"CyIntEnable\000"
 7797      74456E61 
 7797      626C6500 
 7798              	.LASF100:
 7799 0594 4379466C 		.ascii	"CyFlushCache\000"
 7799      75736843 
 7799      61636865 
 7799      00
 7800              	.LASF116:
 7801 05a1 73746174 		.ascii	"stateReg\000"
 7801      65526567 
 7801      00
 7802              	.LASF32:
 7803 05aa 706F7765 		.ascii	"powered_on\000"
 7803      7265645F 
 7803      6F6E00
 7804              	.LASF72:
 7805 05b5 72656173 		.ascii	"reason\000"
 7805      6F6E00
 7806              	.LASF98:
 7807 05bc 696E7453 		.ascii	"intState\000"
 7807      74617465 
 7807      00
 7808              	.LASF126:
 7809 05c5 63796465 		.ascii	"cydelay_32k_ms\000"
 7809      6C61795F 
 7809      33326B5F 
ARM GAS  C:\Users\Heiwa\AppData\Local\Temp\ccuYQ69z.s 			page 192


 7809      6D7300
 7810              	.LASF81:
 7811 05d4 6C704D6F 		.ascii	"lpMode\000"
 7811      646500
 7812              	.LASF9:
 7813 05db 63686172 		.ascii	"char\000"
 7813      00
 7814              	.LASF60:
 7815 05e0 6D6F6465 		.ascii	"mode\000"
 7815      00
 7816              	.LASF13:
 7817 05e5 63796973 		.ascii	"cyisraddress\000"
 7817      72616464 
 7817      72657373 
 7817      00
 7818              	.LASF30:
 7819 05f2 4379504C 		.ascii	"CyPLL_OUT_Start\000"
 7819      4C5F4F55 
 7819      545F5374 
 7819      61727400 
 7820              	.LASF89:
 7821 0602 43795664 		.ascii	"CyVdLvAnalogDisable\000"
 7821      4C76416E 
 7821      616C6F67 
 7821      44697361 
 7821      626C6500 
 7822              	.LASF99:
 7823 0616 4379456E 		.ascii	"CyEnableInts\000"
 7823      61626C65 
 7823      496E7473 
 7823      00
 7824              	.LASF51:
 7825 0623 43795573 		.ascii	"CyUsbClk_SetSource\000"
 7825      62436C6B 
 7825      5F536574 
 7825      536F7572 
 7825      636500
 7826              	.LASF26:
 7827 0636 706D5F74 		.ascii	"pm_tw_cfg0_state\000"
 7827      775F6366 
 7827      67305F73 
 7827      74617465 
 7827      00
 7828              	.LASF68:
 7829 0647 43795854 		.ascii	"CyXTAL_Stop\000"
 7829      414C5F53 
 7829      746F7000 
 7830              	.LASF25:
 7831 0653 706D5F74 		.ascii	"pm_tw_cfg2_state\000"
 7831      775F6366 
 7831      67325F73 
 7831      74617465 
 7831      00
 7832              	.LASF74:
 7833 0664 43794465 		.ascii	"CyDelay\000"
 7833      6C617900 
 7834              	.LASF48:
ARM GAS  C:\Users\Heiwa\AppData\Local\Temp\ccuYQ69z.s 			page 193


 7835 066c 43794275 		.ascii	"CyBusClk_SetDivider\000"
 7835      73436C6B 
 7835      5F536574 
 7835      44697669 
 7835      64657200 
 7836              	.LASF15:
 7837 0680 73746174 		.ascii	"status\000"
 7837      757300
 7838              	.LASF58:
 7839 0687 4379494C 		.ascii	"CyILO_SetSource\000"
 7839      4F5F5365 
 7839      74536F75 
 7839      72636500 
 7840              	.LASF83:
 7841 0697 77647443 		.ascii	"wdtCfg\000"
 7841      666700
 7842              	.LASF36:
 7843 069e 4379494D 		.ascii	"CyIMO_SetFreq\000"
 7843      4F5F5365 
 7843      74467265 
 7843      7100
 7844              	.LASF130:
 7845 06ac 43795854 		.ascii	"CyXTAL_32KHZ_ReadStatus\000"
 7845      414C5F33 
 7845      324B485A 
 7845      5F526561 
 7845      64537461 
 7846              	.LASF88:
 7847 06c4 43795664 		.ascii	"CyVdLvDigitDisable\000"
 7847      4C764469 
 7847      67697444 
 7847      69736162 
 7847      6C6500
 7848              	.LASF33:
 7849 06d7 4379494D 		.ascii	"CyIMO_SetTrimValue\000"
 7849      4F5F5365 
 7849      74547269 
 7849      6D56616C 
 7849      756500
 7850              	.LASF14:
 7851 06ea 63797374 		.ascii	"cystatus\000"
 7851      61747573 
 7851      00
 7852              	.LASF27:
 7853 06f3 696C6F5F 		.ascii	"ilo_clock_state\000"
 7853      636C6F63 
 7853      6B5F7374 
 7853      61746500 
 7854              	.LASF77:
 7855 0703 6D696372 		.ascii	"microseconds\000"
 7855      6F736563 
 7855      6F6E6473 
 7855      00
 7856              	.LASF90:
 7857 0710 43795664 		.ascii	"CyVdHvAnalogEnable\000"
 7857      4876416E 
 7857      616C6F67 
ARM GAS  C:\Users\Heiwa\AppData\Local\Temp\ccuYQ69z.s 			page 194


 7857      456E6162 
 7857      6C6500
 7858              	.LASF84:
 7859 0723 43795664 		.ascii	"CyVdLvDigitEnable\000"
 7859      4C764469 
 7859      67697445 
 7859      6E61626C 
 7859      6500
 7860              	.LASF38:
 7861 0735 6E657874 		.ascii	"next_freq\000"
 7861      5F667265 
 7861      7100
 7862              		.ident	"GCC: (Sourcery G++ Lite 2010q1-188) 4.4.1"
