ARM GAS  C:\Users\Heiwa\AppData\Local\Temp\ccuYQ69z.s 			page 1


   1              		.syntax unified
   2              		.cpu cortex-m3
   3              		.fpu softvfp
   4              		.eabi_attribute 20, 1
   5              		.eabi_attribute 21, 1
   6              		.eabi_attribute 23, 3
   7              		.eabi_attribute 24, 1
   8              		.eabi_attribute 25, 1
   9              		.eabi_attribute 26, 1
  10              		.eabi_attribute 30, 6
  11              		.eabi_attribute 18, 4
  12              		.thumb
  13              		.file	"CyLib.c"
  20 0000 E6050000 		.text
  20      02005E00 
  20      00000201 
  20      FB0E0D00 
  20      01010101 
  21              	.Ltext0:
  22              		.cfi_sections	.debug_frame
  23              		.comm	CyResetStatus,1,1
  24              		.global	cydelay_freq_hz
  25              		.data
  26              		.align	2
  27              		.type	cydelay_freq_hz, %object
  28              		.size	cydelay_freq_hz, 4
  29              	cydelay_freq_hz:
  30 0000 00366E01 		.word	24000000
  31              		.global	cydelay_freq_khz
  32              		.align	2
  33              		.type	cydelay_freq_khz, %object
  34              		.size	cydelay_freq_khz, 4
  35              	cydelay_freq_khz:
  36 0004 C05D0000 		.word	24000
  37              		.global	cydelay_freq_mhz
  38              		.type	cydelay_freq_mhz, %object
  39              		.size	cydelay_freq_mhz, 1
  40              	cydelay_freq_mhz:
  41 0008 18       		.byte	24
  42              		.global	cydelay_32k_ms
  43 0009 000000   		.align	2
  44              		.type	cydelay_32k_ms, %object
  45              		.size	cydelay_32k_ms, 4
  46              	cydelay_32k_ms:
  47 000c 0000E02E 		.word	786432000
  48              		.section	.text.CyPLL_OUT_Start,"ax",%progbits
  49              		.align	2
  50              		.global	CyPLL_OUT_Start
  51              		.thumb
  52              		.thumb_func
  53              		.type	CyPLL_OUT_Start, %function
ARM GAS  C:\Users\Heiwa\AppData\Local\Temp\ccuYQ69z.s 			page 2


  54              	CyPLL_OUT_Start:
  55              	.LFB0:
  56              		.file 1 ".\\Generated_Source\\PSoC5\\CyLib.c"
   1:.\Generated_Source\PSoC5/CyLib.c **** /*******************************************************************************
   2:.\Generated_Source\PSoC5/CyLib.c **** * File Name: CyLib.c
   3:.\Generated_Source\PSoC5/CyLib.c **** * Version 3.10
   4:.\Generated_Source\PSoC5/CyLib.c **** *
   5:.\Generated_Source\PSoC5/CyLib.c **** *  Description:
   6:.\Generated_Source\PSoC5/CyLib.c **** *   Provides system API for the clocking, interrupts and watchdog timer.
   7:.\Generated_Source\PSoC5/CyLib.c **** *
   8:.\Generated_Source\PSoC5/CyLib.c **** *  Note:
   9:.\Generated_Source\PSoC5/CyLib.c **** *   Documentation of the API's in this file is located in the
  10:.\Generated_Source\PSoC5/CyLib.c **** *   System Reference Guide provided with PSoC Creator.
  11:.\Generated_Source\PSoC5/CyLib.c **** *
  12:.\Generated_Source\PSoC5/CyLib.c **** ********************************************************************************
  13:.\Generated_Source\PSoC5/CyLib.c **** * Copyright 2008-2012, Cypress Semiconductor Corporation.  All rights reserved.
  14:.\Generated_Source\PSoC5/CyLib.c **** * You may use this file only in accordance with the license, terms, conditions,
  15:.\Generated_Source\PSoC5/CyLib.c **** * disclaimers, and limitations in the end user license agreement accompanying
  16:.\Generated_Source\PSoC5/CyLib.c **** * the software package with which this file was provided.
  17:.\Generated_Source\PSoC5/CyLib.c **** *******************************************************************************/
  18:.\Generated_Source\PSoC5/CyLib.c **** 
  19:.\Generated_Source\PSoC5/CyLib.c **** #include "CyLib.h"
  20:.\Generated_Source\PSoC5/CyLib.c **** 
  21:.\Generated_Source\PSoC5/CyLib.c **** uint8 CYXDATA CyResetStatus;
  22:.\Generated_Source\PSoC5/CyLib.c **** 
  23:.\Generated_Source\PSoC5/CyLib.c **** uint32 cydelay_freq_hz  = BCLK__BUS_CLK__HZ;
  24:.\Generated_Source\PSoC5/CyLib.c **** uint32 cydelay_freq_khz = (BCLK__BUS_CLK__HZ + 999u) / 1000u;
  25:.\Generated_Source\PSoC5/CyLib.c **** uint8  cydelay_freq_mhz = (uint8)((BCLK__BUS_CLK__HZ + 999999u) / 1000000u);
  26:.\Generated_Source\PSoC5/CyLib.c **** uint32 cydelay_32k_ms   = 32768 * ((BCLK__BUS_CLK__HZ + 999u) / 1000u);
  27:.\Generated_Source\PSoC5/CyLib.c **** 
  28:.\Generated_Source\PSoC5/CyLib.c **** /* Function Prototypes */
  29:.\Generated_Source\PSoC5/CyLib.c **** uint8 CyUSB_PowerOnCheck(void)  ;
  30:.\Generated_Source\PSoC5/CyLib.c **** void CyIMO_SetTrimValue(uint8 freq) ;
  31:.\Generated_Source\PSoC5/CyLib.c **** void CyBusClk_Internal_SetDivider(uint16 divider);
  32:.\Generated_Source\PSoC5/CyLib.c **** 
  33:.\Generated_Source\PSoC5/CyLib.c **** 
  34:.\Generated_Source\PSoC5/CyLib.c **** /*******************************************************************************
  35:.\Generated_Source\PSoC5/CyLib.c **** * Function Name: CyPLL_OUT_Start
  36:.\Generated_Source\PSoC5/CyLib.c **** ********************************************************************************
  37:.\Generated_Source\PSoC5/CyLib.c **** *
  38:.\Generated_Source\PSoC5/CyLib.c **** * Summary:
  39:.\Generated_Source\PSoC5/CyLib.c **** *   Enables the PLL.  Optionally waits for it to become stable.
  40:.\Generated_Source\PSoC5/CyLib.c **** *   Waits at least 250 us or until it is detected that the PLL is stable.
  41:.\Generated_Source\PSoC5/CyLib.c **** *
  42:.\Generated_Source\PSoC5/CyLib.c **** * Parameters:
  43:.\Generated_Source\PSoC5/CyLib.c **** *   wait:
  44:.\Generated_Source\PSoC5/CyLib.c **** *    0: Return immediately after configuration
  45:.\Generated_Source\PSoC5/CyLib.c **** *    1: Wait for PLL lock or timeout.
  46:.\Generated_Source\PSoC5/CyLib.c **** *
  47:.\Generated_Source\PSoC5/CyLib.c **** * Return:
  48:.\Generated_Source\PSoC5/CyLib.c **** *   Status
  49:.\Generated_Source\PSoC5/CyLib.c **** *    CYRET_SUCCESS - Completed successfully
  50:.\Generated_Source\PSoC5/CyLib.c **** *    CYRET_TIMEOUT - Timeout occurred without detecting a stable clock.
  51:.\Generated_Source\PSoC5/CyLib.c **** *     If the input source of the clock is jittery, then the lock indication
  52:.\Generated_Source\PSoC5/CyLib.c **** *     may not occur.  However, after the timeout has expired the generated PLL
  53:.\Generated_Source\PSoC5/CyLib.c **** *     clock can still be used.
  54:.\Generated_Source\PSoC5/CyLib.c **** *
ARM GAS  C:\Users\Heiwa\AppData\Local\Temp\ccuYQ69z.s 			page 3


  55:.\Generated_Source\PSoC5/CyLib.c **** * Side Effects:
  56:.\Generated_Source\PSoC5/CyLib.c **** *  If wait is enabled: This function wses the Fast Time Wheel to time the wait.
  57:.\Generated_Source\PSoC5/CyLib.c **** *  Any other use of the Fast Time Wheel will be stopped during the period of
  58:.\Generated_Source\PSoC5/CyLib.c **** *  this function and then restored. This function also uses the 100 KHz ILO.
  59:.\Generated_Source\PSoC5/CyLib.c **** *  If not enabled, this function will enable the 100 KHz ILO for the period of
  60:.\Generated_Source\PSoC5/CyLib.c **** *  this function.
  61:.\Generated_Source\PSoC5/CyLib.c **** *
  62:.\Generated_Source\PSoC5/CyLib.c **** *  No changes to the setup of the ILO, Fast Time Wheel, Central Time Wheel or
  63:.\Generated_Source\PSoC5/CyLib.c **** *  Once Per Second interrupt may be made by interrupt routines during the period
  64:.\Generated_Source\PSoC5/CyLib.c **** *  of this function execution. The current operation of the ILO, Central Time
  65:.\Generated_Source\PSoC5/CyLib.c **** *  Wheel and Once Per Second interrupt are maintained during the operation of
  66:.\Generated_Source\PSoC5/CyLib.c **** *  this function provided the reading of the Power Manager Interrupt Status
  67:.\Generated_Source\PSoC5/CyLib.c **** *  Register is only done using the CyPmReadStatus() function.
  68:.\Generated_Source\PSoC5/CyLib.c **** *
  69:.\Generated_Source\PSoC5/CyLib.c **** *******************************************************************************/
  70:.\Generated_Source\PSoC5/CyLib.c **** cystatus CyPLL_OUT_Start(uint8 wait) 
  71:.\Generated_Source\PSoC5/CyLib.c **** {
  57              		.loc 1 71 0
  58              		.cfi_startproc
  59              		@ args = 0, pretend = 0, frame = 16
  60              		@ frame_needed = 1, uses_anonymous_args = 0
  61 0000 80B5     		push	{r7, lr}
  62              	.LCFI0:
  63              		.cfi_def_cfa_offset 8
  64 0002 84B0     		sub	sp, sp, #16
  65              	.LCFI1:
  66              		.cfi_def_cfa_offset 24
  67 0004 00AF     		add	r7, sp, #0
  68              		.cfi_offset 14, -4
  69              		.cfi_offset 7, -8
  70              	.LCFI2:
  71              		.cfi_def_cfa_register 7
  72 0006 0346     		mov	r3, r0
  73 0008 FB71     		strb	r3, [r7, #7]
  72:.\Generated_Source\PSoC5/CyLib.c ****     cystatus status = CYRET_SUCCESS;
  74              		.loc 1 72 0
  75 000a 4FF00003 		mov	r3, #0
  76 000e BB60     		str	r3, [r7, #8]
  73:.\Generated_Source\PSoC5/CyLib.c **** 
  74:.\Generated_Source\PSoC5/CyLib.c ****     uint8 iloEnableState;
  75:.\Generated_Source\PSoC5/CyLib.c ****     uint8 pmTwCfg0;
  76:.\Generated_Source\PSoC5/CyLib.c ****     uint8 pmTwCfg2;
  77:.\Generated_Source\PSoC5/CyLib.c **** 
  78:.\Generated_Source\PSoC5/CyLib.c **** 
  79:.\Generated_Source\PSoC5/CyLib.c ****     /* Enables the PLL circuit  */
  80:.\Generated_Source\PSoC5/CyLib.c ****     CY_CLK_PLL_CFG0_REG |= CY_CLK_PLL_ENABLE;
  77              		.loc 1 80 0
  78 0010 44F22023 		movw	r3, #:lower16:1073758752
  79 0014 C4F20003 		movt	r3, #:upper16:1073758752
  80 0018 44F22022 		movw	r2, #:lower16:1073758752
  81 001c C4F20002 		movt	r2, #:upper16:1073758752
  82 0020 1278     		ldrb	r2, [r2, #0]
  83 0022 D2B2     		uxtb	r2, r2
  84 0024 42F00102 		orr	r2, r2, #1
  85 0028 D2B2     		uxtb	r2, r2
  86 002a 1A70     		strb	r2, [r3, #0]
  81:.\Generated_Source\PSoC5/CyLib.c **** 
ARM GAS  C:\Users\Heiwa\AppData\Local\Temp\ccuYQ69z.s 			page 4


  82:.\Generated_Source\PSoC5/CyLib.c ****     if(wait != 0)
  87              		.loc 1 82 0
  88 002c FB79     		ldrb	r3, [r7, #7]	@ zero_extendqisi2
  89 002e 002B     		cmp	r3, #0
  90 0030 4DD0     		beq	.L2
  83:.\Generated_Source\PSoC5/CyLib.c ****     {
  84:.\Generated_Source\PSoC5/CyLib.c ****         /* Save 100 KHz ILO, FTW interval, enable and interrupt enable */
  85:.\Generated_Source\PSoC5/CyLib.c ****         iloEnableState = SLOWCLK_ILO_CR0;
  91              		.loc 1 85 0
  92 0032 44F20033 		movw	r3, #:lower16:1073758976
  93 0036 C4F20003 		movt	r3, #:upper16:1073758976
  94 003a 1B78     		ldrb	r3, [r3, #0]
  95 003c 7B73     		strb	r3, [r7, #13]
  86:.\Generated_Source\PSoC5/CyLib.c ****         pmTwCfg0 = CY_PM_TW_CFG0_REG;
  96              		.loc 1 86 0
  97 003e 44F28033 		movw	r3, #:lower16:1073759104
  98 0042 C4F20003 		movt	r3, #:upper16:1073759104
  99 0046 1B78     		ldrb	r3, [r3, #0]
 100 0048 BB73     		strb	r3, [r7, #14]
  87:.\Generated_Source\PSoC5/CyLib.c ****         pmTwCfg2 = CY_PM_TW_CFG2_REG;
 101              		.loc 1 87 0
 102 004a 44F28233 		movw	r3, #:lower16:1073759106
 103 004e C4F20003 		movt	r3, #:upper16:1073759106
 104 0052 1B78     		ldrb	r3, [r3, #0]
 105 0054 FB73     		strb	r3, [r7, #15]
  88:.\Generated_Source\PSoC5/CyLib.c **** 
  89:.\Generated_Source\PSoC5/CyLib.c ****         CyPmFtwSetInterval(CY_CLK_PLL_FTW_INTERVAL);
 106              		.loc 1 89 0
 107 0056 4FF01800 		mov	r0, #24
 108 005a FFF7FEFF 		bl	CyPmFtwSetInterval
  90:.\Generated_Source\PSoC5/CyLib.c **** 
  91:.\Generated_Source\PSoC5/CyLib.c ****         status = CYRET_TIMEOUT;
 109              		.loc 1 91 0
 110 005e 4FF01003 		mov	r3, #16
 111 0062 BB60     		str	r3, [r7, #8]
  92:.\Generated_Source\PSoC5/CyLib.c **** 
  93:.\Generated_Source\PSoC5/CyLib.c **** 
  94:.\Generated_Source\PSoC5/CyLib.c ****         while(CyPmReadStatus(CY_PM_FTW_INT) != CY_PM_FTW_INT)
 112              		.loc 1 94 0
 113 0064 19E0     		b	.L3
 114              	.L5:
  95:.\Generated_Source\PSoC5/CyLib.c ****         {
  96:.\Generated_Source\PSoC5/CyLib.c ****             /* Wait for the interrupt status */
  97:.\Generated_Source\PSoC5/CyLib.c ****             if(0u != (CY_CLK_PLL_SR_REG & CY_CLK_PLL_LOCK_STATUS))
 115              		.loc 1 97 0
 116 0066 44F22523 		movw	r3, #:lower16:1073758757
 117 006a C4F20003 		movt	r3, #:upper16:1073758757
 118 006e 1B78     		ldrb	r3, [r3, #0]
 119 0070 DBB2     		uxtb	r3, r3
 120 0072 03F00103 		and	r3, r3, #1
 121 0076 DBB2     		uxtb	r3, r3
 122 0078 002B     		cmp	r3, #0
 123 007a 0ED0     		beq	.L3
  98:.\Generated_Source\PSoC5/CyLib.c ****             {
  99:.\Generated_Source\PSoC5/CyLib.c ****                 if(0u != (CY_CLK_PLL_SR_REG & CY_CLK_PLL_LOCK_STATUS))
 124              		.loc 1 99 0
 125 007c 44F22523 		movw	r3, #:lower16:1073758757
ARM GAS  C:\Users\Heiwa\AppData\Local\Temp\ccuYQ69z.s 			page 5


 126 0080 C4F20003 		movt	r3, #:upper16:1073758757
 127 0084 1B78     		ldrb	r3, [r3, #0]
 128 0086 DBB2     		uxtb	r3, r3
 129 0088 03F00103 		and	r3, r3, #1
 130 008c DBB2     		uxtb	r3, r3
 131 008e 002B     		cmp	r3, #0
 132 0090 03D0     		beq	.L3
 100:.\Generated_Source\PSoC5/CyLib.c ****                 {
 101:.\Generated_Source\PSoC5/CyLib.c ****                     status = CYRET_SUCCESS;
 133              		.loc 1 101 0
 134 0092 4FF00003 		mov	r3, #0
 135 0096 BB60     		str	r3, [r7, #8]
 102:.\Generated_Source\PSoC5/CyLib.c ****                     break;
 136              		.loc 1 102 0
 137 0098 06E0     		b	.L4
 138              	.L3:
 139              		.loc 1 94 0
 140 009a 4FF00100 		mov	r0, #1
 141 009e FFF7FEFF 		bl	CyPmReadStatus
 142 00a2 0346     		mov	r3, r0
 143 00a4 012B     		cmp	r3, #1
 144 00a6 DED1     		bne	.L5
 145              	.L4:
 103:.\Generated_Source\PSoC5/CyLib.c ****                 }
 104:.\Generated_Source\PSoC5/CyLib.c ****             }
 105:.\Generated_Source\PSoC5/CyLib.c ****         }
 106:.\Generated_Source\PSoC5/CyLib.c **** 
 107:.\Generated_Source\PSoC5/CyLib.c **** 
 108:.\Generated_Source\PSoC5/CyLib.c ****         /* Restore 100 KHz ILO, FTW interval, enable and interrupt enable */
 109:.\Generated_Source\PSoC5/CyLib.c ****         if(0u == (iloEnableState & ILO_CONTROL_100KHZ_ON))
 146              		.loc 1 109 0
 147 00a8 7B7B     		ldrb	r3, [r7, #13]	@ zero_extendqisi2
 148 00aa 03F00403 		and	r3, r3, #4
 149 00ae 002B     		cmp	r3, #0
 150 00b0 01D1     		bne	.L6
 110:.\Generated_Source\PSoC5/CyLib.c ****         {
 111:.\Generated_Source\PSoC5/CyLib.c ****             CyILO_Stop100K();
 151              		.loc 1 111 0
 152 00b2 FFF7FEFF 		bl	CyILO_Stop100K
 153              	.L6:
 112:.\Generated_Source\PSoC5/CyLib.c ****         }
 113:.\Generated_Source\PSoC5/CyLib.c ****         CY_PM_TW_CFG0_REG = pmTwCfg0;
 154              		.loc 1 113 0
 155 00b6 44F28033 		movw	r3, #:lower16:1073759104
 156 00ba C4F20003 		movt	r3, #:upper16:1073759104
 157 00be BA7B     		ldrb	r2, [r7, #14]
 158 00c0 1A70     		strb	r2, [r3, #0]
 114:.\Generated_Source\PSoC5/CyLib.c ****         CY_PM_TW_CFG2_REG = pmTwCfg2;
 159              		.loc 1 114 0
 160 00c2 44F28233 		movw	r3, #:lower16:1073759106
 161 00c6 C4F20003 		movt	r3, #:upper16:1073759106
 162 00ca FA7B     		ldrb	r2, [r7, #15]
 163 00cc 1A70     		strb	r2, [r3, #0]
 164              	.L2:
 115:.\Generated_Source\PSoC5/CyLib.c ****     }
 116:.\Generated_Source\PSoC5/CyLib.c **** 
 117:.\Generated_Source\PSoC5/CyLib.c ****     return(status);
ARM GAS  C:\Users\Heiwa\AppData\Local\Temp\ccuYQ69z.s 			page 6


 165              		.loc 1 117 0
 166 00ce BB68     		ldr	r3, [r7, #8]
 118:.\Generated_Source\PSoC5/CyLib.c **** }
 167              		.loc 1 118 0
 168 00d0 1846     		mov	r0, r3
 169 00d2 07F11007 		add	r7, r7, #16
 170 00d6 BD46     		mov	sp, r7
 171 00d8 80BD     		pop	{r7, pc}
 172              		.cfi_endproc
 173              	.LFE0:
 174              		.size	CyPLL_OUT_Start, .-CyPLL_OUT_Start
 175 00da 00BF     		.section	.text.CyPLL_OUT_Stop,"ax",%progbits
 176              		.align	2
 177              		.global	CyPLL_OUT_Stop
 178              		.thumb
 179              		.thumb_func
 180              		.type	CyPLL_OUT_Stop, %function
 181              	CyPLL_OUT_Stop:
 182              	.LFB1:
 119:.\Generated_Source\PSoC5/CyLib.c **** 
 120:.\Generated_Source\PSoC5/CyLib.c **** 
 121:.\Generated_Source\PSoC5/CyLib.c **** /*******************************************************************************
 122:.\Generated_Source\PSoC5/CyLib.c **** * Function Name: CyPLL_OUT_Stop
 123:.\Generated_Source\PSoC5/CyLib.c **** ********************************************************************************
 124:.\Generated_Source\PSoC5/CyLib.c **** *
 125:.\Generated_Source\PSoC5/CyLib.c **** * Summary:
 126:.\Generated_Source\PSoC5/CyLib.c **** *  Disables the PLL.
 127:.\Generated_Source\PSoC5/CyLib.c **** *
 128:.\Generated_Source\PSoC5/CyLib.c **** * Parameters:
 129:.\Generated_Source\PSoC5/CyLib.c **** *  None
 130:.\Generated_Source\PSoC5/CyLib.c **** *
 131:.\Generated_Source\PSoC5/CyLib.c **** * Return:
 132:.\Generated_Source\PSoC5/CyLib.c **** *  None
 133:.\Generated_Source\PSoC5/CyLib.c **** *
 134:.\Generated_Source\PSoC5/CyLib.c **** *******************************************************************************/
 135:.\Generated_Source\PSoC5/CyLib.c **** void CyPLL_OUT_Stop(void) 
 136:.\Generated_Source\PSoC5/CyLib.c **** {
 183              		.loc 1 136 0
 184              		.cfi_startproc
 185              		@ args = 0, pretend = 0, frame = 0
 186              		@ frame_needed = 1, uses_anonymous_args = 0
 187              		@ link register save eliminated.
 188 0000 80B4     		push	{r7}
 189              	.LCFI3:
 190              		.cfi_def_cfa_offset 4
 191 0002 00AF     		add	r7, sp, #0
 192              		.cfi_offset 7, -4
 193              	.LCFI4:
 194              		.cfi_def_cfa_register 7
 137:.\Generated_Source\PSoC5/CyLib.c ****     CY_CLK_PLL_CFG0_REG &= ~CY_CLK_PLL_ENABLE;
 195              		.loc 1 137 0
 196 0004 44F22023 		movw	r3, #:lower16:1073758752
 197 0008 C4F20003 		movt	r3, #:upper16:1073758752
 198 000c 44F22022 		movw	r2, #:lower16:1073758752
 199 0010 C4F20002 		movt	r2, #:upper16:1073758752
 200 0014 1278     		ldrb	r2, [r2, #0]
 201 0016 D2B2     		uxtb	r2, r2
ARM GAS  C:\Users\Heiwa\AppData\Local\Temp\ccuYQ69z.s 			page 7


 202 0018 02F0FE02 		and	r2, r2, #254
 203 001c 1A70     		strb	r2, [r3, #0]
 138:.\Generated_Source\PSoC5/CyLib.c **** }
 204              		.loc 1 138 0
 205 001e BD46     		mov	sp, r7
 206 0020 80BC     		pop	{r7}
 207 0022 7047     		bx	lr
 208              		.cfi_endproc
 209              	.LFE1:
 210              		.size	CyPLL_OUT_Stop, .-CyPLL_OUT_Stop
 211              		.section	.text.CyPLL_OUT_SetPQ,"ax",%progbits
 212              		.align	2
 213              		.global	CyPLL_OUT_SetPQ
 214              		.thumb
 215              		.thumb_func
 216              		.type	CyPLL_OUT_SetPQ, %function
 217              	CyPLL_OUT_SetPQ:
 218              	.LFB2:
 139:.\Generated_Source\PSoC5/CyLib.c **** 
 140:.\Generated_Source\PSoC5/CyLib.c **** 
 141:.\Generated_Source\PSoC5/CyLib.c **** /*******************************************************************************
 142:.\Generated_Source\PSoC5/CyLib.c **** * Function Name: CyPLL_OUT_SetPQ
 143:.\Generated_Source\PSoC5/CyLib.c **** ********************************************************************************
 144:.\Generated_Source\PSoC5/CyLib.c **** *
 145:.\Generated_Source\PSoC5/CyLib.c **** * Summary:
 146:.\Generated_Source\PSoC5/CyLib.c **** *  Sets the P and Q dividers and the charge pump current.
 147:.\Generated_Source\PSoC5/CyLib.c **** *  The Frequency Out will be P/Q * Frequency In.
 148:.\Generated_Source\PSoC5/CyLib.c **** *  The PLL must be disabled before calling this function.
 149:.\Generated_Source\PSoC5/CyLib.c **** *
 150:.\Generated_Source\PSoC5/CyLib.c **** * Parameters:
 151:.\Generated_Source\PSoC5/CyLib.c **** *  uint8 P:
 152:.\Generated_Source\PSoC5/CyLib.c **** *   Valid range [8 - 255].
 153:.\Generated_Source\PSoC5/CyLib.c **** *
 154:.\Generated_Source\PSoC5/CyLib.c **** *  uint8 Q:
 155:.\Generated_Source\PSoC5/CyLib.c **** *   Valid range [1 - 16]. Input Frequency / Q must be in range of 1 to 3 MHz.
 156:.\Generated_Source\PSoC5/CyLib.c **** 
 157:.\Generated_Source\PSoC5/CyLib.c **** *  uint8 current:
 158:.\Generated_Source\PSoC5/CyLib.c **** *   Valid range [1 - 7]. Charge pump current in uA. Refer to the device TRM and
 159:.\Generated_Source\PSoC5/CyLib.c **** *   datasheet for more information.
 160:.\Generated_Source\PSoC5/CyLib.c **** *
 161:.\Generated_Source\PSoC5/CyLib.c **** * Return:
 162:.\Generated_Source\PSoC5/CyLib.c **** *  None
 163:.\Generated_Source\PSoC5/CyLib.c **** *
 164:.\Generated_Source\PSoC5/CyLib.c **** * Side Effects:
 165:.\Generated_Source\PSoC5/CyLib.c **** *  If as result of this function execution the CPU clock frequency is increased
 166:.\Generated_Source\PSoC5/CyLib.c **** *  then the number of clock cycles the cache will wait before it samples data
 167:.\Generated_Source\PSoC5/CyLib.c **** *  coming back from Flash must be adjusted by calling CyFlash_SetWaitCycles()
 168:.\Generated_Source\PSoC5/CyLib.c **** *  with appropriate parameter. It can be optionally called if CPU clock
 169:.\Generated_Source\PSoC5/CyLib.c **** *  frequency is lowered in order to improve CPU performance.
 170:.\Generated_Source\PSoC5/CyLib.c **** *  See CyFlash_SetWaitCycles() description for more information.
 171:.\Generated_Source\PSoC5/CyLib.c **** *
 172:.\Generated_Source\PSoC5/CyLib.c **** *******************************************************************************/
 173:.\Generated_Source\PSoC5/CyLib.c **** void CyPLL_OUT_SetPQ(uint8 P, uint8 Q, uint8 current) 
 174:.\Generated_Source\PSoC5/CyLib.c **** {
 219              		.loc 1 174 0
 220              		.cfi_startproc
 221              		@ args = 0, pretend = 0, frame = 8
ARM GAS  C:\Users\Heiwa\AppData\Local\Temp\ccuYQ69z.s 			page 8


 222              		@ frame_needed = 1, uses_anonymous_args = 0
 223 0000 80B5     		push	{r7, lr}
 224              	.LCFI5:
 225              		.cfi_def_cfa_offset 8
 226 0002 82B0     		sub	sp, sp, #8
 227              	.LCFI6:
 228              		.cfi_def_cfa_offset 16
 229 0004 00AF     		add	r7, sp, #0
 230              		.cfi_offset 14, -4
 231              		.cfi_offset 7, -8
 232              	.LCFI7:
 233              		.cfi_def_cfa_register 7
 234 0006 1346     		mov	r3, r2
 235 0008 0246     		mov	r2, r0
 236 000a FA71     		strb	r2, [r7, #7]
 237 000c 0A46     		mov	r2, r1
 238 000e BA71     		strb	r2, [r7, #6]
 239 0010 7B71     		strb	r3, [r7, #5]
 175:.\Generated_Source\PSoC5/CyLib.c ****     /* Halt CPU in debug mode if PLL is enabled */
 176:.\Generated_Source\PSoC5/CyLib.c ****     CYASSERT(0u == (CY_CLK_PLL_CFG0_REG & CY_CLK_PLL_ENABLE));
 240              		.loc 1 176 0
 241 0012 44F22023 		movw	r3, #:lower16:1073758752
 242 0016 C4F20003 		movt	r3, #:upper16:1073758752
 243 001a 1B78     		ldrb	r3, [r3, #0]
 244 001c DBB2     		uxtb	r3, r3
 245 001e 03F00103 		and	r3, r3, #1
 246 0022 002B     		cmp	r3, #0
 247 0024 0ED0     		beq	.L11
 248 0026 44F22023 		movw	r3, #:lower16:1073758752
 249 002a C4F20003 		movt	r3, #:upper16:1073758752
 250 002e 1B78     		ldrb	r3, [r3, #0]
 251 0030 DBB2     		uxtb	r3, r3
 252 0032 03F00103 		and	r3, r3, #1
 253 0036 002B     		cmp	r3, #0
 254 0038 14BF     		ite	ne
 255 003a 0023     		movne	r3, #0
 256 003c 0123     		moveq	r3, #1
 257 003e 1846     		mov	r0, r3
 258 0040 FFF7FEFF 		bl	CyHalt
 259              	.L11:
 177:.\Generated_Source\PSoC5/CyLib.c **** 
 178:.\Generated_Source\PSoC5/CyLib.c ****     /* Halt CPU in debug mode if P divider is less than required */
 179:.\Generated_Source\PSoC5/CyLib.c ****     CYASSERT(P >= CY_CLK_PLL_MIN_P_VALUE);
 260              		.loc 1 179 0
 261 0044 FB79     		ldrb	r3, [r7, #7]	@ zero_extendqisi2
 262 0046 072B     		cmp	r3, #7
 263 0048 07D8     		bhi	.L12
 264 004a FB79     		ldrb	r3, [r7, #7]	@ zero_extendqisi2
 265 004c 072B     		cmp	r3, #7
 266 004e 94BF     		ite	ls
 267 0050 0023     		movls	r3, #0
 268 0052 0123     		movhi	r3, #1
 269 0054 1846     		mov	r0, r3
 270 0056 FFF7FEFF 		bl	CyHalt
 271              	.L12:
 180:.\Generated_Source\PSoC5/CyLib.c **** 
 181:.\Generated_Source\PSoC5/CyLib.c ****     /* Halt CPU in debug mode if Q divider is out of range */
ARM GAS  C:\Users\Heiwa\AppData\Local\Temp\ccuYQ69z.s 			page 9


 182:.\Generated_Source\PSoC5/CyLib.c ****     CYASSERT((Q <= CY_CLK_PLL_MAX_Q_VALUE) && (Q >= CY_CLK_PLL_MIN_Q_VALUE));
 272              		.loc 1 182 0
 273 005a BB79     		ldrb	r3, [r7, #6]	@ zero_extendqisi2
 274 005c 102B     		cmp	r3, #16
 275 005e 02D8     		bhi	.L13
 276 0060 BB79     		ldrb	r3, [r7, #6]	@ zero_extendqisi2
 277 0062 002B     		cmp	r3, #0
 278 0064 0ED1     		bne	.L14
 279              	.L13:
 280 0066 BB79     		ldrb	r3, [r7, #6]	@ zero_extendqisi2
 281 0068 102B     		cmp	r3, #16
 282 006a 05D8     		bhi	.L15
 283 006c BB79     		ldrb	r3, [r7, #6]	@ zero_extendqisi2
 284 006e 002B     		cmp	r3, #0
 285 0070 02D0     		beq	.L15
 286 0072 4FF00103 		mov	r3, #1
 287 0076 01E0     		b	.L16
 288              	.L15:
 289 0078 4FF00003 		mov	r3, #0
 290              	.L16:
 291 007c DBB2     		uxtb	r3, r3
 292 007e 1846     		mov	r0, r3
 293 0080 FFF7FEFF 		bl	CyHalt
 294              	.L14:
 183:.\Generated_Source\PSoC5/CyLib.c **** 
 184:.\Generated_Source\PSoC5/CyLib.c ****     /* Halt CPU in debug mode if pump current is out of range */
 185:.\Generated_Source\PSoC5/CyLib.c ****     CYASSERT((current >= CY_CLK_PLL_MIN_CUR_VALUE) && (current <= CY_CLK_PLL_MAX_CUR_VALUE));
 295              		.loc 1 185 0
 296 0084 7B79     		ldrb	r3, [r7, #5]	@ zero_extendqisi2
 297 0086 002B     		cmp	r3, #0
 298 0088 02D0     		beq	.L17
 299 008a 7B79     		ldrb	r3, [r7, #5]	@ zero_extendqisi2
 300 008c 072B     		cmp	r3, #7
 301 008e 0ED9     		bls	.L18
 302              	.L17:
 303 0090 7B79     		ldrb	r3, [r7, #5]	@ zero_extendqisi2
 304 0092 002B     		cmp	r3, #0
 305 0094 05D0     		beq	.L19
 306 0096 7B79     		ldrb	r3, [r7, #5]	@ zero_extendqisi2
 307 0098 072B     		cmp	r3, #7
 308 009a 02D8     		bhi	.L19
 309 009c 4FF00103 		mov	r3, #1
 310 00a0 01E0     		b	.L20
 311              	.L19:
 312 00a2 4FF00003 		mov	r3, #0
 313              	.L20:
 314 00a6 DBB2     		uxtb	r3, r3
 315 00a8 1846     		mov	r0, r3
 316 00aa FFF7FEFF 		bl	CyHalt
 317              	.L18:
 186:.\Generated_Source\PSoC5/CyLib.c **** 
 187:.\Generated_Source\PSoC5/CyLib.c **** 
 188:.\Generated_Source\PSoC5/CyLib.c ****     /* Set new values */
 189:.\Generated_Source\PSoC5/CyLib.c ****     CY_CLK_PLL_P_REG = P;
 318              		.loc 1 189 0
 319 00ae 44F22223 		movw	r3, #:lower16:1073758754
 320 00b2 C4F20003 		movt	r3, #:upper16:1073758754
ARM GAS  C:\Users\Heiwa\AppData\Local\Temp\ccuYQ69z.s 			page 10


 321 00b6 FA79     		ldrb	r2, [r7, #7]
 322 00b8 1A70     		strb	r2, [r3, #0]
 190:.\Generated_Source\PSoC5/CyLib.c ****     CY_CLK_PLL_Q_REG = Q - 1;
 323              		.loc 1 190 0
 324 00ba 44F22323 		movw	r3, #:lower16:1073758755
 325 00be C4F20003 		movt	r3, #:upper16:1073758755
 326 00c2 BA79     		ldrb	r2, [r7, #6]
 327 00c4 02F1FF32 		add	r2, r2, #-1
 328 00c8 D2B2     		uxtb	r2, r2
 329 00ca 1A70     		strb	r2, [r3, #0]
 191:.\Generated_Source\PSoC5/CyLib.c ****     CY_CLK_PLL_CFG1_REG = (CY_CLK_PLL_CFG1_REG & CY_CLK_PLL_CURRENT_MASK) |
 330              		.loc 1 191 0
 331 00cc 44F22123 		movw	r3, #:lower16:1073758753
 332 00d0 C4F20003 		movt	r3, #:upper16:1073758753
 333 00d4 44F22122 		movw	r2, #:lower16:1073758753
 334 00d8 C4F20002 		movt	r2, #:upper16:1073758753
 335 00dc 1278     		ldrb	r2, [r2, #0]
 336 00de D2B2     		uxtb	r2, r2
 337 00e0 02F08F02 		and	r2, r2, #143
 338 00e4 7979     		ldrb	r1, [r7, #5]
 339 00e6 01F1FF31 		add	r1, r1, #-1
 340 00ea C9B2     		uxtb	r1, r1
 341 00ec 4FEA0111 		lsl	r1, r1, #4
 342 00f0 C9B2     		uxtb	r1, r1
 343 00f2 42EA0102 		orr	r2, r2, r1
 344 00f6 D2B2     		uxtb	r2, r2
 345 00f8 1A70     		strb	r2, [r3, #0]
 192:.\Generated_Source\PSoC5/CyLib.c ****                             ((current - 1) << CY_CLK_PLL_CURRENT_POSITION);
 193:.\Generated_Source\PSoC5/CyLib.c **** }
 346              		.loc 1 193 0
 347 00fa 07F10807 		add	r7, r7, #8
 348 00fe BD46     		mov	sp, r7
 349 0100 80BD     		pop	{r7, pc}
 350              		.cfi_endproc
 351              	.LFE2:
 352              		.size	CyPLL_OUT_SetPQ, .-CyPLL_OUT_SetPQ
 353 0102 00BF     		.section	.text.CyPLL_OUT_SetSource,"ax",%progbits
 354              		.align	2
 355              		.global	CyPLL_OUT_SetSource
 356              		.thumb
 357              		.thumb_func
 358              		.type	CyPLL_OUT_SetSource, %function
 359              	CyPLL_OUT_SetSource:
 360              	.LFB3:
 194:.\Generated_Source\PSoC5/CyLib.c **** 
 195:.\Generated_Source\PSoC5/CyLib.c **** 
 196:.\Generated_Source\PSoC5/CyLib.c **** /*******************************************************************************
 197:.\Generated_Source\PSoC5/CyLib.c **** * Function Name: CyPLL_OUT_SetSource
 198:.\Generated_Source\PSoC5/CyLib.c **** ********************************************************************************
 199:.\Generated_Source\PSoC5/CyLib.c **** *
 200:.\Generated_Source\PSoC5/CyLib.c **** * Summary:
 201:.\Generated_Source\PSoC5/CyLib.c **** *  Sets the input clock source to the PLL. The PLL must be disabled before
 202:.\Generated_Source\PSoC5/CyLib.c **** *  calling this function.
 203:.\Generated_Source\PSoC5/CyLib.c **** *
 204:.\Generated_Source\PSoC5/CyLib.c **** * Parameters:
 205:.\Generated_Source\PSoC5/CyLib.c **** *   source: One of the three available PLL clock sources
 206:.\Generated_Source\PSoC5/CyLib.c **** *            0 :        IMO
ARM GAS  C:\Users\Heiwa\AppData\Local\Temp\ccuYQ69z.s 			page 11


 207:.\Generated_Source\PSoC5/CyLib.c **** *            1 :        MHz Crystal
 208:.\Generated_Source\PSoC5/CyLib.c **** *            2 :        DSI
 209:.\Generated_Source\PSoC5/CyLib.c **** *
 210:.\Generated_Source\PSoC5/CyLib.c **** * Return:
 211:.\Generated_Source\PSoC5/CyLib.c **** *  None
 212:.\Generated_Source\PSoC5/CyLib.c **** *
 213:.\Generated_Source\PSoC5/CyLib.c **** * Side Effects:
 214:.\Generated_Source\PSoC5/CyLib.c **** *  If as result of this function execution the CPU clock frequency is increased
 215:.\Generated_Source\PSoC5/CyLib.c **** *  then the number of clock cycles the cache will wait before it samples data
 216:.\Generated_Source\PSoC5/CyLib.c **** *  coming back from Flash must be adjusted by calling CyFlash_SetWaitCycles()
 217:.\Generated_Source\PSoC5/CyLib.c **** *  with appropriate parameter. It can be optionally called if CPU clock
 218:.\Generated_Source\PSoC5/CyLib.c **** *  frequency is lowered in order to improve CPU performance.
 219:.\Generated_Source\PSoC5/CyLib.c **** *  See CyFlash_SetWaitCycles() description for more information.
 220:.\Generated_Source\PSoC5/CyLib.c **** *
 221:.\Generated_Source\PSoC5/CyLib.c **** *******************************************************************************/
 222:.\Generated_Source\PSoC5/CyLib.c **** void CyPLL_OUT_SetSource(uint8 source) 
 223:.\Generated_Source\PSoC5/CyLib.c **** {
 361              		.loc 1 223 0
 362              		.cfi_startproc
 363              		@ args = 0, pretend = 0, frame = 8
 364              		@ frame_needed = 1, uses_anonymous_args = 0
 365 0000 80B5     		push	{r7, lr}
 366              	.LCFI8:
 367              		.cfi_def_cfa_offset 8
 368 0002 82B0     		sub	sp, sp, #8
 369              	.LCFI9:
 370              		.cfi_def_cfa_offset 16
 371 0004 00AF     		add	r7, sp, #0
 372              		.cfi_offset 14, -4
 373              		.cfi_offset 7, -8
 374              	.LCFI10:
 375              		.cfi_def_cfa_register 7
 376 0006 0346     		mov	r3, r0
 377 0008 FB71     		strb	r3, [r7, #7]
 224:.\Generated_Source\PSoC5/CyLib.c ****     /* Halt CPU in debug mode if PLL is enabled */
 225:.\Generated_Source\PSoC5/CyLib.c ****     CYASSERT(0u == (CY_CLK_PLL_CFG0_REG & CY_CLK_PLL_ENABLE));
 378              		.loc 1 225 0
 379 000a 44F22023 		movw	r3, #:lower16:1073758752
 380 000e C4F20003 		movt	r3, #:upper16:1073758752
 381 0012 1B78     		ldrb	r3, [r3, #0]
 382 0014 DBB2     		uxtb	r3, r3
 383 0016 03F00103 		and	r3, r3, #1
 384 001a 002B     		cmp	r3, #0
 385 001c 0ED0     		beq	.L23
 386 001e 44F22023 		movw	r3, #:lower16:1073758752
 387 0022 C4F20003 		movt	r3, #:upper16:1073758752
 388 0026 1B78     		ldrb	r3, [r3, #0]
 389 0028 DBB2     		uxtb	r3, r3
 390 002a 03F00103 		and	r3, r3, #1
 391 002e 002B     		cmp	r3, #0
 392 0030 14BF     		ite	ne
 393 0032 0023     		movne	r3, #0
 394 0034 0123     		moveq	r3, #1
 395 0036 1846     		mov	r0, r3
 396 0038 FFF7FEFF 		bl	CyHalt
 397              	.L23:
 226:.\Generated_Source\PSoC5/CyLib.c **** 
ARM GAS  C:\Users\Heiwa\AppData\Local\Temp\ccuYQ69z.s 			page 12


 227:.\Generated_Source\PSoC5/CyLib.c ****     switch(source)
 398              		.loc 1 227 0
 399 003c FB79     		ldrb	r3, [r7, #7]	@ zero_extendqisi2
 400 003e 03F10003 		add	r3, r3, #0
 401 0042 022B     		cmp	r3, #2
 402 0044 11D8     		bhi	.L24
 228:.\Generated_Source\PSoC5/CyLib.c ****     {
 229:.\Generated_Source\PSoC5/CyLib.c ****         case CY_PLL_SOURCE_IMO:
 230:.\Generated_Source\PSoC5/CyLib.c ****         case CY_PLL_SOURCE_XTAL:
 231:.\Generated_Source\PSoC5/CyLib.c ****         case CY_PLL_SOURCE_DSI:
 232:.\Generated_Source\PSoC5/CyLib.c ****             CLKDIST_CR = ((CLKDIST_CR & CLOCK_CONTROL_DIST_MASK) | source);
 403              		.loc 1 232 0
 404 0046 44F20003 		movw	r3, #:lower16:1073758208
 405 004a C4F20003 		movt	r3, #:upper16:1073758208
 406 004e 44F20002 		movw	r2, #:lower16:1073758208
 407 0052 C4F20002 		movt	r2, #:upper16:1073758208
 408 0056 1278     		ldrb	r2, [r2, #0]
 409 0058 D2B2     		uxtb	r2, r2
 410 005a 02F0FC02 		and	r2, r2, #252
 411 005e F979     		ldrb	r1, [r7, #7]
 412 0060 42EA0102 		orr	r2, r2, r1
 413 0064 D2B2     		uxtb	r2, r2
 414 0066 1A70     		strb	r2, [r3, #0]
 233:.\Generated_Source\PSoC5/CyLib.c ****         break;
 415              		.loc 1 233 0
 416 0068 03E0     		b	.L27
 417              	.L24:
 234:.\Generated_Source\PSoC5/CyLib.c **** 
 235:.\Generated_Source\PSoC5/CyLib.c ****         default:
 236:.\Generated_Source\PSoC5/CyLib.c ****             CYASSERT(0);
 418              		.loc 1 236 0
 419 006a 4FF00000 		mov	r0, #0
 420 006e FFF7FEFF 		bl	CyHalt
 421              	.L27:
 237:.\Generated_Source\PSoC5/CyLib.c ****         break;
 238:.\Generated_Source\PSoC5/CyLib.c ****     }
 239:.\Generated_Source\PSoC5/CyLib.c **** }
 422              		.loc 1 239 0
 423 0072 07F10807 		add	r7, r7, #8
 424 0076 BD46     		mov	sp, r7
 425 0078 80BD     		pop	{r7, pc}
 426              		.cfi_endproc
 427              	.LFE3:
 428              		.size	CyPLL_OUT_SetSource, .-CyPLL_OUT_SetSource
 429 007a 00BF     		.section	.text.CyIMO_Start,"ax",%progbits
 430              		.align	2
 431              		.global	CyIMO_Start
 432              		.thumb
 433              		.thumb_func
 434              		.type	CyIMO_Start, %function
 435              	CyIMO_Start:
 436              	.LFB4:
 240:.\Generated_Source\PSoC5/CyLib.c **** 
 241:.\Generated_Source\PSoC5/CyLib.c **** 
 242:.\Generated_Source\PSoC5/CyLib.c **** /*******************************************************************************
 243:.\Generated_Source\PSoC5/CyLib.c **** * Function Name: CyIMO_Start
 244:.\Generated_Source\PSoC5/CyLib.c **** ********************************************************************************
ARM GAS  C:\Users\Heiwa\AppData\Local\Temp\ccuYQ69z.s 			page 13


 245:.\Generated_Source\PSoC5/CyLib.c **** *
 246:.\Generated_Source\PSoC5/CyLib.c **** * Summary:
 247:.\Generated_Source\PSoC5/CyLib.c **** *  Enables the IMO. Optionally waits at least 6 us for it to settle.
 248:.\Generated_Source\PSoC5/CyLib.c **** *
 249:.\Generated_Source\PSoC5/CyLib.c **** * Parameters:
 250:.\Generated_Source\PSoC5/CyLib.c **** *  uint8 wait:
 251:.\Generated_Source\PSoC5/CyLib.c **** *   0: Return immediately after configuration
 252:.\Generated_Source\PSoC5/CyLib.c **** *   1: Wait for at least 6us for the IMO to settle.
 253:.\Generated_Source\PSoC5/CyLib.c **** *
 254:.\Generated_Source\PSoC5/CyLib.c **** * Return:
 255:.\Generated_Source\PSoC5/CyLib.c **** *  None
 256:.\Generated_Source\PSoC5/CyLib.c **** *
 257:.\Generated_Source\PSoC5/CyLib.c **** * Side Effects:
 258:.\Generated_Source\PSoC5/CyLib.c **** *  If wait is enabled: This function wses the Fast Time Wheel to time the wait.
 259:.\Generated_Source\PSoC5/CyLib.c **** *  Any other use of the Fast Time Wheel will be stopped during the period of
 260:.\Generated_Source\PSoC5/CyLib.c **** *  this function and then restored. This function also uses the 100 KHz ILO.
 261:.\Generated_Source\PSoC5/CyLib.c **** *  If not enabled, this function will enable the 100 KHz ILO for the period of
 262:.\Generated_Source\PSoC5/CyLib.c **** *  this function.
 263:.\Generated_Source\PSoC5/CyLib.c **** *
 264:.\Generated_Source\PSoC5/CyLib.c **** *  No changes to the setup of the ILO, Fast Time Wheel, Central Time Wheel or
 265:.\Generated_Source\PSoC5/CyLib.c **** *  Once Per Second interrupt may be made by interrupt routines during the period
 266:.\Generated_Source\PSoC5/CyLib.c **** *  of this function execution. The current operation of the ILO, Central Time
 267:.\Generated_Source\PSoC5/CyLib.c **** *  Wheel and Once Per Second interrupt are maintained during the operation of
 268:.\Generated_Source\PSoC5/CyLib.c **** *  this function provided the reading of the Power Manager Interrupt Status
 269:.\Generated_Source\PSoC5/CyLib.c **** *  Register is only done using the CyPmReadStatus() function.
 270:.\Generated_Source\PSoC5/CyLib.c **** *
 271:.\Generated_Source\PSoC5/CyLib.c **** *******************************************************************************/
 272:.\Generated_Source\PSoC5/CyLib.c **** void CyIMO_Start(uint8 wait) 
 273:.\Generated_Source\PSoC5/CyLib.c **** {
 437              		.loc 1 273 0
 438              		.cfi_startproc
 439              		@ args = 0, pretend = 0, frame = 16
 440              		@ frame_needed = 1, uses_anonymous_args = 0
 441 0000 80B5     		push	{r7, lr}
 442              	.LCFI11:
 443              		.cfi_def_cfa_offset 8
 444 0002 84B0     		sub	sp, sp, #16
 445              	.LCFI12:
 446              		.cfi_def_cfa_offset 24
 447 0004 00AF     		add	r7, sp, #0
 448              		.cfi_offset 14, -4
 449              		.cfi_offset 7, -8
 450              	.LCFI13:
 451              		.cfi_def_cfa_register 7
 452 0006 0346     		mov	r3, r0
 453 0008 FB71     		strb	r3, [r7, #7]
 274:.\Generated_Source\PSoC5/CyLib.c ****     uint8 pm_tw_cfg2_state;
 275:.\Generated_Source\PSoC5/CyLib.c ****     uint8 pm_tw_cfg0_state;
 276:.\Generated_Source\PSoC5/CyLib.c ****     uint8 ilo_clock_state;
 277:.\Generated_Source\PSoC5/CyLib.c **** 
 278:.\Generated_Source\PSoC5/CyLib.c ****     /* Set the bit to enable the clock. */
 279:.\Generated_Source\PSoC5/CyLib.c ****     PM_ACT_CFG0 |= IMO_PM_ENABLE;
 454              		.loc 1 279 0
 455 000a 44F2A033 		movw	r3, #:lower16:1073759136
 456 000e C4F20003 		movt	r3, #:upper16:1073759136
 457 0012 44F2A032 		movw	r2, #:lower16:1073759136
 458 0016 C4F20002 		movt	r2, #:upper16:1073759136
ARM GAS  C:\Users\Heiwa\AppData\Local\Temp\ccuYQ69z.s 			page 14


 459 001a 1278     		ldrb	r2, [r2, #0]
 460 001c D2B2     		uxtb	r2, r2
 461 001e 42F01002 		orr	r2, r2, #16
 462 0022 D2B2     		uxtb	r2, r2
 463 0024 1A70     		strb	r2, [r3, #0]
 280:.\Generated_Source\PSoC5/CyLib.c **** 
 281:.\Generated_Source\PSoC5/CyLib.c ****     /* Wait for 6 us */
 282:.\Generated_Source\PSoC5/CyLib.c ****     if(wait)
 464              		.loc 1 282 0
 465 0026 FB79     		ldrb	r3, [r7, #7]	@ zero_extendqisi2
 466 0028 002B     		cmp	r3, #0
 467 002a 4DD0     		beq	.L33
 283:.\Generated_Source\PSoC5/CyLib.c ****     {
 284:.\Generated_Source\PSoC5/CyLib.c ****         /* Need to turn on the 100KHz ILO if it happens to not already be running.*/
 285:.\Generated_Source\PSoC5/CyLib.c ****         ilo_clock_state = SLOWCLK_ILO_CR0;
 468              		.loc 1 285 0
 469 002c 44F20033 		movw	r3, #:lower16:1073758976
 470 0030 C4F20003 		movt	r3, #:upper16:1073758976
 471 0034 1B78     		ldrb	r3, [r3, #0]
 472 0036 FB73     		strb	r3, [r7, #15]
 286:.\Generated_Source\PSoC5/CyLib.c ****         if(!(ilo_clock_state & ILO_CONTROL_100KHZ_ON))
 473              		.loc 1 286 0
 474 0038 FB7B     		ldrb	r3, [r7, #15]	@ zero_extendqisi2
 475 003a 03F00403 		and	r3, r3, #4
 476 003e 002B     		cmp	r3, #0
 477 0040 01D1     		bne	.L30
 287:.\Generated_Source\PSoC5/CyLib.c ****         {
 288:.\Generated_Source\PSoC5/CyLib.c ****             CyILO_Start100K();
 478              		.loc 1 288 0
 479 0042 FFF7FEFF 		bl	CyILO_Start100K
 480              	.L30:
 289:.\Generated_Source\PSoC5/CyLib.c ****         }
 290:.\Generated_Source\PSoC5/CyLib.c **** 
 291:.\Generated_Source\PSoC5/CyLib.c ****         /* Use ILO 100 KHz */
 292:.\Generated_Source\PSoC5/CyLib.c ****         pm_tw_cfg2_state = PM_TW_CFG2;
 481              		.loc 1 292 0
 482 0046 44F28233 		movw	r3, #:lower16:1073759106
 483 004a C4F20003 		movt	r3, #:upper16:1073759106
 484 004e 1B78     		ldrb	r3, [r3, #0]
 485 0050 7B73     		strb	r3, [r7, #13]
 293:.\Generated_Source\PSoC5/CyLib.c ****         pm_tw_cfg0_state = PM_TW_CFG0;
 486              		.loc 1 293 0
 487 0052 44F28033 		movw	r3, #:lower16:1073759104
 488 0056 C4F20003 		movt	r3, #:upper16:1073759104
 489 005a 1B78     		ldrb	r3, [r3, #0]
 490 005c BB73     		strb	r3, [r7, #14]
 294:.\Generated_Source\PSoC5/CyLib.c **** 
 295:.\Generated_Source\PSoC5/CyLib.c ****         /* FTW_EN (bit 0) must be clear to change the period*/
 296:.\Generated_Source\PSoC5/CyLib.c ****         PM_TW_CFG2 &= FTW_CLEAR_FTW_BITS;
 491              		.loc 1 296 0
 492 005e 44F28233 		movw	r3, #:lower16:1073759106
 493 0062 C4F20003 		movt	r3, #:upper16:1073759106
 494 0066 44F28232 		movw	r2, #:lower16:1073759106
 495 006a C4F20002 		movt	r2, #:upper16:1073759106
 496 006e 1278     		ldrb	r2, [r2, #0]
 497 0070 D2B2     		uxtb	r2, r2
 498 0072 02F0FC02 		and	r2, r2, #252
ARM GAS  C:\Users\Heiwa\AppData\Local\Temp\ccuYQ69z.s 			page 15


 499 0076 1A70     		strb	r2, [r3, #0]
 297:.\Generated_Source\PSoC5/CyLib.c **** 
 298:.\Generated_Source\PSoC5/CyLib.c ****         /* Set the FTW interval of 1 100KHz ILO clocks
 299:.\Generated_Source\PSoC5/CyLib.c ****         Should result in status getting set at a (100/1)KHz rate*/
 300:.\Generated_Source\PSoC5/CyLib.c ****         PM_TW_CFG0 = 1-1;
 500              		.loc 1 300 0
 501 0078 44F28033 		movw	r3, #:lower16:1073759104
 502 007c C4F20003 		movt	r3, #:upper16:1073759104
 503 0080 4FF00002 		mov	r2, #0
 504 0084 1A70     		strb	r2, [r3, #0]
 301:.\Generated_Source\PSoC5/CyLib.c ****         /* Enable FTW, but not the interrupt*/
 302:.\Generated_Source\PSoC5/CyLib.c ****         PM_TW_CFG2 = FTW_ENABLE;
 505              		.loc 1 302 0
 506 0086 44F28233 		movw	r3, #:lower16:1073759106
 507 008a C4F20003 		movt	r3, #:upper16:1073759106
 508 008e 4FF00102 		mov	r2, #1
 509 0092 1A70     		strb	r2, [r3, #0]
 510              	.L31:
 303:.\Generated_Source\PSoC5/CyLib.c **** 
 304:.\Generated_Source\PSoC5/CyLib.c ****         /* Read FTW value */
 305:.\Generated_Source\PSoC5/CyLib.c ****         while (CyPmReadStatus(1) == 0)
 511              		.loc 1 305 0
 512 0094 4FF00100 		mov	r0, #1
 513 0098 FFF7FEFF 		bl	CyPmReadStatus
 514 009c 0346     		mov	r3, r0
 515 009e 002B     		cmp	r3, #0
 516 00a0 F8D0     		beq	.L31
 306:.\Generated_Source\PSoC5/CyLib.c ****         {
 307:.\Generated_Source\PSoC5/CyLib.c ****             /* Wait for the interrupt status*/
 308:.\Generated_Source\PSoC5/CyLib.c ****         }
 309:.\Generated_Source\PSoC5/CyLib.c **** 
 310:.\Generated_Source\PSoC5/CyLib.c ****         /* Reset the clock */
 311:.\Generated_Source\PSoC5/CyLib.c ****         if(!(ilo_clock_state & ILO_CONTROL_100KHZ_ON))
 517              		.loc 1 311 0
 518 00a2 FB7B     		ldrb	r3, [r7, #15]	@ zero_extendqisi2
 519 00a4 03F00403 		and	r3, r3, #4
 520 00a8 002B     		cmp	r3, #0
 521 00aa 01D1     		bne	.L32
 312:.\Generated_Source\PSoC5/CyLib.c ****         {
 313:.\Generated_Source\PSoC5/CyLib.c ****             CyILO_Stop100K();
 522              		.loc 1 313 0
 523 00ac FFF7FEFF 		bl	CyILO_Stop100K
 524              	.L32:
 314:.\Generated_Source\PSoC5/CyLib.c ****         }
 315:.\Generated_Source\PSoC5/CyLib.c **** 
 316:.\Generated_Source\PSoC5/CyLib.c ****         /* Restore the FTW */
 317:.\Generated_Source\PSoC5/CyLib.c ****         PM_TW_CFG0 = pm_tw_cfg0_state;
 525              		.loc 1 317 0
 526 00b0 44F28033 		movw	r3, #:lower16:1073759104
 527 00b4 C4F20003 		movt	r3, #:upper16:1073759104
 528 00b8 BA7B     		ldrb	r2, [r7, #14]
 529 00ba 1A70     		strb	r2, [r3, #0]
 318:.\Generated_Source\PSoC5/CyLib.c ****         PM_TW_CFG2 = pm_tw_cfg2_state;
 530              		.loc 1 318 0
 531 00bc 44F28233 		movw	r3, #:lower16:1073759106
 532 00c0 C4F20003 		movt	r3, #:upper16:1073759106
 533 00c4 7A7B     		ldrb	r2, [r7, #13]
ARM GAS  C:\Users\Heiwa\AppData\Local\Temp\ccuYQ69z.s 			page 16


 534 00c6 1A70     		strb	r2, [r3, #0]
 535              	.L33:
 319:.\Generated_Source\PSoC5/CyLib.c ****     }
 320:.\Generated_Source\PSoC5/CyLib.c **** }
 536              		.loc 1 320 0
 537 00c8 07F11007 		add	r7, r7, #16
 538 00cc BD46     		mov	sp, r7
 539 00ce 80BD     		pop	{r7, pc}
 540              		.cfi_endproc
 541              	.LFE4:
 542              		.size	CyIMO_Start, .-CyIMO_Start
 543              		.section	.text.CyIMO_Stop,"ax",%progbits
 544              		.align	2
 545              		.global	CyIMO_Stop
 546              		.thumb
 547              		.thumb_func
 548              		.type	CyIMO_Stop, %function
 549              	CyIMO_Stop:
 550              	.LFB5:
 321:.\Generated_Source\PSoC5/CyLib.c **** 
 322:.\Generated_Source\PSoC5/CyLib.c **** 
 323:.\Generated_Source\PSoC5/CyLib.c **** /*******************************************************************************
 324:.\Generated_Source\PSoC5/CyLib.c **** * Function Name: CyIMO_Stop
 325:.\Generated_Source\PSoC5/CyLib.c **** ********************************************************************************
 326:.\Generated_Source\PSoC5/CyLib.c **** *
 327:.\Generated_Source\PSoC5/CyLib.c **** * Summary:
 328:.\Generated_Source\PSoC5/CyLib.c **** *   Disables the IMO.
 329:.\Generated_Source\PSoC5/CyLib.c **** *
 330:.\Generated_Source\PSoC5/CyLib.c **** * Parameters:
 331:.\Generated_Source\PSoC5/CyLib.c **** *  None
 332:.\Generated_Source\PSoC5/CyLib.c **** *
 333:.\Generated_Source\PSoC5/CyLib.c **** * Return:
 334:.\Generated_Source\PSoC5/CyLib.c **** *  None
 335:.\Generated_Source\PSoC5/CyLib.c **** *
 336:.\Generated_Source\PSoC5/CyLib.c **** *******************************************************************************/
 337:.\Generated_Source\PSoC5/CyLib.c **** void CyIMO_Stop(void) 
 338:.\Generated_Source\PSoC5/CyLib.c **** {
 551              		.loc 1 338 0
 552              		.cfi_startproc
 553              		@ args = 0, pretend = 0, frame = 0
 554              		@ frame_needed = 1, uses_anonymous_args = 0
 555              		@ link register save eliminated.
 556 0000 80B4     		push	{r7}
 557              	.LCFI14:
 558              		.cfi_def_cfa_offset 4
 559 0002 00AF     		add	r7, sp, #0
 560              		.cfi_offset 7, -4
 561              	.LCFI15:
 562              		.cfi_def_cfa_register 7
 339:.\Generated_Source\PSoC5/CyLib.c ****     /* Clear the bit to disable the clock. */
 340:.\Generated_Source\PSoC5/CyLib.c ****     PM_ACT_CFG0 &= ~IMO_PM_ENABLE;
 563              		.loc 1 340 0
 564 0004 44F2A033 		movw	r3, #:lower16:1073759136
 565 0008 C4F20003 		movt	r3, #:upper16:1073759136
 566 000c 44F2A032 		movw	r2, #:lower16:1073759136
 567 0010 C4F20002 		movt	r2, #:upper16:1073759136
 568 0014 1278     		ldrb	r2, [r2, #0]
ARM GAS  C:\Users\Heiwa\AppData\Local\Temp\ccuYQ69z.s 			page 17


 569 0016 D2B2     		uxtb	r2, r2
 570 0018 02F0EF02 		and	r2, r2, #239
 571 001c 1A70     		strb	r2, [r3, #0]
 341:.\Generated_Source\PSoC5/CyLib.c **** }
 572              		.loc 1 341 0
 573 001e BD46     		mov	sp, r7
 574 0020 80BC     		pop	{r7}
 575 0022 7047     		bx	lr
 576              		.cfi_endproc
 577              	.LFE5:
 578              		.size	CyIMO_Stop, .-CyIMO_Stop
 579              		.section	.text.CyUSB_PowerOnCheck,"ax",%progbits
 580              		.align	2
 581              		.global	CyUSB_PowerOnCheck
 582              		.thumb
 583              		.thumb_func
 584              		.type	CyUSB_PowerOnCheck, %function
 585              	CyUSB_PowerOnCheck:
 586              	.LFB6:
 342:.\Generated_Source\PSoC5/CyLib.c **** 
 343:.\Generated_Source\PSoC5/CyLib.c **** 
 344:.\Generated_Source\PSoC5/CyLib.c **** /*******************************************************************************
 345:.\Generated_Source\PSoC5/CyLib.c **** * Function Name: CyUSB_PowerOnCheck
 346:.\Generated_Source\PSoC5/CyLib.c **** ********************************************************************************
 347:.\Generated_Source\PSoC5/CyLib.c **** *
 348:.\Generated_Source\PSoC5/CyLib.c **** * Summary:
 349:.\Generated_Source\PSoC5/CyLib.c **** *  Returns the USB power status value. A private function to cy_boot.
 350:.\Generated_Source\PSoC5/CyLib.c **** *
 351:.\Generated_Source\PSoC5/CyLib.c **** * Parameters:
 352:.\Generated_Source\PSoC5/CyLib.c **** *   None
 353:.\Generated_Source\PSoC5/CyLib.c **** *
 354:.\Generated_Source\PSoC5/CyLib.c **** * Return:
 355:.\Generated_Source\PSoC5/CyLib.c **** *   uint8: one if the USB is enabled, 0 if not enabled.
 356:.\Generated_Source\PSoC5/CyLib.c **** *
 357:.\Generated_Source\PSoC5/CyLib.c **** *******************************************************************************/
 358:.\Generated_Source\PSoC5/CyLib.c **** uint8 CyUSB_PowerOnCheck(void)  
 359:.\Generated_Source\PSoC5/CyLib.c **** {
 587              		.loc 1 359 0
 588              		.cfi_startproc
 589              		@ args = 0, pretend = 0, frame = 8
 590              		@ frame_needed = 1, uses_anonymous_args = 0
 591              		@ link register save eliminated.
 592 0000 80B4     		push	{r7}
 593              	.LCFI16:
 594              		.cfi_def_cfa_offset 4
 595 0002 83B0     		sub	sp, sp, #12
 596              	.LCFI17:
 597              		.cfi_def_cfa_offset 16
 598 0004 00AF     		add	r7, sp, #0
 599              		.cfi_offset 7, -4
 600              	.LCFI18:
 601              		.cfi_def_cfa_register 7
 360:.\Generated_Source\PSoC5/CyLib.c ****     uint8 powered_on = 0u;
 602              		.loc 1 360 0
 603 0006 4FF00003 		mov	r3, #0
 604 000a FB71     		strb	r3, [r7, #7]
 361:.\Generated_Source\PSoC5/CyLib.c **** 
ARM GAS  C:\Users\Heiwa\AppData\Local\Temp\ccuYQ69z.s 			page 18


 362:.\Generated_Source\PSoC5/CyLib.c ****     /* Check whether device is in Active or AltActiv and if USB is powered on */
 363:.\Generated_Source\PSoC5/CyLib.c ****     if((((CY_PM_MODE_CSR_REG & CY_PM_MODE_CSR_MASK) == CY_PM_MODE_CSR_ACTIVE) &&
 605              		.loc 1 363 0
 606 000c 44F29333 		movw	r3, #:lower16:1073759123
 607 0010 C4F20003 		movt	r3, #:upper16:1073759123
 608 0014 1B78     		ldrb	r3, [r3, #0]
 609 0016 DBB2     		uxtb	r3, r3
 610 0018 03F00703 		and	r3, r3, #7
 611 001c 002B     		cmp	r3, #0
 612 001e 0AD1     		bne	.L37
 364:.\Generated_Source\PSoC5/CyLib.c ****          (CY_PM_ACT_CFG5_REG & CY_ACT_USB_ENABLED)) ||
 613              		.loc 1 364 0
 614 0020 44F2A533 		movw	r3, #:lower16:1073759141
 615 0024 C4F20003 		movt	r3, #:upper16:1073759141
 616 0028 1B78     		ldrb	r3, [r3, #0]
 617 002a DBB2     		uxtb	r3, r3
 618 002c 03F00103 		and	r3, r3, #1
 619              		.loc 1 363 0
 620 0030 DBB2     		uxtb	r3, r3
 621 0032 002B     		cmp	r3, #0
 622 0034 14D1     		bne	.L38
 623              	.L37:
 365:.\Generated_Source\PSoC5/CyLib.c ****       (((CY_PM_MODE_CSR_REG & CY_PM_MODE_CSR_MASK) == CY_PM_MODE_CSR_ALT_ACT) &&
 624              		.loc 1 365 0
 625 0036 44F29333 		movw	r3, #:lower16:1073759123
 626 003a C4F20003 		movt	r3, #:upper16:1073759123
 627 003e 1B78     		ldrb	r3, [r3, #0]
 628 0040 DBB2     		uxtb	r3, r3
 629 0042 03F00703 		and	r3, r3, #7
 630              		.loc 1 363 0
 631 0046 012B     		cmp	r3, #1
 632 0048 0DD1     		bne	.L39
 366:.\Generated_Source\PSoC5/CyLib.c ****         (CY_PM_STBY_CFG5_REG & CY_ALT_ACT_USB_ENABLED)))
 633              		.loc 1 366 0
 634 004a 44F2B533 		movw	r3, #:lower16:1073759157
 635 004e C4F20003 		movt	r3, #:upper16:1073759157
 636 0052 1B78     		ldrb	r3, [r3, #0]
 637 0054 DBB2     		uxtb	r3, r3
 638 0056 03F00103 		and	r3, r3, #1
 639              		.loc 1 363 0
 640 005a DBB2     		uxtb	r3, r3
 641 005c 002B     		cmp	r3, #0
 642 005e 02D0     		beq	.L39
 643              	.L38:
 367:.\Generated_Source\PSoC5/CyLib.c ****     {
 368:.\Generated_Source\PSoC5/CyLib.c ****         powered_on = 1;
 644              		.loc 1 368 0
 645 0060 4FF00103 		mov	r3, #1
 646 0064 FB71     		strb	r3, [r7, #7]
 647              	.L39:
 369:.\Generated_Source\PSoC5/CyLib.c ****     }
 370:.\Generated_Source\PSoC5/CyLib.c **** 
 371:.\Generated_Source\PSoC5/CyLib.c ****     return (powered_on);
 648              		.loc 1 371 0
 649 0066 FB79     		ldrb	r3, [r7, #7]	@ zero_extendqisi2
 372:.\Generated_Source\PSoC5/CyLib.c **** }
 650              		.loc 1 372 0
ARM GAS  C:\Users\Heiwa\AppData\Local\Temp\ccuYQ69z.s 			page 19


 651 0068 1846     		mov	r0, r3
 652 006a 07F10C07 		add	r7, r7, #12
 653 006e BD46     		mov	sp, r7
 654 0070 80BC     		pop	{r7}
 655 0072 7047     		bx	lr
 656              		.cfi_endproc
 657              	.LFE6:
 658              		.size	CyUSB_PowerOnCheck, .-CyUSB_PowerOnCheck
 659              		.section	.text.CyIMO_SetTrimValue,"ax",%progbits
 660              		.align	2
 661              		.global	CyIMO_SetTrimValue
 662              		.thumb
 663              		.thumb_func
 664              		.type	CyIMO_SetTrimValue, %function
 665              	CyIMO_SetTrimValue:
 666              	.LFB7:
 373:.\Generated_Source\PSoC5/CyLib.c **** 
 374:.\Generated_Source\PSoC5/CyLib.c **** 
 375:.\Generated_Source\PSoC5/CyLib.c **** /*******************************************************************************
 376:.\Generated_Source\PSoC5/CyLib.c **** * Function Name: CyIMO_SetTrimValue
 377:.\Generated_Source\PSoC5/CyLib.c **** ********************************************************************************
 378:.\Generated_Source\PSoC5/CyLib.c **** *
 379:.\Generated_Source\PSoC5/CyLib.c **** * Summary:
 380:.\Generated_Source\PSoC5/CyLib.c **** *  Sets the IMO factory trim values.
 381:.\Generated_Source\PSoC5/CyLib.c **** *
 382:.\Generated_Source\PSoC5/CyLib.c **** * Parameters:
 383:.\Generated_Source\PSoC5/CyLib.c **** *  uint8 freq - frequency for which trims must be set
 384:.\Generated_Source\PSoC5/CyLib.c **** *
 385:.\Generated_Source\PSoC5/CyLib.c **** * Return:
 386:.\Generated_Source\PSoC5/CyLib.c **** *  None
 387:.\Generated_Source\PSoC5/CyLib.c **** *
 388:.\Generated_Source\PSoC5/CyLib.c **** *******************************************************************************/
 389:.\Generated_Source\PSoC5/CyLib.c **** void CyIMO_SetTrimValue(uint8 freq) 
 390:.\Generated_Source\PSoC5/CyLib.c **** {
 667              		.loc 1 390 0
 668              		.cfi_startproc
 669              		@ args = 0, pretend = 0, frame = 16
 670              		@ frame_needed = 1, uses_anonymous_args = 0
 671 0000 80B5     		push	{r7, lr}
 672              	.LCFI19:
 673              		.cfi_def_cfa_offset 8
 674 0002 84B0     		sub	sp, sp, #16
 675              	.LCFI20:
 676              		.cfi_def_cfa_offset 24
 677 0004 00AF     		add	r7, sp, #0
 678              		.cfi_offset 14, -4
 679              		.cfi_offset 7, -8
 680              	.LCFI21:
 681              		.cfi_def_cfa_register 7
 682 0006 0346     		mov	r3, r0
 683 0008 FB71     		strb	r3, [r7, #7]
 391:.\Generated_Source\PSoC5/CyLib.c ****     uint8 usb_power_on = CyUSB_PowerOnCheck();
 684              		.loc 1 391 0
 685 000a FFF7FEFF 		bl	CyUSB_PowerOnCheck
 686 000e 0346     		mov	r3, r0
 687 0010 FB73     		strb	r3, [r7, #15]
 392:.\Generated_Source\PSoC5/CyLib.c **** 
ARM GAS  C:\Users\Heiwa\AppData\Local\Temp\ccuYQ69z.s 			page 20


 393:.\Generated_Source\PSoC5/CyLib.c ****     /* If USB is powered */
 394:.\Generated_Source\PSoC5/CyLib.c ****     if(usb_power_on == 1)
 688              		.loc 1 394 0
 689 0012 FB7B     		ldrb	r3, [r7, #15]	@ zero_extendqisi2
 690 0014 012B     		cmp	r3, #1
 691 0016 0CD1     		bne	.L42
 395:.\Generated_Source\PSoC5/CyLib.c ****     {
 396:.\Generated_Source\PSoC5/CyLib.c ****         /* Unlock USB write */
 397:.\Generated_Source\PSoC5/CyLib.c ****         CY_USB_CR1 &= ~CLOCK_USB_ENABLE;
 692              		.loc 1 397 0
 693 0018 46F20903 		movw	r3, #:lower16:1073766409
 694 001c C4F20003 		movt	r3, #:upper16:1073766409
 695 0020 46F20902 		movw	r2, #:lower16:1073766409
 696 0024 C4F20002 		movt	r2, #:upper16:1073766409
 697 0028 1278     		ldrb	r2, [r2, #0]
 698 002a D2B2     		uxtb	r2, r2
 699 002c 02F0FD02 		and	r2, r2, #253
 700 0030 1A70     		strb	r2, [r3, #0]
 701              	.L42:
 398:.\Generated_Source\PSoC5/CyLib.c ****     }
 399:.\Generated_Source\PSoC5/CyLib.c ****     switch(freq)
 702              		.loc 1 399 0
 703 0032 FB79     		ldrb	r3, [r7, #7]	@ zero_extendqisi2
 704 0034 082B     		cmp	r3, #8
 705 0036 6ED8     		bhi	.L43
 706 0038 01A2     		adr	r2, .L50
 707 003a 52F823F0 		ldr	pc, [r2, r3, lsl #2]
 708 003e 00BF     		.align	2
 709              	.L50:
 710 0040 65000000 		.word	.L44+1
 711 0044 7D000000 		.word	.L45+1
 712 0048 95000000 		.word	.L46+1
 713 004c AD000000 		.word	.L47+1
 714 0050 C5000000 		.word	.L48+1
 715 0054 17010000 		.word	.L43+1
 716 0058 17010000 		.word	.L43+1
 717 005c 17010000 		.word	.L43+1
 718 0060 DD000000 		.word	.L49+1
 719              	.L44:
 400:.\Generated_Source\PSoC5/CyLib.c ****     {
 401:.\Generated_Source\PSoC5/CyLib.c ****     case CY_IMO_FREQ_3MHZ:
 402:.\Generated_Source\PSoC5/CyLib.c ****         IMO_TR1 = CY_GET_XTND_REG8(FLSHID_CUST_TABLES_IMO_3MHZ_PTR);
 720              		.loc 1 402 0
 721 0064 44F2A163 		movw	r3, #:lower16:1073759905
 722 0068 C4F20003 		movt	r3, #:upper16:1073759905
 723 006c 40F20812 		movw	r2, #:lower16:1224737032
 724 0070 C4F60012 		movt	r2, #:upper16:1224737032
 725 0074 1278     		ldrb	r2, [r2, #0]
 726 0076 D2B2     		uxtb	r2, r2
 727 0078 1A70     		strb	r2, [r3, #0]
 403:.\Generated_Source\PSoC5/CyLib.c ****         break;
 728              		.loc 1 403 0
 729 007a 52E0     		b	.L53
 730              	.L45:
 404:.\Generated_Source\PSoC5/CyLib.c **** 
 405:.\Generated_Source\PSoC5/CyLib.c ****     case CY_IMO_FREQ_6MHZ:
 406:.\Generated_Source\PSoC5/CyLib.c ****         IMO_TR1 = CY_GET_XTND_REG8(FLSHID_CUST_TABLES_IMO_6MHZ_PTR);
ARM GAS  C:\Users\Heiwa\AppData\Local\Temp\ccuYQ69z.s 			page 21


 731              		.loc 1 406 0
 732 007c 44F2A163 		movw	r3, #:lower16:1073759905
 733 0080 C4F20003 		movt	r3, #:upper16:1073759905
 734 0084 40F20912 		movw	r2, #:lower16:1224737033
 735 0088 C4F60012 		movt	r2, #:upper16:1224737033
 736 008c 1278     		ldrb	r2, [r2, #0]
 737 008e D2B2     		uxtb	r2, r2
 738 0090 1A70     		strb	r2, [r3, #0]
 407:.\Generated_Source\PSoC5/CyLib.c ****         break;
 739              		.loc 1 407 0
 740 0092 46E0     		b	.L53
 741              	.L46:
 408:.\Generated_Source\PSoC5/CyLib.c **** 
 409:.\Generated_Source\PSoC5/CyLib.c ****     case CY_IMO_FREQ_12MHZ:
 410:.\Generated_Source\PSoC5/CyLib.c ****         IMO_TR1 = CY_GET_XTND_REG8(FLSHID_CUST_TABLES_IMO_12MHZ_PTR);
 742              		.loc 1 410 0
 743 0094 44F2A163 		movw	r3, #:lower16:1073759905
 744 0098 C4F20003 		movt	r3, #:upper16:1073759905
 745 009c 40F20A12 		movw	r2, #:lower16:1224737034
 746 00a0 C4F60012 		movt	r2, #:upper16:1224737034
 747 00a4 1278     		ldrb	r2, [r2, #0]
 748 00a6 D2B2     		uxtb	r2, r2
 749 00a8 1A70     		strb	r2, [r3, #0]
 411:.\Generated_Source\PSoC5/CyLib.c ****         break;
 750              		.loc 1 411 0
 751 00aa 3AE0     		b	.L53
 752              	.L47:
 412:.\Generated_Source\PSoC5/CyLib.c **** 
 413:.\Generated_Source\PSoC5/CyLib.c ****     case CY_IMO_FREQ_24MHZ:
 414:.\Generated_Source\PSoC5/CyLib.c ****         IMO_TR1 = CY_GET_XTND_REG8(FLSHID_CUST_TABLES_IMO_24MHZ_PTR);
 753              		.loc 1 414 0
 754 00ac 44F2A163 		movw	r3, #:lower16:1073759905
 755 00b0 C4F20003 		movt	r3, #:upper16:1073759905
 756 00b4 40F20B12 		movw	r2, #:lower16:1224737035
 757 00b8 C4F60012 		movt	r2, #:upper16:1224737035
 758 00bc 1278     		ldrb	r2, [r2, #0]
 759 00be D2B2     		uxtb	r2, r2
 760 00c0 1A70     		strb	r2, [r3, #0]
 415:.\Generated_Source\PSoC5/CyLib.c ****         break;
 761              		.loc 1 415 0
 762 00c2 2EE0     		b	.L53
 763              	.L48:
 416:.\Generated_Source\PSoC5/CyLib.c **** 
 417:.\Generated_Source\PSoC5/CyLib.c ****     case CY_IMO_FREQ_48MHZ:
 418:.\Generated_Source\PSoC5/CyLib.c ****         IMO_TR1 = CY_GET_XTND_REG8(FLSHID_MFG_CFG_IMO_TR1_PTR);
 764              		.loc 1 418 0
 765 00c4 44F2A163 		movw	r3, #:lower16:1073759905
 766 00c8 C4F20003 		movt	r3, #:upper16:1073759905
 767 00cc 40F28312 		movw	r2, #:lower16:1224737155
 768 00d0 C4F60012 		movt	r2, #:upper16:1224737155
 769 00d4 1278     		ldrb	r2, [r2, #0]
 770 00d6 D2B2     		uxtb	r2, r2
 771 00d8 1A70     		strb	r2, [r3, #0]
 419:.\Generated_Source\PSoC5/CyLib.c ****         break;
 772              		.loc 1 419 0
 773 00da 22E0     		b	.L53
 774              	.L49:
ARM GAS  C:\Users\Heiwa\AppData\Local\Temp\ccuYQ69z.s 			page 22


 420:.\Generated_Source\PSoC5/CyLib.c **** 
 421:.\Generated_Source\PSoC5/CyLib.c ****     /* The IMO frequencies above 48 MHz are not supported by PSoC5 */
 422:.\Generated_Source\PSoC5/CyLib.c ****     #if(!CY_PSOC5A)
 423:.\Generated_Source\PSoC5/CyLib.c **** 
 424:.\Generated_Source\PSoC5/CyLib.c ****         case CY_IMO_FREQ_62MHZ:
 425:.\Generated_Source\PSoC5/CyLib.c ****             IMO_TR1 = CY_GET_XTND_REG8(FLSHID_CUST_TABLES_IMO_67MHZ_PTR);
 426:.\Generated_Source\PSoC5/CyLib.c ****             break;
 427:.\Generated_Source\PSoC5/CyLib.c **** 
 428:.\Generated_Source\PSoC5/CyLib.c ****     #endif  /* (!CY_PSOC5A) */
 429:.\Generated_Source\PSoC5/CyLib.c **** 
 430:.\Generated_Source\PSoC5/CyLib.c ****     case CY_IMO_FREQ_USB:
 431:.\Generated_Source\PSoC5/CyLib.c ****         IMO_TR1 = CY_GET_XTND_REG8(FLSHID_CUST_TABLES_IMO_USB_PTR);
 775              		.loc 1 431 0
 776 00dc 44F2A163 		movw	r3, #:lower16:1073759905
 777 00e0 C4F20003 		movt	r3, #:upper16:1073759905
 778 00e4 40F20F12 		movw	r2, #:lower16:1224737039
 779 00e8 C4F60012 		movt	r2, #:upper16:1224737039
 780 00ec 1278     		ldrb	r2, [r2, #0]
 781 00ee D2B2     		uxtb	r2, r2
 782 00f0 1A70     		strb	r2, [r3, #0]
 432:.\Generated_Source\PSoC5/CyLib.c **** 
 433:.\Generated_Source\PSoC5/CyLib.c ****         /* If USB is powered */
 434:.\Generated_Source\PSoC5/CyLib.c ****         if(usb_power_on == 1)
 783              		.loc 1 434 0
 784 00f2 FB7B     		ldrb	r3, [r7, #15]	@ zero_extendqisi2
 785 00f4 012B     		cmp	r3, #1
 786 00f6 13D1     		bne	.L54
 435:.\Generated_Source\PSoC5/CyLib.c ****         {
 436:.\Generated_Source\PSoC5/CyLib.c ****             /* Lock the USB Oscillator */
 437:.\Generated_Source\PSoC5/CyLib.c ****             CY_USB_CR1 |= CLOCK_USB_ENABLE;
 787              		.loc 1 437 0
 788 00f8 46F20903 		movw	r3, #:lower16:1073766409
 789 00fc C4F20003 		movt	r3, #:upper16:1073766409
 790 0100 46F20902 		movw	r2, #:lower16:1073766409
 791 0104 C4F20002 		movt	r2, #:upper16:1073766409
 792 0108 1278     		ldrb	r2, [r2, #0]
 793 010a D2B2     		uxtb	r2, r2
 794 010c 42F00202 		orr	r2, r2, #2
 795 0110 D2B2     		uxtb	r2, r2
 796 0112 1A70     		strb	r2, [r3, #0]
 438:.\Generated_Source\PSoC5/CyLib.c ****         }
 439:.\Generated_Source\PSoC5/CyLib.c ****         break;
 797              		.loc 1 439 0
 798 0114 05E0     		b	.L53
 799              	.L43:
 440:.\Generated_Source\PSoC5/CyLib.c **** 
 441:.\Generated_Source\PSoC5/CyLib.c ****     default:
 442:.\Generated_Source\PSoC5/CyLib.c ****             CYASSERT(0);
 800              		.loc 1 442 0
 801 0116 4FF00000 		mov	r0, #0
 802 011a FFF7FEFF 		bl	CyHalt
 803 011e 00E0     		b	.L53
 804              	.L54:
 805              		.loc 1 439 0
 806 0120 00BF     		nop
 807              	.L53:
 443:.\Generated_Source\PSoC5/CyLib.c ****         break;
ARM GAS  C:\Users\Heiwa\AppData\Local\Temp\ccuYQ69z.s 			page 23


 444:.\Generated_Source\PSoC5/CyLib.c ****     }
 445:.\Generated_Source\PSoC5/CyLib.c **** 
 446:.\Generated_Source\PSoC5/CyLib.c **** }
 808              		.loc 1 446 0
 809 0122 07F11007 		add	r7, r7, #16
 810 0126 BD46     		mov	sp, r7
 811 0128 80BD     		pop	{r7, pc}
 812              		.cfi_endproc
 813              	.LFE7:
 814              		.size	CyIMO_SetTrimValue, .-CyIMO_SetTrimValue
 815 012a 00BF     		.section	.text.CyIMO_SetFreq,"ax",%progbits
 816              		.align	2
 817              		.global	CyIMO_SetFreq
 818              		.thumb
 819              		.thumb_func
 820              		.type	CyIMO_SetFreq, %function
 821              	CyIMO_SetFreq:
 822              	.LFB8:
 447:.\Generated_Source\PSoC5/CyLib.c **** 
 448:.\Generated_Source\PSoC5/CyLib.c **** 
 449:.\Generated_Source\PSoC5/CyLib.c **** /*******************************************************************************
 450:.\Generated_Source\PSoC5/CyLib.c **** * Function Name: CyIMO_SetFreq
 451:.\Generated_Source\PSoC5/CyLib.c **** ********************************************************************************
 452:.\Generated_Source\PSoC5/CyLib.c **** *
 453:.\Generated_Source\PSoC5/CyLib.c **** * Summary:
 454:.\Generated_Source\PSoC5/CyLib.c **** *  Sets the frequency of the IMO. Changes may be made while the IMO is running.
 455:.\Generated_Source\PSoC5/CyLib.c **** *
 456:.\Generated_Source\PSoC5/CyLib.c **** * Parameters:
 457:.\Generated_Source\PSoC5/CyLib.c **** *  freq: Frequency of IMO operation
 458:.\Generated_Source\PSoC5/CyLib.c **** *       CY_IMO_FREQ_3MHZ  to set  3   MHz
 459:.\Generated_Source\PSoC5/CyLib.c **** *       CY_IMO_FREQ_6MHZ  to set  6   MHz
 460:.\Generated_Source\PSoC5/CyLib.c **** *       CY_IMO_FREQ_12MHZ to set 12   MHz
 461:.\Generated_Source\PSoC5/CyLib.c **** *       CY_IMO_FREQ_24MHZ to set 24   MHz
 462:.\Generated_Source\PSoC5/CyLib.c **** *       CY_IMO_FREQ_48MHZ to set 48   MHz
 463:.\Generated_Source\PSoC5/CyLib.c **** *       CY_IMO_FREQ_62MHZ to set 62.6 MHz (unsupported by PSoC 5)
 464:.\Generated_Source\PSoC5/CyLib.c **** *       CY_IMO_FREQ_USB   to set 24   MHz (Trimmed for USB operation)
 465:.\Generated_Source\PSoC5/CyLib.c **** *
 466:.\Generated_Source\PSoC5/CyLib.c **** * Return:
 467:.\Generated_Source\PSoC5/CyLib.c **** *  None
 468:.\Generated_Source\PSoC5/CyLib.c **** *
 469:.\Generated_Source\PSoC5/CyLib.c **** * Side Effects:
 470:.\Generated_Source\PSoC5/CyLib.c **** *  If as result of this function execution the CPU clock frequency is increased
 471:.\Generated_Source\PSoC5/CyLib.c **** *  then the number of clock cycles the cache will wait before it samples data
 472:.\Generated_Source\PSoC5/CyLib.c **** *  coming back from Flash must be adjusted by calling CyFlash_SetWaitCycles()
 473:.\Generated_Source\PSoC5/CyLib.c **** *  with appropriate parameter. It can be optionally called if CPU clock
 474:.\Generated_Source\PSoC5/CyLib.c **** *  frequency is lowered in order to improve CPU performance.
 475:.\Generated_Source\PSoC5/CyLib.c **** *  See CyFlash_SetWaitCycles() description for more information.
 476:.\Generated_Source\PSoC5/CyLib.c **** *
 477:.\Generated_Source\PSoC5/CyLib.c **** *  When the USB setting is chosen, the USB clock locking circuit is enabled.
 478:.\Generated_Source\PSoC5/CyLib.c **** *  Otherwise this circuit is disabled. The USB block must be powered before
 479:.\Generated_Source\PSoC5/CyLib.c **** *  selecting the USB setting.
 480:.\Generated_Source\PSoC5/CyLib.c **** *
 481:.\Generated_Source\PSoC5/CyLib.c **** *******************************************************************************/
 482:.\Generated_Source\PSoC5/CyLib.c **** void CyIMO_SetFreq(uint8 freq) 
 483:.\Generated_Source\PSoC5/CyLib.c **** {
 823              		.loc 1 483 0
 824              		.cfi_startproc
ARM GAS  C:\Users\Heiwa\AppData\Local\Temp\ccuYQ69z.s 			page 24


 825              		@ args = 0, pretend = 0, frame = 16
 826              		@ frame_needed = 1, uses_anonymous_args = 0
 827 0000 80B5     		push	{r7, lr}
 828              	.LCFI22:
 829              		.cfi_def_cfa_offset 8
 830 0002 84B0     		sub	sp, sp, #16
 831              	.LCFI23:
 832              		.cfi_def_cfa_offset 24
 833 0004 00AF     		add	r7, sp, #0
 834              		.cfi_offset 14, -4
 835              		.cfi_offset 7, -8
 836              	.LCFI24:
 837              		.cfi_def_cfa_register 7
 838 0006 0346     		mov	r3, r0
 839 0008 FB71     		strb	r3, [r7, #7]
 484:.\Generated_Source\PSoC5/CyLib.c ****     uint8 current_freq;
 485:.\Generated_Source\PSoC5/CyLib.c ****     uint8 next_freq;
 486:.\Generated_Source\PSoC5/CyLib.c **** 
 487:.\Generated_Source\PSoC5/CyLib.c ****     /***************************************************************************
 488:.\Generated_Source\PSoC5/CyLib.c ****     * When changing the IMO frequency the Trim values must also be set
 489:.\Generated_Source\PSoC5/CyLib.c ****     * accordingly.This requires reading the current frequency. If the new
 490:.\Generated_Source\PSoC5/CyLib.c ****     * frequency is faster, then set the new trim and then change the frequency,
 491:.\Generated_Source\PSoC5/CyLib.c ****     * otherwise change the frequency and then set the new trim values.
 492:.\Generated_Source\PSoC5/CyLib.c ****     ***************************************************************************/
 493:.\Generated_Source\PSoC5/CyLib.c **** 
 494:.\Generated_Source\PSoC5/CyLib.c ****     current_freq = FASTCLK_IMO_CR & ~CLOCK_IMO_RANGE_CLEAR;
 840              		.loc 1 494 0
 841 000a 44F20023 		movw	r3, #:lower16:1073758720
 842 000e C4F20003 		movt	r3, #:upper16:1073758720
 843 0012 1B78     		ldrb	r3, [r3, #0]
 844 0014 DBB2     		uxtb	r3, r3
 845 0016 03F00703 		and	r3, r3, #7
 846 001a BB73     		strb	r3, [r7, #14]
 495:.\Generated_Source\PSoC5/CyLib.c **** 
 496:.\Generated_Source\PSoC5/CyLib.c ****     /* Check if the requested frequency is USB. */
 497:.\Generated_Source\PSoC5/CyLib.c ****     next_freq = (freq == CY_IMO_FREQ_USB) ? CY_IMO_FREQ_24MHZ : freq;
 847              		.loc 1 497 0
 848 001c FB79     		ldrb	r3, [r7, #7]	@ zero_extendqisi2
 849 001e 082B     		cmp	r3, #8
 850 0020 01D0     		beq	.L56
 851 0022 FB79     		ldrb	r3, [r7, #7]	@ zero_extendqisi2
 852 0024 01E0     		b	.L57
 853              	.L56:
 854 0026 4FF00303 		mov	r3, #3
 855              	.L57:
 856 002a FB73     		strb	r3, [r7, #15]
 498:.\Generated_Source\PSoC5/CyLib.c **** 
 499:.\Generated_Source\PSoC5/CyLib.c ****     switch (current_freq)
 857              		.loc 1 499 0
 858 002c BB7B     		ldrb	r3, [r7, #14]	@ zero_extendqisi2
 859 002e 042B     		cmp	r3, #4
 860 0030 20D8     		bhi	.L58
 861 0032 01A2     		adr	r2, .L64
 862 0034 52F823F0 		ldr	pc, [r2, r3, lsl #2]
 863              		.align	2
 864              	.L64:
 865 0038 4D000000 		.word	.L59+1
ARM GAS  C:\Users\Heiwa\AppData\Local\Temp\ccuYQ69z.s 			page 25


 866 003c 55000000 		.word	.L60+1
 867 0040 5D000000 		.word	.L61+1
 868 0044 65000000 		.word	.L62+1
 869 0048 6D000000 		.word	.L63+1
 870              	.L59:
 500:.\Generated_Source\PSoC5/CyLib.c ****     {
 501:.\Generated_Source\PSoC5/CyLib.c ****     case 0:
 502:.\Generated_Source\PSoC5/CyLib.c ****         current_freq = CY_IMO_FREQ_12MHZ;
 871              		.loc 1 502 0
 872 004c 4FF00203 		mov	r3, #2
 873 0050 BB73     		strb	r3, [r7, #14]
 503:.\Generated_Source\PSoC5/CyLib.c ****         break;
 874              		.loc 1 503 0
 875 0052 13E0     		b	.L65
 876              	.L60:
 504:.\Generated_Source\PSoC5/CyLib.c **** 
 505:.\Generated_Source\PSoC5/CyLib.c ****     case 1:
 506:.\Generated_Source\PSoC5/CyLib.c ****         current_freq = CY_IMO_FREQ_6MHZ;
 877              		.loc 1 506 0
 878 0054 4FF00103 		mov	r3, #1
 879 0058 BB73     		strb	r3, [r7, #14]
 507:.\Generated_Source\PSoC5/CyLib.c ****         break;
 880              		.loc 1 507 0
 881 005a 0FE0     		b	.L65
 882              	.L61:
 508:.\Generated_Source\PSoC5/CyLib.c **** 
 509:.\Generated_Source\PSoC5/CyLib.c ****     case 2:
 510:.\Generated_Source\PSoC5/CyLib.c ****         current_freq = CY_IMO_FREQ_24MHZ;
 883              		.loc 1 510 0
 884 005c 4FF00303 		mov	r3, #3
 885 0060 BB73     		strb	r3, [r7, #14]
 511:.\Generated_Source\PSoC5/CyLib.c ****         break;
 886              		.loc 1 511 0
 887 0062 0BE0     		b	.L65
 888              	.L62:
 512:.\Generated_Source\PSoC5/CyLib.c **** 
 513:.\Generated_Source\PSoC5/CyLib.c ****     case 3:
 514:.\Generated_Source\PSoC5/CyLib.c ****         current_freq = CY_IMO_FREQ_3MHZ;
 889              		.loc 1 514 0
 890 0064 4FF00003 		mov	r3, #0
 891 0068 BB73     		strb	r3, [r7, #14]
 515:.\Generated_Source\PSoC5/CyLib.c ****         break;
 892              		.loc 1 515 0
 893 006a 07E0     		b	.L65
 894              	.L63:
 516:.\Generated_Source\PSoC5/CyLib.c **** 
 517:.\Generated_Source\PSoC5/CyLib.c ****     case 4:
 518:.\Generated_Source\PSoC5/CyLib.c ****         current_freq = CY_IMO_FREQ_48MHZ;
 895              		.loc 1 518 0
 896 006c 4FF00403 		mov	r3, #4
 897 0070 BB73     		strb	r3, [r7, #14]
 519:.\Generated_Source\PSoC5/CyLib.c ****         break;
 898              		.loc 1 519 0
 899 0072 03E0     		b	.L65
 900              	.L58:
 520:.\Generated_Source\PSoC5/CyLib.c **** 
 521:.\Generated_Source\PSoC5/CyLib.c ****     /* The IMO frequencies above 48 MHz are not supported by PSoC5 */
ARM GAS  C:\Users\Heiwa\AppData\Local\Temp\ccuYQ69z.s 			page 26


 522:.\Generated_Source\PSoC5/CyLib.c ****     #if(!CY_PSOC5A)
 523:.\Generated_Source\PSoC5/CyLib.c **** 
 524:.\Generated_Source\PSoC5/CyLib.c ****         case 5:
 525:.\Generated_Source\PSoC5/CyLib.c ****             current_freq = CY_IMO_FREQ_62MHZ;
 526:.\Generated_Source\PSoC5/CyLib.c ****             break;
 527:.\Generated_Source\PSoC5/CyLib.c **** 
 528:.\Generated_Source\PSoC5/CyLib.c ****     #endif  /* (!CY_PSOC5A) */
 529:.\Generated_Source\PSoC5/CyLib.c **** 
 530:.\Generated_Source\PSoC5/CyLib.c ****     default:
 531:.\Generated_Source\PSoC5/CyLib.c ****         CYASSERT((uint32) 0);
 901              		.loc 1 531 0
 902 0074 4FF00000 		mov	r0, #0
 903 0078 FFF7FEFF 		bl	CyHalt
 904              	.L65:
 532:.\Generated_Source\PSoC5/CyLib.c ****         break;
 533:.\Generated_Source\PSoC5/CyLib.c ****     }
 534:.\Generated_Source\PSoC5/CyLib.c **** 
 535:.\Generated_Source\PSoC5/CyLib.c ****     if (next_freq >= current_freq)
 905              		.loc 1 535 0
 906 007c FA7B     		ldrb	r2, [r7, #15]	@ zero_extendqisi2
 907 007e BB7B     		ldrb	r3, [r7, #14]	@ zero_extendqisi2
 908 0080 9A42     		cmp	r2, r3
 909 0082 03D3     		bcc	.L66
 536:.\Generated_Source\PSoC5/CyLib.c ****     {
 537:.\Generated_Source\PSoC5/CyLib.c ****         /* Set the new trim first */
 538:.\Generated_Source\PSoC5/CyLib.c ****         CyIMO_SetTrimValue(freq);
 910              		.loc 1 538 0
 911 0084 FB79     		ldrb	r3, [r7, #7]	@ zero_extendqisi2
 912 0086 1846     		mov	r0, r3
 913 0088 FFF7FEFF 		bl	CyIMO_SetTrimValue
 914              	.L66:
 539:.\Generated_Source\PSoC5/CyLib.c ****     }
 540:.\Generated_Source\PSoC5/CyLib.c **** 
 541:.\Generated_Source\PSoC5/CyLib.c ****     /* Set the usbclk_on bit when using CY_IMO_FREQ_USB, if not clear it */
 542:.\Generated_Source\PSoC5/CyLib.c ****     switch(freq)
 915              		.loc 1 542 0
 916 008c FB79     		ldrb	r3, [r7, #7]	@ zero_extendqisi2
 917 008e 082B     		cmp	r3, #8
 918 0090 77D8     		bhi	.L67
 919 0092 01A2     		adr	r2, .L74
 920 0094 52F823F0 		ldr	pc, [r2, r3, lsl #2]
 921              		.align	2
 922              	.L74:
 923 0098 BD000000 		.word	.L68+1
 924 009c DF000000 		.word	.L69+1
 925 00a0 01010000 		.word	.L70+1
 926 00a4 1D010000 		.word	.L71+1
 927 00a8 3F010000 		.word	.L72+1
 928 00ac 83010000 		.word	.L67+1
 929 00b0 83010000 		.word	.L67+1
 930 00b4 83010000 		.word	.L67+1
 931 00b8 61010000 		.word	.L73+1
 932              	.L68:
 543:.\Generated_Source\PSoC5/CyLib.c ****     {
 544:.\Generated_Source\PSoC5/CyLib.c ****     case CY_IMO_FREQ_3MHZ:
 545:.\Generated_Source\PSoC5/CyLib.c ****         FASTCLK_IMO_CR = ((FASTCLK_IMO_CR & CLOCK_IMO_RANGE_CLEAR) |
 933              		.loc 1 545 0
ARM GAS  C:\Users\Heiwa\AppData\Local\Temp\ccuYQ69z.s 			page 27


 934 00bc 44F20023 		movw	r3, #:lower16:1073758720
 935 00c0 C4F20003 		movt	r3, #:upper16:1073758720
 936 00c4 44F20022 		movw	r2, #:lower16:1073758720
 937 00c8 C4F20002 		movt	r2, #:upper16:1073758720
 938 00cc 1278     		ldrb	r2, [r2, #0]
 939 00ce D2B2     		uxtb	r2, r2
 940 00d0 02F0B802 		and	r2, r2, #184
 941 00d4 42F00302 		orr	r2, r2, #3
 942 00d8 D2B2     		uxtb	r2, r2
 943 00da 1A70     		strb	r2, [r3, #0]
 546:.\Generated_Source\PSoC5/CyLib.c ****             CLOCK_IMO_3MHZ_VALUE) & ~FASTCLK_IMO_USBCLK_ON_SET;
 547:.\Generated_Source\PSoC5/CyLib.c ****         break;
 944              		.loc 1 547 0
 945 00dc 55E0     		b	.L75
 946              	.L69:
 548:.\Generated_Source\PSoC5/CyLib.c **** 
 549:.\Generated_Source\PSoC5/CyLib.c ****     case CY_IMO_FREQ_6MHZ:
 550:.\Generated_Source\PSoC5/CyLib.c ****         FASTCLK_IMO_CR = ((FASTCLK_IMO_CR & CLOCK_IMO_RANGE_CLEAR) |
 947              		.loc 1 550 0
 948 00de 44F20023 		movw	r3, #:lower16:1073758720
 949 00e2 C4F20003 		movt	r3, #:upper16:1073758720
 950 00e6 44F20022 		movw	r2, #:lower16:1073758720
 951 00ea C4F20002 		movt	r2, #:upper16:1073758720
 952 00ee 1278     		ldrb	r2, [r2, #0]
 953 00f0 D2B2     		uxtb	r2, r2
 954 00f2 02F0B802 		and	r2, r2, #184
 955 00f6 42F00102 		orr	r2, r2, #1
 956 00fa D2B2     		uxtb	r2, r2
 957 00fc 1A70     		strb	r2, [r3, #0]
 551:.\Generated_Source\PSoC5/CyLib.c ****             CLOCK_IMO_6MHZ_VALUE) & ~FASTCLK_IMO_USBCLK_ON_SET;
 552:.\Generated_Source\PSoC5/CyLib.c ****         break;
 958              		.loc 1 552 0
 959 00fe 44E0     		b	.L75
 960              	.L70:
 553:.\Generated_Source\PSoC5/CyLib.c **** 
 554:.\Generated_Source\PSoC5/CyLib.c ****     case CY_IMO_FREQ_12MHZ:
 555:.\Generated_Source\PSoC5/CyLib.c ****         FASTCLK_IMO_CR = ((FASTCLK_IMO_CR & CLOCK_IMO_RANGE_CLEAR) |
 961              		.loc 1 555 0
 962 0100 44F20023 		movw	r3, #:lower16:1073758720
 963 0104 C4F20003 		movt	r3, #:upper16:1073758720
 964 0108 44F20022 		movw	r2, #:lower16:1073758720
 965 010c C4F20002 		movt	r2, #:upper16:1073758720
 966 0110 1278     		ldrb	r2, [r2, #0]
 967 0112 D2B2     		uxtb	r2, r2
 968 0114 02F0B802 		and	r2, r2, #184
 969 0118 1A70     		strb	r2, [r3, #0]
 556:.\Generated_Source\PSoC5/CyLib.c ****             CLOCK_IMO_12MHZ_VALUE) & ~FASTCLK_IMO_USBCLK_ON_SET;
 557:.\Generated_Source\PSoC5/CyLib.c ****         break;
 970              		.loc 1 557 0
 971 011a 36E0     		b	.L75
 972              	.L71:
 558:.\Generated_Source\PSoC5/CyLib.c **** 
 559:.\Generated_Source\PSoC5/CyLib.c ****     case CY_IMO_FREQ_24MHZ:
 560:.\Generated_Source\PSoC5/CyLib.c ****         FASTCLK_IMO_CR = ((FASTCLK_IMO_CR & CLOCK_IMO_RANGE_CLEAR) |
 973              		.loc 1 560 0
 974 011c 44F20023 		movw	r3, #:lower16:1073758720
 975 0120 C4F20003 		movt	r3, #:upper16:1073758720
ARM GAS  C:\Users\Heiwa\AppData\Local\Temp\ccuYQ69z.s 			page 28


 976 0124 44F20022 		movw	r2, #:lower16:1073758720
 977 0128 C4F20002 		movt	r2, #:upper16:1073758720
 978 012c 1278     		ldrb	r2, [r2, #0]
 979 012e D2B2     		uxtb	r2, r2
 980 0130 02F0B802 		and	r2, r2, #184
 981 0134 42F00202 		orr	r2, r2, #2
 982 0138 D2B2     		uxtb	r2, r2
 983 013a 1A70     		strb	r2, [r3, #0]
 561:.\Generated_Source\PSoC5/CyLib.c ****             CLOCK_IMO_24MHZ_VALUE) & ~FASTCLK_IMO_USBCLK_ON_SET;
 562:.\Generated_Source\PSoC5/CyLib.c ****         break;
 984              		.loc 1 562 0
 985 013c 25E0     		b	.L75
 986              	.L72:
 563:.\Generated_Source\PSoC5/CyLib.c **** 
 564:.\Generated_Source\PSoC5/CyLib.c ****     case CY_IMO_FREQ_48MHZ:
 565:.\Generated_Source\PSoC5/CyLib.c ****         FASTCLK_IMO_CR = ((FASTCLK_IMO_CR & CLOCK_IMO_RANGE_CLEAR) |
 987              		.loc 1 565 0
 988 013e 44F20023 		movw	r3, #:lower16:1073758720
 989 0142 C4F20003 		movt	r3, #:upper16:1073758720
 990 0146 44F20022 		movw	r2, #:lower16:1073758720
 991 014a C4F20002 		movt	r2, #:upper16:1073758720
 992 014e 1278     		ldrb	r2, [r2, #0]
 993 0150 D2B2     		uxtb	r2, r2
 994 0152 02F0B802 		and	r2, r2, #184
 995 0156 42F00402 		orr	r2, r2, #4
 996 015a D2B2     		uxtb	r2, r2
 997 015c 1A70     		strb	r2, [r3, #0]
 566:.\Generated_Source\PSoC5/CyLib.c ****             CLOCK_IMO_48MHZ_VALUE) & ~FASTCLK_IMO_USBCLK_ON_SET;
 567:.\Generated_Source\PSoC5/CyLib.c ****         break;
 998              		.loc 1 567 0
 999 015e 14E0     		b	.L75
 1000              	.L73:
 568:.\Generated_Source\PSoC5/CyLib.c **** 
 569:.\Generated_Source\PSoC5/CyLib.c ****     /* The IMO frequencies above 48 MHz are not supported by PSoC5 */
 570:.\Generated_Source\PSoC5/CyLib.c ****     #if(!CY_PSOC5A)
 571:.\Generated_Source\PSoC5/CyLib.c **** 
 572:.\Generated_Source\PSoC5/CyLib.c ****     case CY_IMO_FREQ_62MHZ:
 573:.\Generated_Source\PSoC5/CyLib.c ****         FASTCLK_IMO_CR = ((FASTCLK_IMO_CR & CLOCK_IMO_RANGE_CLEAR) |
 574:.\Generated_Source\PSoC5/CyLib.c ****             CLOCK_IMO_62MHZ_VALUE) & ~FASTCLK_IMO_USBCLK_ON_SET;
 575:.\Generated_Source\PSoC5/CyLib.c ****         break;
 576:.\Generated_Source\PSoC5/CyLib.c **** 
 577:.\Generated_Source\PSoC5/CyLib.c ****     #endif  /* (!CY_PSOC5A) */
 578:.\Generated_Source\PSoC5/CyLib.c **** 
 579:.\Generated_Source\PSoC5/CyLib.c ****     case CY_IMO_FREQ_USB:
 580:.\Generated_Source\PSoC5/CyLib.c ****         FASTCLK_IMO_CR = ((FASTCLK_IMO_CR & CLOCK_IMO_RANGE_CLEAR) |
 1001              		.loc 1 580 0
 1002 0160 44F20023 		movw	r3, #:lower16:1073758720
 1003 0164 C4F20003 		movt	r3, #:upper16:1073758720
 1004 0168 44F20022 		movw	r2, #:lower16:1073758720
 1005 016c C4F20002 		movt	r2, #:upper16:1073758720
 1006 0170 1278     		ldrb	r2, [r2, #0]
 1007 0172 D2B2     		uxtb	r2, r2
 1008 0174 02F0B802 		and	r2, r2, #184
 1009 0178 42F04202 		orr	r2, r2, #66
 1010 017c D2B2     		uxtb	r2, r2
 1011 017e 1A70     		strb	r2, [r3, #0]
 581:.\Generated_Source\PSoC5/CyLib.c ****             CLOCK_IMO_24MHZ_VALUE) | FASTCLK_IMO_USBCLK_ON_SET;
ARM GAS  C:\Users\Heiwa\AppData\Local\Temp\ccuYQ69z.s 			page 29


 582:.\Generated_Source\PSoC5/CyLib.c ****         break;
 1012              		.loc 1 582 0
 1013 0180 03E0     		b	.L75
 1014              	.L67:
 583:.\Generated_Source\PSoC5/CyLib.c **** 
 584:.\Generated_Source\PSoC5/CyLib.c ****     default:
 585:.\Generated_Source\PSoC5/CyLib.c ****         CYASSERT((uint32) 0);
 1015              		.loc 1 585 0
 1016 0182 4FF00000 		mov	r0, #0
 1017 0186 FFF7FEFF 		bl	CyHalt
 1018              	.L75:
 586:.\Generated_Source\PSoC5/CyLib.c ****         break;
 587:.\Generated_Source\PSoC5/CyLib.c ****     }
 588:.\Generated_Source\PSoC5/CyLib.c **** 
 589:.\Generated_Source\PSoC5/CyLib.c ****     /* Turn on the IMO Doubler, if switching to CY_IMO_FREQ_USB */
 590:.\Generated_Source\PSoC5/CyLib.c ****     if (freq == CY_IMO_FREQ_USB)
 1019              		.loc 1 590 0
 1020 018a FB79     		ldrb	r3, [r7, #7]	@ zero_extendqisi2
 1021 018c 082B     		cmp	r3, #8
 1022 018e 02D1     		bne	.L76
 591:.\Generated_Source\PSoC5/CyLib.c ****     {
 592:.\Generated_Source\PSoC5/CyLib.c ****         CyIMO_EnableDoubler();
 1023              		.loc 1 592 0
 1024 0190 FFF7FEFF 		bl	CyIMO_EnableDoubler
 1025 0194 01E0     		b	.L77
 1026              	.L76:
 593:.\Generated_Source\PSoC5/CyLib.c ****     }
 594:.\Generated_Source\PSoC5/CyLib.c ****     else
 595:.\Generated_Source\PSoC5/CyLib.c ****     {
 596:.\Generated_Source\PSoC5/CyLib.c ****         CyIMO_DisableDoubler();
 1027              		.loc 1 596 0
 1028 0196 FFF7FEFF 		bl	CyIMO_DisableDoubler
 1029              	.L77:
 597:.\Generated_Source\PSoC5/CyLib.c ****     }
 598:.\Generated_Source\PSoC5/CyLib.c **** 
 599:.\Generated_Source\PSoC5/CyLib.c ****     if (next_freq < current_freq)
 1030              		.loc 1 599 0
 1031 019a FA7B     		ldrb	r2, [r7, #15]	@ zero_extendqisi2
 1032 019c BB7B     		ldrb	r3, [r7, #14]	@ zero_extendqisi2
 1033 019e 9A42     		cmp	r2, r3
 1034 01a0 03D2     		bcs	.L79
 600:.\Generated_Source\PSoC5/CyLib.c ****     {
 601:.\Generated_Source\PSoC5/CyLib.c ****         /* Set the new trim after setting the frequency */
 602:.\Generated_Source\PSoC5/CyLib.c ****         CyIMO_SetTrimValue(freq);
 1035              		.loc 1 602 0
 1036 01a2 FB79     		ldrb	r3, [r7, #7]	@ zero_extendqisi2
 1037 01a4 1846     		mov	r0, r3
 1038 01a6 FFF7FEFF 		bl	CyIMO_SetTrimValue
 1039              	.L79:
 603:.\Generated_Source\PSoC5/CyLib.c ****     }
 604:.\Generated_Source\PSoC5/CyLib.c **** }
 1040              		.loc 1 604 0
 1041 01aa 07F11007 		add	r7, r7, #16
 1042 01ae BD46     		mov	sp, r7
 1043 01b0 80BD     		pop	{r7, pc}
 1044              		.cfi_endproc
 1045              	.LFE8:
ARM GAS  C:\Users\Heiwa\AppData\Local\Temp\ccuYQ69z.s 			page 30


 1046              		.size	CyIMO_SetFreq, .-CyIMO_SetFreq
 1047 01b2 00BF     		.section	.text.CyIMO_SetSource,"ax",%progbits
 1048              		.align	2
 1049              		.global	CyIMO_SetSource
 1050              		.thumb
 1051              		.thumb_func
 1052              		.type	CyIMO_SetSource, %function
 1053              	CyIMO_SetSource:
 1054              	.LFB9:
 605:.\Generated_Source\PSoC5/CyLib.c **** 
 606:.\Generated_Source\PSoC5/CyLib.c **** 
 607:.\Generated_Source\PSoC5/CyLib.c **** /*******************************************************************************
 608:.\Generated_Source\PSoC5/CyLib.c **** * Function Name: CyIMO_SetSource
 609:.\Generated_Source\PSoC5/CyLib.c **** ********************************************************************************
 610:.\Generated_Source\PSoC5/CyLib.c **** *
 611:.\Generated_Source\PSoC5/CyLib.c **** * Summary:
 612:.\Generated_Source\PSoC5/CyLib.c **** *  Sets the source of the clock output from the IMO block.
 613:.\Generated_Source\PSoC5/CyLib.c **** *
 614:.\Generated_Source\PSoC5/CyLib.c **** *  The output from the IMO is by default the IMO itself. Optionally the MHz
 615:.\Generated_Source\PSoC5/CyLib.c **** *  Crystal or a DSI input can be the source of the IMO output instead.
 616:.\Generated_Source\PSoC5/CyLib.c **** *
 617:.\Generated_Source\PSoC5/CyLib.c **** * Parameters:
 618:.\Generated_Source\PSoC5/CyLib.c **** *   source, CY_IMO_SOURCE_DSI to set the DSI as source.
 619:.\Generated_Source\PSoC5/CyLib.c **** *           CY_IMO_SOURCE_XTAL to set the MHz as source.
 620:.\Generated_Source\PSoC5/CyLib.c **** *           CY_IMO_SOURCE_IMO to set the IMO itself.
 621:.\Generated_Source\PSoC5/CyLib.c **** *
 622:.\Generated_Source\PSoC5/CyLib.c **** * Return:
 623:.\Generated_Source\PSoC5/CyLib.c **** *  None
 624:.\Generated_Source\PSoC5/CyLib.c **** *
 625:.\Generated_Source\PSoC5/CyLib.c **** * Side Effects:
 626:.\Generated_Source\PSoC5/CyLib.c **** *  If as result of this function execution the CPU clock frequency is increased
 627:.\Generated_Source\PSoC5/CyLib.c **** *  then the number of clock cycles the cache will wait before it samples data
 628:.\Generated_Source\PSoC5/CyLib.c **** *  coming back from Flash must be adjusted by calling CyFlash_SetWaitCycles()
 629:.\Generated_Source\PSoC5/CyLib.c **** *  with appropriate parameter. It can be optionally called if CPU clock
 630:.\Generated_Source\PSoC5/CyLib.c **** *  frequency is lowered in order to improve CPU performance.
 631:.\Generated_Source\PSoC5/CyLib.c **** *  See CyFlash_SetWaitCycles() description for more information.
 632:.\Generated_Source\PSoC5/CyLib.c **** *
 633:.\Generated_Source\PSoC5/CyLib.c **** *******************************************************************************/
 634:.\Generated_Source\PSoC5/CyLib.c **** void CyIMO_SetSource(uint8 source) 
 635:.\Generated_Source\PSoC5/CyLib.c **** {
 1055              		.loc 1 635 0
 1056              		.cfi_startproc
 1057              		@ args = 0, pretend = 0, frame = 8
 1058              		@ frame_needed = 1, uses_anonymous_args = 0
 1059 0000 80B5     		push	{r7, lr}
 1060              	.LCFI25:
 1061              		.cfi_def_cfa_offset 8
 1062 0002 82B0     		sub	sp, sp, #8
 1063              	.LCFI26:
 1064              		.cfi_def_cfa_offset 16
 1065 0004 00AF     		add	r7, sp, #0
 1066              		.cfi_offset 14, -4
 1067              		.cfi_offset 7, -8
 1068              	.LCFI27:
 1069              		.cfi_def_cfa_register 7
 1070 0006 0346     		mov	r3, r0
 1071 0008 FB71     		strb	r3, [r7, #7]
ARM GAS  C:\Users\Heiwa\AppData\Local\Temp\ccuYQ69z.s 			page 31


 636:.\Generated_Source\PSoC5/CyLib.c ****     /* Set the xclken bit of FASTCLK_IMO_CR regigster */
 637:.\Generated_Source\PSoC5/CyLib.c ****     switch(source)
 1072              		.loc 1 637 0
 1073 000a FB79     		ldrb	r3, [r7, #7]	@ zero_extendqisi2
 1074 000c 012B     		cmp	r3, #1
 1075 000e 20D0     		beq	.L83
 1076 0010 022B     		cmp	r3, #2
 1077 0012 02D0     		beq	.L84
 1078 0014 002B     		cmp	r3, #0
 1079 0016 39D0     		beq	.L82
 1080 0018 46E0     		b	.L87
 1081              	.L84:
 638:.\Generated_Source\PSoC5/CyLib.c ****     {
 639:.\Generated_Source\PSoC5/CyLib.c ****     case CY_IMO_SOURCE_DSI:
 640:.\Generated_Source\PSoC5/CyLib.c ****         CLKDIST_CR &= ~CLOCK_IMO2X_XTAL;
 1082              		.loc 1 640 0
 1083 001a 44F20003 		movw	r3, #:lower16:1073758208
 1084 001e C4F20003 		movt	r3, #:upper16:1073758208
 1085 0022 44F20002 		movw	r2, #:lower16:1073758208
 1086 0026 C4F20002 		movt	r2, #:upper16:1073758208
 1087 002a 1278     		ldrb	r2, [r2, #0]
 1088 002c D2B2     		uxtb	r2, r2
 1089 002e 02F0BF02 		and	r2, r2, #191
 1090 0032 1A70     		strb	r2, [r3, #0]
 641:.\Generated_Source\PSoC5/CyLib.c ****         FASTCLK_IMO_CR |= CLOCK_IMO_IMO;
 1091              		.loc 1 641 0
 1092 0034 44F20023 		movw	r3, #:lower16:1073758720
 1093 0038 C4F20003 		movt	r3, #:upper16:1073758720
 1094 003c 44F20022 		movw	r2, #:lower16:1073758720
 1095 0040 C4F20002 		movt	r2, #:upper16:1073758720
 1096 0044 1278     		ldrb	r2, [r2, #0]
 1097 0046 D2B2     		uxtb	r2, r2
 1098 0048 42F02002 		orr	r2, r2, #32
 1099 004c D2B2     		uxtb	r2, r2
 1100 004e 1A70     		strb	r2, [r3, #0]
 642:.\Generated_Source\PSoC5/CyLib.c ****         break;
 1101              		.loc 1 642 0
 1102 0050 2EE0     		b	.L86
 1103              	.L83:
 643:.\Generated_Source\PSoC5/CyLib.c **** 
 644:.\Generated_Source\PSoC5/CyLib.c ****     case CY_IMO_SOURCE_XTAL:
 645:.\Generated_Source\PSoC5/CyLib.c ****         CLKDIST_CR |= CLOCK_IMO2X_XTAL;
 1104              		.loc 1 645 0
 1105 0052 44F20003 		movw	r3, #:lower16:1073758208
 1106 0056 C4F20003 		movt	r3, #:upper16:1073758208
 1107 005a 44F20002 		movw	r2, #:lower16:1073758208
 1108 005e C4F20002 		movt	r2, #:upper16:1073758208
 1109 0062 1278     		ldrb	r2, [r2, #0]
 1110 0064 D2B2     		uxtb	r2, r2
 1111 0066 42F04002 		orr	r2, r2, #64
 1112 006a D2B2     		uxtb	r2, r2
 1113 006c 1A70     		strb	r2, [r3, #0]
 646:.\Generated_Source\PSoC5/CyLib.c ****         FASTCLK_IMO_CR |= CLOCK_IMO_IMO;
 1114              		.loc 1 646 0
 1115 006e 44F20023 		movw	r3, #:lower16:1073758720
 1116 0072 C4F20003 		movt	r3, #:upper16:1073758720
 1117 0076 44F20022 		movw	r2, #:lower16:1073758720
ARM GAS  C:\Users\Heiwa\AppData\Local\Temp\ccuYQ69z.s 			page 32


 1118 007a C4F20002 		movt	r2, #:upper16:1073758720
 1119 007e 1278     		ldrb	r2, [r2, #0]
 1120 0080 D2B2     		uxtb	r2, r2
 1121 0082 42F02002 		orr	r2, r2, #32
 1122 0086 D2B2     		uxtb	r2, r2
 1123 0088 1A70     		strb	r2, [r3, #0]
 647:.\Generated_Source\PSoC5/CyLib.c ****         break;
 1124              		.loc 1 647 0
 1125 008a 11E0     		b	.L86
 1126              	.L82:
 648:.\Generated_Source\PSoC5/CyLib.c **** 
 649:.\Generated_Source\PSoC5/CyLib.c ****     case CY_IMO_SOURCE_IMO:
 650:.\Generated_Source\PSoC5/CyLib.c ****         FASTCLK_IMO_CR &= ~CLOCK_IMO_IMO;
 1127              		.loc 1 650 0
 1128 008c 44F20023 		movw	r3, #:lower16:1073758720
 1129 0090 C4F20003 		movt	r3, #:upper16:1073758720
 1130 0094 44F20022 		movw	r2, #:lower16:1073758720
 1131 0098 C4F20002 		movt	r2, #:upper16:1073758720
 1132 009c 1278     		ldrb	r2, [r2, #0]
 1133 009e D2B2     		uxtb	r2, r2
 1134 00a0 02F0DF02 		and	r2, r2, #223
 1135 00a4 1A70     		strb	r2, [r3, #0]
 651:.\Generated_Source\PSoC5/CyLib.c ****         break;
 1136              		.loc 1 651 0
 1137 00a6 03E0     		b	.L86
 1138              	.L87:
 652:.\Generated_Source\PSoC5/CyLib.c **** 
 653:.\Generated_Source\PSoC5/CyLib.c ****     default:
 654:.\Generated_Source\PSoC5/CyLib.c ****         /* Incorrect source value */
 655:.\Generated_Source\PSoC5/CyLib.c ****         CYASSERT((uint32) 0);
 1139              		.loc 1 655 0
 1140 00a8 4FF00000 		mov	r0, #0
 1141 00ac FFF7FEFF 		bl	CyHalt
 1142              	.L86:
 656:.\Generated_Source\PSoC5/CyLib.c ****         break;
 657:.\Generated_Source\PSoC5/CyLib.c ****     }
 658:.\Generated_Source\PSoC5/CyLib.c **** }
 1143              		.loc 1 658 0
 1144 00b0 07F10807 		add	r7, r7, #8
 1145 00b4 BD46     		mov	sp, r7
 1146 00b6 80BD     		pop	{r7, pc}
 1147              		.cfi_endproc
 1148              	.LFE9:
 1149              		.size	CyIMO_SetSource, .-CyIMO_SetSource
 1150              		.section	.text.CyIMO_EnableDoubler,"ax",%progbits
 1151              		.align	2
 1152              		.global	CyIMO_EnableDoubler
 1153              		.thumb
 1154              		.thumb_func
 1155              		.type	CyIMO_EnableDoubler, %function
 1156              	CyIMO_EnableDoubler:
 1157              	.LFB10:
 659:.\Generated_Source\PSoC5/CyLib.c **** 
 660:.\Generated_Source\PSoC5/CyLib.c **** 
 661:.\Generated_Source\PSoC5/CyLib.c **** /*******************************************************************************
 662:.\Generated_Source\PSoC5/CyLib.c **** * Function Name: CyIMO_EnableDoubler
 663:.\Generated_Source\PSoC5/CyLib.c **** ********************************************************************************
ARM GAS  C:\Users\Heiwa\AppData\Local\Temp\ccuYQ69z.s 			page 33


 664:.\Generated_Source\PSoC5/CyLib.c **** *
 665:.\Generated_Source\PSoC5/CyLib.c **** * Summary:
 666:.\Generated_Source\PSoC5/CyLib.c **** *  Enables the IMO doubler.  The 2x frequency clock is used to convert a 24 MHz
 667:.\Generated_Source\PSoC5/CyLib.c **** *  input to a 48 MHz output for use by the USB block.
 668:.\Generated_Source\PSoC5/CyLib.c **** *
 669:.\Generated_Source\PSoC5/CyLib.c **** * Parameters:
 670:.\Generated_Source\PSoC5/CyLib.c **** *  None
 671:.\Generated_Source\PSoC5/CyLib.c **** *
 672:.\Generated_Source\PSoC5/CyLib.c **** * Return:
 673:.\Generated_Source\PSoC5/CyLib.c **** *  None
 674:.\Generated_Source\PSoC5/CyLib.c **** *
 675:.\Generated_Source\PSoC5/CyLib.c **** *******************************************************************************/
 676:.\Generated_Source\PSoC5/CyLib.c **** void CyIMO_EnableDoubler(void) 
 677:.\Generated_Source\PSoC5/CyLib.c **** {
 1158              		.loc 1 677 0
 1159              		.cfi_startproc
 1160              		@ args = 0, pretend = 0, frame = 0
 1161              		@ frame_needed = 1, uses_anonymous_args = 0
 1162              		@ link register save eliminated.
 1163 0000 80B4     		push	{r7}
 1164              	.LCFI28:
 1165              		.cfi_def_cfa_offset 4
 1166 0002 00AF     		add	r7, sp, #0
 1167              		.cfi_offset 7, -4
 1168              	.LCFI29:
 1169              		.cfi_def_cfa_register 7
 678:.\Generated_Source\PSoC5/CyLib.c ****     /* Set the FASTCLK_IMO_CR_PTR regigster's 4th bit */
 679:.\Generated_Source\PSoC5/CyLib.c ****     FASTCLK_IMO_CR |= IMO_DOUBLER_ENABLE;
 1170              		.loc 1 679 0
 1171 0004 44F20023 		movw	r3, #:lower16:1073758720
 1172 0008 C4F20003 		movt	r3, #:upper16:1073758720
 1173 000c 44F20022 		movw	r2, #:lower16:1073758720
 1174 0010 C4F20002 		movt	r2, #:upper16:1073758720
 1175 0014 1278     		ldrb	r2, [r2, #0]
 1176 0016 D2B2     		uxtb	r2, r2
 1177 0018 42F01002 		orr	r2, r2, #16
 1178 001c D2B2     		uxtb	r2, r2
 1179 001e 1A70     		strb	r2, [r3, #0]
 680:.\Generated_Source\PSoC5/CyLib.c **** }
 1180              		.loc 1 680 0
 1181 0020 BD46     		mov	sp, r7
 1182 0022 80BC     		pop	{r7}
 1183 0024 7047     		bx	lr
 1184              		.cfi_endproc
 1185              	.LFE10:
 1186              		.size	CyIMO_EnableDoubler, .-CyIMO_EnableDoubler
 1187 0026 00BF     		.section	.text.CyIMO_DisableDoubler,"ax",%progbits
 1188              		.align	2
 1189              		.global	CyIMO_DisableDoubler
 1190              		.thumb
 1191              		.thumb_func
 1192              		.type	CyIMO_DisableDoubler, %function
 1193              	CyIMO_DisableDoubler:
 1194              	.LFB11:
 681:.\Generated_Source\PSoC5/CyLib.c **** 
 682:.\Generated_Source\PSoC5/CyLib.c **** 
 683:.\Generated_Source\PSoC5/CyLib.c **** /*******************************************************************************
ARM GAS  C:\Users\Heiwa\AppData\Local\Temp\ccuYQ69z.s 			page 34


 684:.\Generated_Source\PSoC5/CyLib.c **** * Function Name: CyIMO_DisableDoubler
 685:.\Generated_Source\PSoC5/CyLib.c **** ********************************************************************************
 686:.\Generated_Source\PSoC5/CyLib.c **** *
 687:.\Generated_Source\PSoC5/CyLib.c **** * Summary:
 688:.\Generated_Source\PSoC5/CyLib.c **** *   Disables the IMO doubler.
 689:.\Generated_Source\PSoC5/CyLib.c **** *
 690:.\Generated_Source\PSoC5/CyLib.c **** * Parameters:
 691:.\Generated_Source\PSoC5/CyLib.c **** *  None
 692:.\Generated_Source\PSoC5/CyLib.c **** *
 693:.\Generated_Source\PSoC5/CyLib.c **** * Return:
 694:.\Generated_Source\PSoC5/CyLib.c **** *  None
 695:.\Generated_Source\PSoC5/CyLib.c **** *
 696:.\Generated_Source\PSoC5/CyLib.c **** *******************************************************************************/
 697:.\Generated_Source\PSoC5/CyLib.c **** void CyIMO_DisableDoubler(void) 
 698:.\Generated_Source\PSoC5/CyLib.c **** {
 1195              		.loc 1 698 0
 1196              		.cfi_startproc
 1197              		@ args = 0, pretend = 0, frame = 0
 1198              		@ frame_needed = 1, uses_anonymous_args = 0
 1199              		@ link register save eliminated.
 1200 0000 80B4     		push	{r7}
 1201              	.LCFI30:
 1202              		.cfi_def_cfa_offset 4
 1203 0002 00AF     		add	r7, sp, #0
 1204              		.cfi_offset 7, -4
 1205              	.LCFI31:
 1206              		.cfi_def_cfa_register 7
 699:.\Generated_Source\PSoC5/CyLib.c ****     FASTCLK_IMO_CR &= ~IMO_DOUBLER_ENABLE;
 1207              		.loc 1 699 0
 1208 0004 44F20023 		movw	r3, #:lower16:1073758720
 1209 0008 C4F20003 		movt	r3, #:upper16:1073758720
 1210 000c 44F20022 		movw	r2, #:lower16:1073758720
 1211 0010 C4F20002 		movt	r2, #:upper16:1073758720
 1212 0014 1278     		ldrb	r2, [r2, #0]
 1213 0016 D2B2     		uxtb	r2, r2
 1214 0018 02F0EF02 		and	r2, r2, #239
 1215 001c 1A70     		strb	r2, [r3, #0]
 700:.\Generated_Source\PSoC5/CyLib.c **** }
 1216              		.loc 1 700 0
 1217 001e BD46     		mov	sp, r7
 1218 0020 80BC     		pop	{r7}
 1219 0022 7047     		bx	lr
 1220              		.cfi_endproc
 1221              	.LFE11:
 1222              		.size	CyIMO_DisableDoubler, .-CyIMO_DisableDoubler
 1223              		.section	.text.CyMasterClk_SetSource,"ax",%progbits
 1224              		.align	2
 1225              		.global	CyMasterClk_SetSource
 1226              		.thumb
 1227              		.thumb_func
 1228              		.type	CyMasterClk_SetSource, %function
 1229              	CyMasterClk_SetSource:
 1230              	.LFB12:
 701:.\Generated_Source\PSoC5/CyLib.c **** 
 702:.\Generated_Source\PSoC5/CyLib.c **** 
 703:.\Generated_Source\PSoC5/CyLib.c **** /*******************************************************************************
 704:.\Generated_Source\PSoC5/CyLib.c **** * Function Name: CyMasterClk_SetSource
ARM GAS  C:\Users\Heiwa\AppData\Local\Temp\ccuYQ69z.s 			page 35


 705:.\Generated_Source\PSoC5/CyLib.c **** ********************************************************************************
 706:.\Generated_Source\PSoC5/CyLib.c **** *
 707:.\Generated_Source\PSoC5/CyLib.c **** * Summary:
 708:.\Generated_Source\PSoC5/CyLib.c **** *  Sets the source of the master clock.
 709:.\Generated_Source\PSoC5/CyLib.c **** *
 710:.\Generated_Source\PSoC5/CyLib.c **** * Parameters:
 711:.\Generated_Source\PSoC5/CyLib.c **** *   source: One of the four available Master clock sources.
 712:.\Generated_Source\PSoC5/CyLib.c **** *     CY_MASTER_SOURCE_IMO
 713:.\Generated_Source\PSoC5/CyLib.c **** *     CY_MASTER_SOURCE_PLL
 714:.\Generated_Source\PSoC5/CyLib.c **** *     CY_MASTER_SOURCE_XTAL
 715:.\Generated_Source\PSoC5/CyLib.c **** *     CY_MASTER_SOURCE_DSI
 716:.\Generated_Source\PSoC5/CyLib.c **** *
 717:.\Generated_Source\PSoC5/CyLib.c **** * Return:
 718:.\Generated_Source\PSoC5/CyLib.c **** *  None
 719:.\Generated_Source\PSoC5/CyLib.c **** *
 720:.\Generated_Source\PSoC5/CyLib.c **** * Side Effects:
 721:.\Generated_Source\PSoC5/CyLib.c **** *  The current source and the new source must both be running and stable before
 722:.\Generated_Source\PSoC5/CyLib.c **** *  calling this function.
 723:.\Generated_Source\PSoC5/CyLib.c **** *
 724:.\Generated_Source\PSoC5/CyLib.c **** *  If as result of this function execution the CPU clock frequency is increased
 725:.\Generated_Source\PSoC5/CyLib.c **** *  then the number of clock cycles the cache will wait before it samples data
 726:.\Generated_Source\PSoC5/CyLib.c **** *  coming back from Flash must be adjusted by calling CyFlash_SetWaitCycles()
 727:.\Generated_Source\PSoC5/CyLib.c **** *  with appropriate parameter. It can be optionally called if CPU clock
 728:.\Generated_Source\PSoC5/CyLib.c **** *  frequency is lowered in order to improve CPU performance.
 729:.\Generated_Source\PSoC5/CyLib.c **** *  See CyFlash_SetWaitCycles() description for more information.
 730:.\Generated_Source\PSoC5/CyLib.c **** *
 731:.\Generated_Source\PSoC5/CyLib.c **** *******************************************************************************/
 732:.\Generated_Source\PSoC5/CyLib.c **** void CyMasterClk_SetSource(uint8 source) 
 733:.\Generated_Source\PSoC5/CyLib.c **** {
 1231              		.loc 1 733 0
 1232              		.cfi_startproc
 1233              		@ args = 0, pretend = 0, frame = 16
 1234              		@ frame_needed = 1, uses_anonymous_args = 0
 1235              		@ link register save eliminated.
 1236 0000 80B4     		push	{r7}
 1237              	.LCFI32:
 1238              		.cfi_def_cfa_offset 4
 1239 0002 85B0     		sub	sp, sp, #20
 1240              	.LCFI33:
 1241              		.cfi_def_cfa_offset 24
 1242 0004 00AF     		add	r7, sp, #0
 1243              		.cfi_offset 7, -4
 1244              	.LCFI34:
 1245              		.cfi_def_cfa_register 7
 1246 0006 0346     		mov	r3, r0
 1247 0008 FB71     		strb	r3, [r7, #7]
 734:.\Generated_Source\PSoC5/CyLib.c ****     uint8 master_reg_1;
 735:.\Generated_Source\PSoC5/CyLib.c **** 
 736:.\Generated_Source\PSoC5/CyLib.c ****     #if(CY_PSOC5A)
 737:.\Generated_Source\PSoC5/CyLib.c **** 
 738:.\Generated_Source\PSoC5/CyLib.c ****         uint8 master_reg_0;
 739:.\Generated_Source\PSoC5/CyLib.c **** 
 740:.\Generated_Source\PSoC5/CyLib.c ****         /* Read the current setting */
 741:.\Generated_Source\PSoC5/CyLib.c ****         master_reg_0 = CLKDIST_MSTR0;
 1248              		.loc 1 741 0
 1249 000a 44F20403 		movw	r3, #:lower16:1073758212
 1250 000e C4F20003 		movt	r3, #:upper16:1073758212
ARM GAS  C:\Users\Heiwa\AppData\Local\Temp\ccuYQ69z.s 			page 36


 1251 0012 1B78     		ldrb	r3, [r3, #0]
 1252 0014 FB73     		strb	r3, [r7, #15]
 742:.\Generated_Source\PSoC5/CyLib.c **** 
 743:.\Generated_Source\PSoC5/CyLib.c ****         /* Write a non-zero period to the master mux clock divider */
 744:.\Generated_Source\PSoC5/CyLib.c ****         if (master_reg_0 == 0x00u)
 1253              		.loc 1 744 0
 1254 0016 FB7B     		ldrb	r3, [r7, #15]	@ zero_extendqisi2
 1255 0018 002B     		cmp	r3, #0
 1256 001a 06D1     		bne	.L93
 745:.\Generated_Source\PSoC5/CyLib.c ****         {
 746:.\Generated_Source\PSoC5/CyLib.c ****             CLKDIST_MSTR0 = 3;
 1257              		.loc 1 746 0
 1258 001c 44F20403 		movw	r3, #:lower16:1073758212
 1259 0020 C4F20003 		movt	r3, #:upper16:1073758212
 1260 0024 4FF00302 		mov	r2, #3
 1261 0028 1A70     		strb	r2, [r3, #0]
 1262              	.L93:
 747:.\Generated_Source\PSoC5/CyLib.c ****         }
 748:.\Generated_Source\PSoC5/CyLib.c **** 
 749:.\Generated_Source\PSoC5/CyLib.c ****     #endif  /* (CY_PSOC5A) */
 750:.\Generated_Source\PSoC5/CyLib.c **** 
 751:.\Generated_Source\PSoC5/CyLib.c ****     /* Read the current setting */
 752:.\Generated_Source\PSoC5/CyLib.c ****     master_reg_1 = CLKDIST_MSTR1;
 1263              		.loc 1 752 0
 1264 002a 44F20503 		movw	r3, #:lower16:1073758213
 1265 002e C4F20003 		movt	r3, #:upper16:1073758213
 1266 0032 1B78     		ldrb	r3, [r3, #0]
 1267 0034 BB73     		strb	r3, [r7, #14]
 753:.\Generated_Source\PSoC5/CyLib.c ****     CLKDIST_MSTR1 = (master_reg_1 & MASTER_CLK_SRC_CLEAR) | (source & ~MASTER_CLK_SRC_CLEAR);
 1268              		.loc 1 753 0
 1269 0036 44F20503 		movw	r3, #:lower16:1073758213
 1270 003a C4F20003 		movt	r3, #:upper16:1073758213
 1271 003e B97B     		ldrb	r1, [r7, #14]	@ zero_extendqisi2
 1272 0040 01F0FC01 		and	r1, r1, #252
 1273 0044 FA79     		ldrb	r2, [r7, #7]	@ zero_extendqisi2
 1274 0046 02F00302 		and	r2, r2, #3
 1275 004a 41EA0202 		orr	r2, r1, r2
 1276 004e D2B2     		uxtb	r2, r2
 1277 0050 1A70     		strb	r2, [r3, #0]
 754:.\Generated_Source\PSoC5/CyLib.c **** 
 755:.\Generated_Source\PSoC5/CyLib.c ****     #if(CY_PSOC5A)
 756:.\Generated_Source\PSoC5/CyLib.c **** 
 757:.\Generated_Source\PSoC5/CyLib.c ****         /* Restore zero period (if desired) to the master mux clock divider */
 758:.\Generated_Source\PSoC5/CyLib.c ****         if (master_reg_0 == 0x00u)
 1278              		.loc 1 758 0
 1279 0052 FB7B     		ldrb	r3, [r7, #15]	@ zero_extendqisi2
 1280 0054 002B     		cmp	r3, #0
 1281 0056 06D1     		bne	.L95
 759:.\Generated_Source\PSoC5/CyLib.c ****         {
 760:.\Generated_Source\PSoC5/CyLib.c ****             CLKDIST_MSTR0 = 0;
 1282              		.loc 1 760 0
 1283 0058 44F20403 		movw	r3, #:lower16:1073758212
 1284 005c C4F20003 		movt	r3, #:upper16:1073758212
 1285 0060 4FF00002 		mov	r2, #0
 1286 0064 1A70     		strb	r2, [r3, #0]
 1287              	.L95:
 761:.\Generated_Source\PSoC5/CyLib.c ****         }
ARM GAS  C:\Users\Heiwa\AppData\Local\Temp\ccuYQ69z.s 			page 37


 762:.\Generated_Source\PSoC5/CyLib.c **** 
 763:.\Generated_Source\PSoC5/CyLib.c ****     #endif  /* (CY_PSOC5A) */
 764:.\Generated_Source\PSoC5/CyLib.c **** }
 1288              		.loc 1 764 0
 1289 0066 07F11407 		add	r7, r7, #20
 1290 006a BD46     		mov	sp, r7
 1291 006c 80BC     		pop	{r7}
 1292 006e 7047     		bx	lr
 1293              		.cfi_endproc
 1294              	.LFE12:
 1295              		.size	CyMasterClk_SetSource, .-CyMasterClk_SetSource
 1296              		.section	.text.CyMasterClk_SetDivider,"ax",%progbits
 1297              		.align	2
 1298              		.global	CyMasterClk_SetDivider
 1299              		.thumb
 1300              		.thumb_func
 1301              		.type	CyMasterClk_SetDivider, %function
 1302              	CyMasterClk_SetDivider:
 1303              	.LFB13:
 765:.\Generated_Source\PSoC5/CyLib.c **** 
 766:.\Generated_Source\PSoC5/CyLib.c **** 
 767:.\Generated_Source\PSoC5/CyLib.c **** /*******************************************************************************
 768:.\Generated_Source\PSoC5/CyLib.c **** * Function Name: CyMasterClk_SetDivider
 769:.\Generated_Source\PSoC5/CyLib.c **** ********************************************************************************
 770:.\Generated_Source\PSoC5/CyLib.c **** *
 771:.\Generated_Source\PSoC5/CyLib.c **** * Summary:
 772:.\Generated_Source\PSoC5/CyLib.c **** *  Sets the divider value used to generate Master Clock.
 773:.\Generated_Source\PSoC5/CyLib.c **** *
 774:.\Generated_Source\PSoC5/CyLib.c **** * Parameters:
 775:.\Generated_Source\PSoC5/CyLib.c **** *  uint8 divider:
 776:.\Generated_Source\PSoC5/CyLib.c **** *   Valid range [0-255]. The clock will be divided by this value + 1.
 777:.\Generated_Source\PSoC5/CyLib.c **** *   For example to divide by 2 this parameter should be set to 1.
 778:.\Generated_Source\PSoC5/CyLib.c **** *
 779:.\Generated_Source\PSoC5/CyLib.c **** * Return:
 780:.\Generated_Source\PSoC5/CyLib.c **** *  None
 781:.\Generated_Source\PSoC5/CyLib.c **** *
 782:.\Generated_Source\PSoC5/CyLib.c **** * Side Effects:
 783:.\Generated_Source\PSoC5/CyLib.c **** *  If as result of this function execution the CPU clock frequency is increased
 784:.\Generated_Source\PSoC5/CyLib.c **** *  then the number of clock cycles the cache will wait before it samples data
 785:.\Generated_Source\PSoC5/CyLib.c **** *  coming back from Flash must be adjusted by calling CyFlash_SetWaitCycles()
 786:.\Generated_Source\PSoC5/CyLib.c **** *  with appropriate parameter. It can be optionally called if CPU clock
 787:.\Generated_Source\PSoC5/CyLib.c **** *  frequency is lowered in order to improve CPU performance.
 788:.\Generated_Source\PSoC5/CyLib.c **** *  See CyFlash_SetWaitCycles() description for more information.
 789:.\Generated_Source\PSoC5/CyLib.c **** *
 790:.\Generated_Source\PSoC5/CyLib.c **** *  When changing the Master or Bus clock divider value from div-by-n to div-by-1
 791:.\Generated_Source\PSoC5/CyLib.c **** *  the first clock cycle output after the div-by-1 can be up to 4 ns shorter
 792:.\Generated_Source\PSoC5/CyLib.c **** *  than the final/expected div-by-1 period.
 793:.\Generated_Source\PSoC5/CyLib.c **** *
 794:.\Generated_Source\PSoC5/CyLib.c **** *******************************************************************************/
 795:.\Generated_Source\PSoC5/CyLib.c **** void CyMasterClk_SetDivider(uint8 divider) 
 796:.\Generated_Source\PSoC5/CyLib.c **** {
 1304              		.loc 1 796 0
 1305              		.cfi_startproc
 1306              		@ args = 0, pretend = 0, frame = 8
 1307              		@ frame_needed = 1, uses_anonymous_args = 0
 1308              		@ link register save eliminated.
 1309 0000 80B4     		push	{r7}
ARM GAS  C:\Users\Heiwa\AppData\Local\Temp\ccuYQ69z.s 			page 38


 1310              	.LCFI35:
 1311              		.cfi_def_cfa_offset 4
 1312 0002 83B0     		sub	sp, sp, #12
 1313              	.LCFI36:
 1314              		.cfi_def_cfa_offset 16
 1315 0004 00AF     		add	r7, sp, #0
 1316              		.cfi_offset 7, -4
 1317              	.LCFI37:
 1318              		.cfi_def_cfa_register 7
 1319 0006 0346     		mov	r3, r0
 1320 0008 FB71     		strb	r3, [r7, #7]
 797:.\Generated_Source\PSoC5/CyLib.c ****     CLKDIST_MSTR0 = divider;
 1321              		.loc 1 797 0
 1322 000a 44F20403 		movw	r3, #:lower16:1073758212
 1323 000e C4F20003 		movt	r3, #:upper16:1073758212
 1324 0012 FA79     		ldrb	r2, [r7, #7]
 1325 0014 1A70     		strb	r2, [r3, #0]
 798:.\Generated_Source\PSoC5/CyLib.c **** }
 1326              		.loc 1 798 0
 1327 0016 07F10C07 		add	r7, r7, #12
 1328 001a BD46     		mov	sp, r7
 1329 001c 80BC     		pop	{r7}
 1330 001e 7047     		bx	lr
 1331              		.cfi_endproc
 1332              	.LFE13:
 1333              		.size	CyMasterClk_SetDivider, .-CyMasterClk_SetDivider
 1334              		.section	.text.CyBusClk_Internal_SetDivider,"ax",%progbits
 1335              		.align	2
 1336              		.global	CyBusClk_Internal_SetDivider
 1337              		.thumb
 1338              		.thumb_func
 1339              		.type	CyBusClk_Internal_SetDivider, %function
 1340              	CyBusClk_Internal_SetDivider:
 1341              	.LFB14:
 799:.\Generated_Source\PSoC5/CyLib.c **** 
 800:.\Generated_Source\PSoC5/CyLib.c **** 
 801:.\Generated_Source\PSoC5/CyLib.c **** /*******************************************************************************
 802:.\Generated_Source\PSoC5/CyLib.c **** * Function Name: CyBusClk_Internal_SetDivider
 803:.\Generated_Source\PSoC5/CyLib.c **** ********************************************************************************
 804:.\Generated_Source\PSoC5/CyLib.c **** *
 805:.\Generated_Source\PSoC5/CyLib.c **** * Summary:
 806:.\Generated_Source\PSoC5/CyLib.c **** *  Function used by CyBusClk_SetDivider(). For internal use only.
 807:.\Generated_Source\PSoC5/CyLib.c **** *
 808:.\Generated_Source\PSoC5/CyLib.c **** * Parameters:
 809:.\Generated_Source\PSoC5/CyLib.c **** *   divider: Valid range [0-65535].
 810:.\Generated_Source\PSoC5/CyLib.c **** *   The clock will be divided by this value + 1.
 811:.\Generated_Source\PSoC5/CyLib.c **** *   For example to divide by 2 this parameter should be set to 1.
 812:.\Generated_Source\PSoC5/CyLib.c **** *
 813:.\Generated_Source\PSoC5/CyLib.c **** * Return:
 814:.\Generated_Source\PSoC5/CyLib.c **** *  None
 815:.\Generated_Source\PSoC5/CyLib.c **** *
 816:.\Generated_Source\PSoC5/CyLib.c **** *******************************************************************************/
 817:.\Generated_Source\PSoC5/CyLib.c **** void CyBusClk_Internal_SetDivider(uint16 divider)
 818:.\Generated_Source\PSoC5/CyLib.c **** {
 1342              		.loc 1 818 0
 1343              		.cfi_startproc
 1344              		@ args = 0, pretend = 0, frame = 8
ARM GAS  C:\Users\Heiwa\AppData\Local\Temp\ccuYQ69z.s 			page 39


 1345              		@ frame_needed = 1, uses_anonymous_args = 0
 1346              		@ link register save eliminated.
 1347 0000 80B4     		push	{r7}
 1348              	.LCFI38:
 1349              		.cfi_def_cfa_offset 4
 1350 0002 83B0     		sub	sp, sp, #12
 1351              	.LCFI39:
 1352              		.cfi_def_cfa_offset 16
 1353 0004 00AF     		add	r7, sp, #0
 1354              		.cfi_offset 7, -4
 1355              	.LCFI40:
 1356              		.cfi_def_cfa_register 7
 1357 0006 0346     		mov	r3, r0
 1358 0008 FB80     		strh	r3, [r7, #6]	@ movhi
 819:.\Generated_Source\PSoC5/CyLib.c ****     /* Clear all the masks (CLKDIST_AMASK, CLKDIST_DMASK) */
 820:.\Generated_Source\PSoC5/CyLib.c ****     CLKDIST_AMASK &= BUS_AMASK_CLEAR;
 1359              		.loc 1 820 0
 1360 000a 44F21403 		movw	r3, #:lower16:1073758228
 1361 000e C4F20003 		movt	r3, #:upper16:1073758228
 1362 0012 44F21402 		movw	r2, #:lower16:1073758228
 1363 0016 C4F20002 		movt	r2, #:upper16:1073758228
 1364 001a 1278     		ldrb	r2, [r2, #0]
 1365 001c D2B2     		uxtb	r2, r2
 1366 001e 02F0F002 		and	r2, r2, #240
 1367 0022 1A70     		strb	r2, [r3, #0]
 821:.\Generated_Source\PSoC5/CyLib.c ****     CLKDIST_DMASK = BUS_DMASK_CLEAR;
 1368              		.loc 1 821 0
 1369 0024 44F21003 		movw	r3, #:lower16:1073758224
 1370 0028 C4F20003 		movt	r3, #:upper16:1073758224
 1371 002c 4FF00002 		mov	r2, #0
 1372 0030 1A70     		strb	r2, [r3, #0]
 822:.\Generated_Source\PSoC5/CyLib.c **** 
 823:.\Generated_Source\PSoC5/CyLib.c ****     CLKDIST_BCFG2 |= CLKDIST_WRK0_MASK_SET;
 1373              		.loc 1 823 0
 1374 0032 44F20803 		movw	r3, #:lower16:1073758216
 1375 0036 C4F20003 		movt	r3, #:upper16:1073758216
 1376 003a 44F20802 		movw	r2, #:lower16:1073758216
 1377 003e C4F20002 		movt	r2, #:upper16:1073758216
 1378 0042 1278     		ldrb	r2, [r2, #0]
 1379 0044 D2B2     		uxtb	r2, r2
 1380 0046 6FEA4262 		mvn	r2, r2, lsl #25
 1381 004a 6FEA5262 		mvn	r2, r2, lsr #25
 1382 004e D2B2     		uxtb	r2, r2
 1383 0050 1A70     		strb	r2, [r3, #0]
 824:.\Generated_Source\PSoC5/CyLib.c **** 
 825:.\Generated_Source\PSoC5/CyLib.c ****     /* Change both bytes before we enable/start the clock. */
 826:.\Generated_Source\PSoC5/CyLib.c ****     CY_SET_REG16(CLKDIST_WRK0_PTR, divider);
 1384              		.loc 1 826 0
 1385 0052 44F20203 		movw	r3, #:lower16:1073758210
 1386 0056 C4F20003 		movt	r3, #:upper16:1073758210
 1387 005a FA88     		ldrh	r2, [r7, #6]	@ movhi
 1388 005c 1A80     		strh	r2, [r3, #0]	@ movhi
 827:.\Generated_Source\PSoC5/CyLib.c **** 
 828:.\Generated_Source\PSoC5/CyLib.c ****     /* Load the value, set the CLKDIST_LD LOAD bit*/
 829:.\Generated_Source\PSoC5/CyLib.c ****     CLKDIST_LD |= CLKDIST_LD_LOAD_SET;
 1389              		.loc 1 829 0
 1390 005e 44F20103 		movw	r3, #:lower16:1073758209
ARM GAS  C:\Users\Heiwa\AppData\Local\Temp\ccuYQ69z.s 			page 40


 1391 0062 C4F20003 		movt	r3, #:upper16:1073758209
 1392 0066 44F20102 		movw	r2, #:lower16:1073758209
 1393 006a C4F20002 		movt	r2, #:upper16:1073758209
 1394 006e 1278     		ldrb	r2, [r2, #0]
 1395 0070 D2B2     		uxtb	r2, r2
 1396 0072 42F00102 		orr	r2, r2, #1
 1397 0076 D2B2     		uxtb	r2, r2
 1398 0078 1A70     		strb	r2, [r3, #0]
 830:.\Generated_Source\PSoC5/CyLib.c **** }
 1399              		.loc 1 830 0
 1400 007a 07F10C07 		add	r7, r7, #12
 1401 007e BD46     		mov	sp, r7
 1402 0080 80BC     		pop	{r7}
 1403 0082 7047     		bx	lr
 1404              		.cfi_endproc
 1405              	.LFE14:
 1406              		.size	CyBusClk_Internal_SetDivider, .-CyBusClk_Internal_SetDivider
 1407              		.section	.text.CyBusClk_SetDivider,"ax",%progbits
 1408              		.align	2
 1409              		.global	CyBusClk_SetDivider
 1410              		.thumb
 1411              		.thumb_func
 1412              		.type	CyBusClk_SetDivider, %function
 1413              	CyBusClk_SetDivider:
 1414              	.LFB15:
 831:.\Generated_Source\PSoC5/CyLib.c **** 
 832:.\Generated_Source\PSoC5/CyLib.c **** 
 833:.\Generated_Source\PSoC5/CyLib.c **** /*******************************************************************************
 834:.\Generated_Source\PSoC5/CyLib.c **** * Function Name: CyBusClk_SetDivider
 835:.\Generated_Source\PSoC5/CyLib.c **** ********************************************************************************
 836:.\Generated_Source\PSoC5/CyLib.c **** *
 837:.\Generated_Source\PSoC5/CyLib.c **** * Summary:
 838:.\Generated_Source\PSoC5/CyLib.c **** *  Sets the divider value used to generate Bus Clock.
 839:.\Generated_Source\PSoC5/CyLib.c **** *
 840:.\Generated_Source\PSoC5/CyLib.c **** * Parameters:
 841:.\Generated_Source\PSoC5/CyLib.c **** *  divider: Valid range [0-65535]. The clock will be divided by this value + 1.
 842:.\Generated_Source\PSoC5/CyLib.c **** *  For example to divide by 2 this parameter should be set to 1.
 843:.\Generated_Source\PSoC5/CyLib.c **** *
 844:.\Generated_Source\PSoC5/CyLib.c **** * Return:
 845:.\Generated_Source\PSoC5/CyLib.c **** *  None
 846:.\Generated_Source\PSoC5/CyLib.c **** *
 847:.\Generated_Source\PSoC5/CyLib.c **** * Side Effects:
 848:.\Generated_Source\PSoC5/CyLib.c **** *  If as result of this function execution the CPU clock frequency is increased
 849:.\Generated_Source\PSoC5/CyLib.c **** *  then the number of clock cycles the cache will wait before it samples data
 850:.\Generated_Source\PSoC5/CyLib.c **** *  coming back from Flash must be adjusted by calling CyFlash_SetWaitCycles()
 851:.\Generated_Source\PSoC5/CyLib.c **** *  with appropriate parameter. It can be optionally called if CPU clock
 852:.\Generated_Source\PSoC5/CyLib.c **** *  frequency is lowered in order to improve CPU performance.
 853:.\Generated_Source\PSoC5/CyLib.c **** *  See CyFlash_SetWaitCycles() description for more information.
 854:.\Generated_Source\PSoC5/CyLib.c **** *
 855:.\Generated_Source\PSoC5/CyLib.c **** *******************************************************************************/
 856:.\Generated_Source\PSoC5/CyLib.c **** void CyBusClk_SetDivider(uint16 divider) 
 857:.\Generated_Source\PSoC5/CyLib.c **** {
 1415              		.loc 1 857 0
 1416              		.cfi_startproc
 1417              		@ args = 0, pretend = 0, frame = 16
 1418              		@ frame_needed = 1, uses_anonymous_args = 0
 1419 0000 80B5     		push	{r7, lr}
ARM GAS  C:\Users\Heiwa\AppData\Local\Temp\ccuYQ69z.s 			page 41


 1420              	.LCFI41:
 1421              		.cfi_def_cfa_offset 8
 1422 0002 84B0     		sub	sp, sp, #16
 1423              	.LCFI42:
 1424              		.cfi_def_cfa_offset 24
 1425 0004 00AF     		add	r7, sp, #0
 1426              		.cfi_offset 14, -4
 1427              		.cfi_offset 7, -8
 1428              	.LCFI43:
 1429              		.cfi_def_cfa_register 7
 1430 0006 0346     		mov	r3, r0
 1431 0008 FB80     		strh	r3, [r7, #6]	@ movhi
 858:.\Generated_Source\PSoC5/CyLib.c ****     uint16 current_busclk_divider;
 859:.\Generated_Source\PSoC5/CyLib.c ****     uint8 current_masterclk_divider;
 860:.\Generated_Source\PSoC5/CyLib.c **** 
 861:.\Generated_Source\PSoC5/CyLib.c ****     /* Bus clock divider value */
 862:.\Generated_Source\PSoC5/CyLib.c ****     current_busclk_divider = CY_GET_REG16(CLKDIST_BCFG0_PTR);
 1432              		.loc 1 862 0
 1433 000a 44F20603 		movw	r3, #:lower16:1073758214
 1434 000e C4F20003 		movt	r3, #:upper16:1073758214
 1435 0012 1B88     		ldrh	r3, [r3, #0]	@ movhi
 1436 0014 BB81     		strh	r3, [r7, #12]	@ movhi
 863:.\Generated_Source\PSoC5/CyLib.c **** 
 864:.\Generated_Source\PSoC5/CyLib.c ****     /* Work around to set the bus clock divider value */
 865:.\Generated_Source\PSoC5/CyLib.c ****     if ((divider == 0) || (current_busclk_divider == 0))
 1437              		.loc 1 865 0
 1438 0016 FB88     		ldrh	r3, [r7, #6]
 1439 0018 002B     		cmp	r3, #0
 1440 001a 02D0     		beq	.L101
 1441 001c BB89     		ldrh	r3, [r7, #12]
 1442 001e 002B     		cmp	r3, #0
 1443 0020 38D1     		bne	.L102
 1444              	.L101:
 866:.\Generated_Source\PSoC5/CyLib.c ****     {
 867:.\Generated_Source\PSoC5/CyLib.c ****         /* Save away the master clock divider value */
 868:.\Generated_Source\PSoC5/CyLib.c ****         current_masterclk_divider = CY_GET_REG8(CLKDIST_MSTR0_PTR);
 1445              		.loc 1 868 0
 1446 0022 44F20403 		movw	r3, #:lower16:1073758212
 1447 0026 C4F20003 		movt	r3, #:upper16:1073758212
 1448 002a 1B78     		ldrb	r3, [r3, #0]
 1449 002c FB73     		strb	r3, [r7, #15]
 869:.\Generated_Source\PSoC5/CyLib.c ****         if (current_masterclk_divider < MASTERCLK_DIVIDER_VALUE)
 1450              		.loc 1 869 0
 1451 002e FB7B     		ldrb	r3, [r7, #15]	@ zero_extendqisi2
 1452 0030 062B     		cmp	r3, #6
 1453 0032 03D8     		bhi	.L103
 870:.\Generated_Source\PSoC5/CyLib.c ****         {
 871:.\Generated_Source\PSoC5/CyLib.c ****             /* Set master clock divider to 7 */
 872:.\Generated_Source\PSoC5/CyLib.c ****             CyMasterClk_SetDivider(MASTERCLK_DIVIDER_VALUE);
 1454              		.loc 1 872 0
 1455 0034 4FF00700 		mov	r0, #7
 1456 0038 FFF7FEFF 		bl	CyMasterClk_SetDivider
 1457              	.L103:
 873:.\Generated_Source\PSoC5/CyLib.c ****         }
 874:.\Generated_Source\PSoC5/CyLib.c **** 
 875:.\Generated_Source\PSoC5/CyLib.c ****         if (divider == 0)
 1458              		.loc 1 875 0
ARM GAS  C:\Users\Heiwa\AppData\Local\Temp\ccuYQ69z.s 			page 42


 1459 003c FB88     		ldrh	r3, [r7, #6]
 1460 003e 002B     		cmp	r3, #0
 1461 0040 12D1     		bne	.L104
 876:.\Generated_Source\PSoC5/CyLib.c ****         {
 877:.\Generated_Source\PSoC5/CyLib.c ****             /* Set the SSS bit and the divider register desired value */
 878:.\Generated_Source\PSoC5/CyLib.c ****             CLKDIST_BCFG2 |= CLKDIST_BCFG2_SSS_SET;
 1462              		.loc 1 878 0
 1463 0042 44F20803 		movw	r3, #:lower16:1073758216
 1464 0046 C4F20003 		movt	r3, #:upper16:1073758216
 1465 004a 44F20802 		movw	r2, #:lower16:1073758216
 1466 004e C4F20002 		movt	r2, #:upper16:1073758216
 1467 0052 1278     		ldrb	r2, [r2, #0]
 1468 0054 D2B2     		uxtb	r2, r2
 1469 0056 42F04002 		orr	r2, r2, #64
 1470 005a D2B2     		uxtb	r2, r2
 1471 005c 1A70     		strb	r2, [r3, #0]
 879:.\Generated_Source\PSoC5/CyLib.c ****             CyBusClk_Internal_SetDivider(divider);
 1472              		.loc 1 879 0
 1473 005e FB88     		ldrh	r3, [r7, #6]
 1474 0060 1846     		mov	r0, r3
 1475 0062 FFF7FEFF 		bl	CyBusClk_Internal_SetDivider
 1476 0066 10E0     		b	.L105
 1477              	.L104:
 880:.\Generated_Source\PSoC5/CyLib.c ****         }
 881:.\Generated_Source\PSoC5/CyLib.c ****         else
 882:.\Generated_Source\PSoC5/CyLib.c ****         {
 883:.\Generated_Source\PSoC5/CyLib.c ****             CyBusClk_Internal_SetDivider(divider);
 1478              		.loc 1 883 0
 1479 0068 FB88     		ldrh	r3, [r7, #6]
 1480 006a 1846     		mov	r0, r3
 1481 006c FFF7FEFF 		bl	CyBusClk_Internal_SetDivider
 884:.\Generated_Source\PSoC5/CyLib.c ****             CLKDIST_BCFG2 &= ~CLKDIST_BCFG2_SSS_SET;
 1482              		.loc 1 884 0
 1483 0070 44F20803 		movw	r3, #:lower16:1073758216
 1484 0074 C4F20003 		movt	r3, #:upper16:1073758216
 1485 0078 44F20802 		movw	r2, #:lower16:1073758216
 1486 007c C4F20002 		movt	r2, #:upper16:1073758216
 1487 0080 1278     		ldrb	r2, [r2, #0]
 1488 0082 D2B2     		uxtb	r2, r2
 1489 0084 02F0BF02 		and	r2, r2, #191
 1490 0088 1A70     		strb	r2, [r3, #0]
 1491              	.L105:
 885:.\Generated_Source\PSoC5/CyLib.c ****         }
 886:.\Generated_Source\PSoC5/CyLib.c **** 
 887:.\Generated_Source\PSoC5/CyLib.c ****         /* Restore the master clock */
 888:.\Generated_Source\PSoC5/CyLib.c ****         CyMasterClk_SetDivider(current_masterclk_divider);
 1492              		.loc 1 888 0
 1493 008a FB7B     		ldrb	r3, [r7, #15]	@ zero_extendqisi2
 1494 008c 1846     		mov	r0, r3
 1495 008e FFF7FEFF 		bl	CyMasterClk_SetDivider
 1496              		.loc 1 865 0
 1497 0092 03E0     		b	.L107
 1498              	.L102:
 889:.\Generated_Source\PSoC5/CyLib.c ****     }
 890:.\Generated_Source\PSoC5/CyLib.c ****     else
 891:.\Generated_Source\PSoC5/CyLib.c ****     {
 892:.\Generated_Source\PSoC5/CyLib.c ****         CyBusClk_Internal_SetDivider(divider);
ARM GAS  C:\Users\Heiwa\AppData\Local\Temp\ccuYQ69z.s 			page 43


 1499              		.loc 1 892 0
 1500 0094 FB88     		ldrh	r3, [r7, #6]
 1501 0096 1846     		mov	r0, r3
 1502 0098 FFF7FEFF 		bl	CyBusClk_Internal_SetDivider
 1503              	.L107:
 893:.\Generated_Source\PSoC5/CyLib.c ****     }
 894:.\Generated_Source\PSoC5/CyLib.c **** }
 1504              		.loc 1 894 0
 1505 009c 07F11007 		add	r7, r7, #16
 1506 00a0 BD46     		mov	sp, r7
 1507 00a2 80BD     		pop	{r7, pc}
 1508              		.cfi_endproc
 1509              	.LFE15:
 1510              		.size	CyBusClk_SetDivider, .-CyBusClk_SetDivider
 1511              		.section	.text.CyUsbClk_SetSource,"ax",%progbits
 1512              		.align	2
 1513              		.global	CyUsbClk_SetSource
 1514              		.thumb
 1515              		.thumb_func
 1516              		.type	CyUsbClk_SetSource, %function
 1517              	CyUsbClk_SetSource:
 1518              	.LFB16:
 895:.\Generated_Source\PSoC5/CyLib.c **** 
 896:.\Generated_Source\PSoC5/CyLib.c **** 
 897:.\Generated_Source\PSoC5/CyLib.c **** #if(CY_PSOC3)
 898:.\Generated_Source\PSoC5/CyLib.c **** 
 899:.\Generated_Source\PSoC5/CyLib.c ****     /*******************************************************************************
 900:.\Generated_Source\PSoC5/CyLib.c ****     * Function Name: CyCpuClk_SetDivider
 901:.\Generated_Source\PSoC5/CyLib.c ****     ********************************************************************************
 902:.\Generated_Source\PSoC5/CyLib.c ****     *
 903:.\Generated_Source\PSoC5/CyLib.c ****     * Summary:
 904:.\Generated_Source\PSoC5/CyLib.c ****     *  Sets the divider value used to generate the CPU Clock. Only applicable for
 905:.\Generated_Source\PSoC5/CyLib.c ****     *  PSoC 3 parts.
 906:.\Generated_Source\PSoC5/CyLib.c ****     *
 907:.\Generated_Source\PSoC5/CyLib.c ****     * Parameters:
 908:.\Generated_Source\PSoC5/CyLib.c ****     *  divider: Valid range [0-15]. The clock will be divided by this value + 1.
 909:.\Generated_Source\PSoC5/CyLib.c ****     *  For example to divide by 2 this parameter should be set to 1.
 910:.\Generated_Source\PSoC5/CyLib.c ****     *
 911:.\Generated_Source\PSoC5/CyLib.c ****     * Return:
 912:.\Generated_Source\PSoC5/CyLib.c ****     *  None
 913:.\Generated_Source\PSoC5/CyLib.c ****     *
 914:.\Generated_Source\PSoC5/CyLib.c ****     * Side Effects:
 915:.\Generated_Source\PSoC5/CyLib.c ****     *  If as result of this function execution the CPU clock frequency is increased
 916:.\Generated_Source\PSoC5/CyLib.c ****     *  then the number of clock cycles the cache will wait before it samples data
 917:.\Generated_Source\PSoC5/CyLib.c ****     *  coming back from Flash must be adjusted by calling CyFlash_SetWaitCycles()
 918:.\Generated_Source\PSoC5/CyLib.c ****     *  with appropriate parameter. It can be optionally called if CPU clock
 919:.\Generated_Source\PSoC5/CyLib.c ****     *  frequency is lowered in order to improve CPU performance.
 920:.\Generated_Source\PSoC5/CyLib.c ****     *  See CyFlash_SetWaitCycles() description for more information.
 921:.\Generated_Source\PSoC5/CyLib.c ****     *
 922:.\Generated_Source\PSoC5/CyLib.c ****     *******************************************************************************/
 923:.\Generated_Source\PSoC5/CyLib.c ****     void CyCpuClk_SetDivider(uint8 divider) 
 924:.\Generated_Source\PSoC5/CyLib.c ****     {
 925:.\Generated_Source\PSoC5/CyLib.c ****             CLKDIST_MSTR1 = (CLKDIST_MSTR1 & CLKDIST_MSTR1_DIV_CLEAR) |
 926:.\Generated_Source\PSoC5/CyLib.c ****                                 (divider << CLKDIST_DIV_POSITION);
 927:.\Generated_Source\PSoC5/CyLib.c ****     }
 928:.\Generated_Source\PSoC5/CyLib.c **** 
 929:.\Generated_Source\PSoC5/CyLib.c **** #endif /* (CY_PSOC3) */
ARM GAS  C:\Users\Heiwa\AppData\Local\Temp\ccuYQ69z.s 			page 44


 930:.\Generated_Source\PSoC5/CyLib.c **** 
 931:.\Generated_Source\PSoC5/CyLib.c **** 
 932:.\Generated_Source\PSoC5/CyLib.c **** /*******************************************************************************
 933:.\Generated_Source\PSoC5/CyLib.c **** * Function Name: CyUsbClk_SetSource
 934:.\Generated_Source\PSoC5/CyLib.c **** ********************************************************************************
 935:.\Generated_Source\PSoC5/CyLib.c **** *
 936:.\Generated_Source\PSoC5/CyLib.c **** * Summary:
 937:.\Generated_Source\PSoC5/CyLib.c **** *  Sets the source of the USB clock.
 938:.\Generated_Source\PSoC5/CyLib.c **** *
 939:.\Generated_Source\PSoC5/CyLib.c **** * Parameters:
 940:.\Generated_Source\PSoC5/CyLib.c **** *  source: One of the four available USB clock sources
 941:.\Generated_Source\PSoC5/CyLib.c **** *             USB_CLK_IMO2X     - IMO 2x
 942:.\Generated_Source\PSoC5/CyLib.c **** *             USB_CLK_IMO       - IMO
 943:.\Generated_Source\PSoC5/CyLib.c **** *             USB_CLK_PLL       - PLL
 944:.\Generated_Source\PSoC5/CyLib.c **** *             USB_CLK_DSI       - DSI
 945:.\Generated_Source\PSoC5/CyLib.c **** *
 946:.\Generated_Source\PSoC5/CyLib.c **** * Return:
 947:.\Generated_Source\PSoC5/CyLib.c **** *  None
 948:.\Generated_Source\PSoC5/CyLib.c **** *
 949:.\Generated_Source\PSoC5/CyLib.c **** *******************************************************************************/
 950:.\Generated_Source\PSoC5/CyLib.c **** void CyUsbClk_SetSource(uint8 source) 
 951:.\Generated_Source\PSoC5/CyLib.c **** {
 1519              		.loc 1 951 0
 1520              		.cfi_startproc
 1521              		@ args = 0, pretend = 0, frame = 8
 1522              		@ frame_needed = 1, uses_anonymous_args = 0
 1523              		@ link register save eliminated.
 1524 0000 80B4     		push	{r7}
 1525              	.LCFI44:
 1526              		.cfi_def_cfa_offset 4
 1527 0002 83B0     		sub	sp, sp, #12
 1528              	.LCFI45:
 1529              		.cfi_def_cfa_offset 16
 1530 0004 00AF     		add	r7, sp, #0
 1531              		.cfi_offset 7, -4
 1532              	.LCFI46:
 1533              		.cfi_def_cfa_register 7
 1534 0006 0346     		mov	r3, r0
 1535 0008 FB71     		strb	r3, [r7, #7]
 952:.\Generated_Source\PSoC5/CyLib.c ****     CLKDIST_UCFG = (CLKDIST_UCFG & ~USB_CLKDIST_CONFIG_MASK) |
 1536              		.loc 1 952 0
 1537 000a 44F20903 		movw	r3, #:lower16:1073758217
 1538 000e C4F20003 		movt	r3, #:upper16:1073758217
 1539 0012 44F20902 		movw	r2, #:lower16:1073758217
 1540 0016 C4F20002 		movt	r2, #:upper16:1073758217
 1541 001a 1278     		ldrb	r2, [r2, #0]
 1542 001c D2B2     		uxtb	r2, r2
 1543 001e 1146     		mov	r1, r2
 1544 0020 01F0FC01 		and	r1, r1, #252
 1545 0024 FA79     		ldrb	r2, [r7, #7]	@ zero_extendqisi2
 1546 0026 02F00302 		and	r2, r2, #3
 1547 002a 41EA0202 		orr	r2, r1, r2
 1548 002e D2B2     		uxtb	r2, r2
 1549 0030 1A70     		strb	r2, [r3, #0]
 953:.\Generated_Source\PSoC5/CyLib.c ****                         (USB_CLKDIST_CONFIG_MASK & source);
 954:.\Generated_Source\PSoC5/CyLib.c **** }
 1550              		.loc 1 954 0
ARM GAS  C:\Users\Heiwa\AppData\Local\Temp\ccuYQ69z.s 			page 45


 1551 0032 07F10C07 		add	r7, r7, #12
 1552 0036 BD46     		mov	sp, r7
 1553 0038 80BC     		pop	{r7}
 1554 003a 7047     		bx	lr
 1555              		.cfi_endproc
 1556              	.LFE16:
 1557              		.size	CyUsbClk_SetSource, .-CyUsbClk_SetSource
 1558              		.section	.text.CyILO_Start1K,"ax",%progbits
 1559              		.align	2
 1560              		.global	CyILO_Start1K
 1561              		.thumb
 1562              		.thumb_func
 1563              		.type	CyILO_Start1K, %function
 1564              	CyILO_Start1K:
 1565              	.LFB17:
 955:.\Generated_Source\PSoC5/CyLib.c **** 
 956:.\Generated_Source\PSoC5/CyLib.c **** 
 957:.\Generated_Source\PSoC5/CyLib.c **** /*******************************************************************************
 958:.\Generated_Source\PSoC5/CyLib.c **** * Function Name: CyILO_Start1K
 959:.\Generated_Source\PSoC5/CyLib.c **** ********************************************************************************
 960:.\Generated_Source\PSoC5/CyLib.c **** *
 961:.\Generated_Source\PSoC5/CyLib.c **** * Summary:
 962:.\Generated_Source\PSoC5/CyLib.c **** *  Enables the ILO 1 KHz oscillator.
 963:.\Generated_Source\PSoC5/CyLib.c **** *
 964:.\Generated_Source\PSoC5/CyLib.c **** *  Note The ILO 1 KHz oscillator is always enabled by default, regardless of the
 965:.\Generated_Source\PSoC5/CyLib.c **** *  selection in the Clock Editor. Therefore, this API is only needed if the
 966:.\Generated_Source\PSoC5/CyLib.c **** *  oscillator was turned off manually.
 967:.\Generated_Source\PSoC5/CyLib.c **** *
 968:.\Generated_Source\PSoC5/CyLib.c **** * Parameters:
 969:.\Generated_Source\PSoC5/CyLib.c **** *  None
 970:.\Generated_Source\PSoC5/CyLib.c **** *
 971:.\Generated_Source\PSoC5/CyLib.c **** * Return:
 972:.\Generated_Source\PSoC5/CyLib.c **** *  None
 973:.\Generated_Source\PSoC5/CyLib.c **** *
 974:.\Generated_Source\PSoC5/CyLib.c **** *******************************************************************************/
 975:.\Generated_Source\PSoC5/CyLib.c **** void CyILO_Start1K(void) 
 976:.\Generated_Source\PSoC5/CyLib.c **** {
 1566              		.loc 1 976 0
 1567              		.cfi_startproc
 1568              		@ args = 0, pretend = 0, frame = 0
 1569              		@ frame_needed = 1, uses_anonymous_args = 0
 1570              		@ link register save eliminated.
 1571 0000 80B4     		push	{r7}
 1572              	.LCFI47:
 1573              		.cfi_def_cfa_offset 4
 1574 0002 00AF     		add	r7, sp, #0
 1575              		.cfi_offset 7, -4
 1576              	.LCFI48:
 1577              		.cfi_def_cfa_register 7
 977:.\Generated_Source\PSoC5/CyLib.c ****     /* Set the bit 1 of ILO RS */
 978:.\Generated_Source\PSoC5/CyLib.c ****     SLOWCLK_ILO_CR0 |= ILO_CONTROL_1KHZ_ON;
 1578              		.loc 1 978 0
 1579 0004 44F20033 		movw	r3, #:lower16:1073758976
 1580 0008 C4F20003 		movt	r3, #:upper16:1073758976
 1581 000c 44F20032 		movw	r2, #:lower16:1073758976
 1582 0010 C4F20002 		movt	r2, #:upper16:1073758976
 1583 0014 1278     		ldrb	r2, [r2, #0]
ARM GAS  C:\Users\Heiwa\AppData\Local\Temp\ccuYQ69z.s 			page 46


 1584 0016 D2B2     		uxtb	r2, r2
 1585 0018 42F00202 		orr	r2, r2, #2
 1586 001c D2B2     		uxtb	r2, r2
 1587 001e 1A70     		strb	r2, [r3, #0]
 979:.\Generated_Source\PSoC5/CyLib.c **** }
 1588              		.loc 1 979 0
 1589 0020 BD46     		mov	sp, r7
 1590 0022 80BC     		pop	{r7}
 1591 0024 7047     		bx	lr
 1592              		.cfi_endproc
 1593              	.LFE17:
 1594              		.size	CyILO_Start1K, .-CyILO_Start1K
 1595 0026 00BF     		.section	.text.CyILO_Stop1K,"ax",%progbits
 1596              		.align	2
 1597              		.global	CyILO_Stop1K
 1598              		.thumb
 1599              		.thumb_func
 1600              		.type	CyILO_Stop1K, %function
 1601              	CyILO_Stop1K:
 1602              	.LFB18:
 980:.\Generated_Source\PSoC5/CyLib.c **** 
 981:.\Generated_Source\PSoC5/CyLib.c **** 
 982:.\Generated_Source\PSoC5/CyLib.c **** /*******************************************************************************
 983:.\Generated_Source\PSoC5/CyLib.c **** * Function Name: CyILO_Stop1K
 984:.\Generated_Source\PSoC5/CyLib.c **** ********************************************************************************
 985:.\Generated_Source\PSoC5/CyLib.c **** *
 986:.\Generated_Source\PSoC5/CyLib.c **** * Summary:
 987:.\Generated_Source\PSoC5/CyLib.c **** *  Disables the ILO 1 KHz oscillator.
 988:.\Generated_Source\PSoC5/CyLib.c **** *
 989:.\Generated_Source\PSoC5/CyLib.c **** *  Note The ILO 1 KHz oscillator must be enabled if Sleep or Hibernate low power
 990:.\Generated_Source\PSoC5/CyLib.c **** *  mode APIs are expected to be used. For more information, refer to the Power
 991:.\Generated_Source\PSoC5/CyLib.c **** *  Management section of this document.
 992:.\Generated_Source\PSoC5/CyLib.c **** *
 993:.\Generated_Source\PSoC5/CyLib.c **** * Parameters:
 994:.\Generated_Source\PSoC5/CyLib.c **** *  None
 995:.\Generated_Source\PSoC5/CyLib.c **** *
 996:.\Generated_Source\PSoC5/CyLib.c **** * Return:
 997:.\Generated_Source\PSoC5/CyLib.c **** *  None
 998:.\Generated_Source\PSoC5/CyLib.c **** *
 999:.\Generated_Source\PSoC5/CyLib.c **** * Side Effects:
1000:.\Generated_Source\PSoC5/CyLib.c **** *  PSoC5: Stopping the ILO 1 kHz could break the active WDT functionality.
1001:.\Generated_Source\PSoC5/CyLib.c **** *
1002:.\Generated_Source\PSoC5/CyLib.c **** *******************************************************************************/
1003:.\Generated_Source\PSoC5/CyLib.c **** void CyILO_Stop1K(void) 
1004:.\Generated_Source\PSoC5/CyLib.c **** {
 1603              		.loc 1 1004 0
 1604              		.cfi_startproc
 1605              		@ args = 0, pretend = 0, frame = 0
 1606              		@ frame_needed = 1, uses_anonymous_args = 0
 1607              		@ link register save eliminated.
 1608 0000 80B4     		push	{r7}
 1609              	.LCFI49:
 1610              		.cfi_def_cfa_offset 4
 1611 0002 00AF     		add	r7, sp, #0
 1612              		.cfi_offset 7, -4
 1613              	.LCFI50:
 1614              		.cfi_def_cfa_register 7
ARM GAS  C:\Users\Heiwa\AppData\Local\Temp\ccuYQ69z.s 			page 47


1005:.\Generated_Source\PSoC5/CyLib.c ****     /* Clear the bit 1 of ILO RS */
1006:.\Generated_Source\PSoC5/CyLib.c ****     SLOWCLK_ILO_CR0 &= ~ILO_CONTROL_1KHZ_ON;
 1615              		.loc 1 1006 0
 1616 0004 44F20033 		movw	r3, #:lower16:1073758976
 1617 0008 C4F20003 		movt	r3, #:upper16:1073758976
 1618 000c 44F20032 		movw	r2, #:lower16:1073758976
 1619 0010 C4F20002 		movt	r2, #:upper16:1073758976
 1620 0014 1278     		ldrb	r2, [r2, #0]
 1621 0016 D2B2     		uxtb	r2, r2
 1622 0018 02F0FD02 		and	r2, r2, #253
 1623 001c 1A70     		strb	r2, [r3, #0]
1007:.\Generated_Source\PSoC5/CyLib.c **** }
 1624              		.loc 1 1007 0
 1625 001e BD46     		mov	sp, r7
 1626 0020 80BC     		pop	{r7}
 1627 0022 7047     		bx	lr
 1628              		.cfi_endproc
 1629              	.LFE18:
 1630              		.size	CyILO_Stop1K, .-CyILO_Stop1K
 1631              		.section	.text.CyILO_Start100K,"ax",%progbits
 1632              		.align	2
 1633              		.global	CyILO_Start100K
 1634              		.thumb
 1635              		.thumb_func
 1636              		.type	CyILO_Start100K, %function
 1637              	CyILO_Start100K:
 1638              	.LFB19:
1008:.\Generated_Source\PSoC5/CyLib.c **** 
1009:.\Generated_Source\PSoC5/CyLib.c **** 
1010:.\Generated_Source\PSoC5/CyLib.c **** /*******************************************************************************
1011:.\Generated_Source\PSoC5/CyLib.c **** * Function Name: CyILO_Start100K
1012:.\Generated_Source\PSoC5/CyLib.c **** ********************************************************************************
1013:.\Generated_Source\PSoC5/CyLib.c **** *
1014:.\Generated_Source\PSoC5/CyLib.c **** * Summary:
1015:.\Generated_Source\PSoC5/CyLib.c **** *  Enables the ILO 100 KHz oscillator.
1016:.\Generated_Source\PSoC5/CyLib.c **** *
1017:.\Generated_Source\PSoC5/CyLib.c **** * Parameters:
1018:.\Generated_Source\PSoC5/CyLib.c **** *  None
1019:.\Generated_Source\PSoC5/CyLib.c **** *
1020:.\Generated_Source\PSoC5/CyLib.c **** * Return:
1021:.\Generated_Source\PSoC5/CyLib.c **** *  None
1022:.\Generated_Source\PSoC5/CyLib.c **** *
1023:.\Generated_Source\PSoC5/CyLib.c **** *******************************************************************************/
1024:.\Generated_Source\PSoC5/CyLib.c **** void CyILO_Start100K(void) 
1025:.\Generated_Source\PSoC5/CyLib.c **** {
 1639              		.loc 1 1025 0
 1640              		.cfi_startproc
 1641              		@ args = 0, pretend = 0, frame = 0
 1642              		@ frame_needed = 1, uses_anonymous_args = 0
 1643              		@ link register save eliminated.
 1644 0000 80B4     		push	{r7}
 1645              	.LCFI51:
 1646              		.cfi_def_cfa_offset 4
 1647 0002 00AF     		add	r7, sp, #0
 1648              		.cfi_offset 7, -4
 1649              	.LCFI52:
 1650              		.cfi_def_cfa_register 7
ARM GAS  C:\Users\Heiwa\AppData\Local\Temp\ccuYQ69z.s 			page 48


1026:.\Generated_Source\PSoC5/CyLib.c ****     /* Set the bit 2 of ILO RS */
1027:.\Generated_Source\PSoC5/CyLib.c ****     SLOWCLK_ILO_CR0 |= ILO_CONTROL_100KHZ_ON;
 1651              		.loc 1 1027 0
 1652 0004 44F20033 		movw	r3, #:lower16:1073758976
 1653 0008 C4F20003 		movt	r3, #:upper16:1073758976
 1654 000c 44F20032 		movw	r2, #:lower16:1073758976
 1655 0010 C4F20002 		movt	r2, #:upper16:1073758976
 1656 0014 1278     		ldrb	r2, [r2, #0]
 1657 0016 D2B2     		uxtb	r2, r2
 1658 0018 42F00402 		orr	r2, r2, #4
 1659 001c D2B2     		uxtb	r2, r2
 1660 001e 1A70     		strb	r2, [r3, #0]
1028:.\Generated_Source\PSoC5/CyLib.c **** }
 1661              		.loc 1 1028 0
 1662 0020 BD46     		mov	sp, r7
 1663 0022 80BC     		pop	{r7}
 1664 0024 7047     		bx	lr
 1665              		.cfi_endproc
 1666              	.LFE19:
 1667              		.size	CyILO_Start100K, .-CyILO_Start100K
 1668 0026 00BF     		.section	.text.CyILO_Stop100K,"ax",%progbits
 1669              		.align	2
 1670              		.global	CyILO_Stop100K
 1671              		.thumb
 1672              		.thumb_func
 1673              		.type	CyILO_Stop100K, %function
 1674              	CyILO_Stop100K:
 1675              	.LFB20:
1029:.\Generated_Source\PSoC5/CyLib.c **** 
1030:.\Generated_Source\PSoC5/CyLib.c **** 
1031:.\Generated_Source\PSoC5/CyLib.c **** /*******************************************************************************
1032:.\Generated_Source\PSoC5/CyLib.c **** * Function Name: CyILO_Stop100K
1033:.\Generated_Source\PSoC5/CyLib.c **** ********************************************************************************
1034:.\Generated_Source\PSoC5/CyLib.c **** *
1035:.\Generated_Source\PSoC5/CyLib.c **** * Summary:
1036:.\Generated_Source\PSoC5/CyLib.c **** *  Disables the ILO 100 KHz oscillator.
1037:.\Generated_Source\PSoC5/CyLib.c **** *
1038:.\Generated_Source\PSoC5/CyLib.c **** * Parameters:
1039:.\Generated_Source\PSoC5/CyLib.c **** *  None
1040:.\Generated_Source\PSoC5/CyLib.c **** *
1041:.\Generated_Source\PSoC5/CyLib.c **** * Return:
1042:.\Generated_Source\PSoC5/CyLib.c **** *  None
1043:.\Generated_Source\PSoC5/CyLib.c **** *
1044:.\Generated_Source\PSoC5/CyLib.c **** *******************************************************************************/
1045:.\Generated_Source\PSoC5/CyLib.c **** void CyILO_Stop100K(void) 
1046:.\Generated_Source\PSoC5/CyLib.c **** {
 1676              		.loc 1 1046 0
 1677              		.cfi_startproc
 1678              		@ args = 0, pretend = 0, frame = 0
 1679              		@ frame_needed = 1, uses_anonymous_args = 0
 1680              		@ link register save eliminated.
 1681 0000 80B4     		push	{r7}
 1682              	.LCFI53:
 1683              		.cfi_def_cfa_offset 4
 1684 0002 00AF     		add	r7, sp, #0
 1685              		.cfi_offset 7, -4
 1686              	.LCFI54:
ARM GAS  C:\Users\Heiwa\AppData\Local\Temp\ccuYQ69z.s 			page 49


 1687              		.cfi_def_cfa_register 7
1047:.\Generated_Source\PSoC5/CyLib.c ****     /* Clear the bit 2 of ILO RS */
1048:.\Generated_Source\PSoC5/CyLib.c ****     SLOWCLK_ILO_CR0 &= ~ILO_CONTROL_100KHZ_ON;
 1688              		.loc 1 1048 0
 1689 0004 44F20033 		movw	r3, #:lower16:1073758976
 1690 0008 C4F20003 		movt	r3, #:upper16:1073758976
 1691 000c 44F20032 		movw	r2, #:lower16:1073758976
 1692 0010 C4F20002 		movt	r2, #:upper16:1073758976
 1693 0014 1278     		ldrb	r2, [r2, #0]
 1694 0016 D2B2     		uxtb	r2, r2
 1695 0018 02F0FB02 		and	r2, r2, #251
 1696 001c 1A70     		strb	r2, [r3, #0]
1049:.\Generated_Source\PSoC5/CyLib.c **** }
 1697              		.loc 1 1049 0
 1698 001e BD46     		mov	sp, r7
 1699 0020 80BC     		pop	{r7}
 1700 0022 7047     		bx	lr
 1701              		.cfi_endproc
 1702              	.LFE20:
 1703              		.size	CyILO_Stop100K, .-CyILO_Stop100K
 1704              		.section	.text.CyILO_Enable33K,"ax",%progbits
 1705              		.align	2
 1706              		.global	CyILO_Enable33K
 1707              		.thumb
 1708              		.thumb_func
 1709              		.type	CyILO_Enable33K, %function
 1710              	CyILO_Enable33K:
 1711              	.LFB21:
1050:.\Generated_Source\PSoC5/CyLib.c **** 
1051:.\Generated_Source\PSoC5/CyLib.c **** 
1052:.\Generated_Source\PSoC5/CyLib.c **** /*******************************************************************************
1053:.\Generated_Source\PSoC5/CyLib.c **** * Function Name: CyILO_Enable33K
1054:.\Generated_Source\PSoC5/CyLib.c **** ********************************************************************************
1055:.\Generated_Source\PSoC5/CyLib.c **** *
1056:.\Generated_Source\PSoC5/CyLib.c **** * Summary:
1057:.\Generated_Source\PSoC5/CyLib.c **** *  Enables the ILO 33 KHz divider.
1058:.\Generated_Source\PSoC5/CyLib.c **** *
1059:.\Generated_Source\PSoC5/CyLib.c **** *  Note that the 33 KHz clock is generated from the 100 KHz oscillator,
1060:.\Generated_Source\PSoC5/CyLib.c **** *  so it must also be running in order to generate the 33 KHz output.
1061:.\Generated_Source\PSoC5/CyLib.c **** *
1062:.\Generated_Source\PSoC5/CyLib.c **** * Parameters:
1063:.\Generated_Source\PSoC5/CyLib.c **** *  None
1064:.\Generated_Source\PSoC5/CyLib.c **** *
1065:.\Generated_Source\PSoC5/CyLib.c **** * Return:
1066:.\Generated_Source\PSoC5/CyLib.c **** *  None
1067:.\Generated_Source\PSoC5/CyLib.c **** *
1068:.\Generated_Source\PSoC5/CyLib.c **** *******************************************************************************/
1069:.\Generated_Source\PSoC5/CyLib.c **** void CyILO_Enable33K(void) 
1070:.\Generated_Source\PSoC5/CyLib.c **** {
 1712              		.loc 1 1070 0
 1713              		.cfi_startproc
 1714              		@ args = 0, pretend = 0, frame = 0
 1715              		@ frame_needed = 1, uses_anonymous_args = 0
 1716              		@ link register save eliminated.
 1717 0000 80B4     		push	{r7}
 1718              	.LCFI55:
 1719              		.cfi_def_cfa_offset 4
ARM GAS  C:\Users\Heiwa\AppData\Local\Temp\ccuYQ69z.s 			page 50


 1720 0002 00AF     		add	r7, sp, #0
 1721              		.cfi_offset 7, -4
 1722              	.LCFI56:
 1723              		.cfi_def_cfa_register 7
1071:.\Generated_Source\PSoC5/CyLib.c ****     /* Set the bit 5 of ILO RS */
1072:.\Generated_Source\PSoC5/CyLib.c ****     SLOWCLK_ILO_CR0 |= ILO_CONTROL_33KHZ_ON;
 1724              		.loc 1 1072 0
 1725 0004 44F20033 		movw	r3, #:lower16:1073758976
 1726 0008 C4F20003 		movt	r3, #:upper16:1073758976
 1727 000c 44F20032 		movw	r2, #:lower16:1073758976
 1728 0010 C4F20002 		movt	r2, #:upper16:1073758976
 1729 0014 1278     		ldrb	r2, [r2, #0]
 1730 0016 D2B2     		uxtb	r2, r2
 1731 0018 42F02002 		orr	r2, r2, #32
 1732 001c D2B2     		uxtb	r2, r2
 1733 001e 1A70     		strb	r2, [r3, #0]
1073:.\Generated_Source\PSoC5/CyLib.c **** }
 1734              		.loc 1 1073 0
 1735 0020 BD46     		mov	sp, r7
 1736 0022 80BC     		pop	{r7}
 1737 0024 7047     		bx	lr
 1738              		.cfi_endproc
 1739              	.LFE21:
 1740              		.size	CyILO_Enable33K, .-CyILO_Enable33K
 1741 0026 00BF     		.section	.text.CyILO_Disable33K,"ax",%progbits
 1742              		.align	2
 1743              		.global	CyILO_Disable33K
 1744              		.thumb
 1745              		.thumb_func
 1746              		.type	CyILO_Disable33K, %function
 1747              	CyILO_Disable33K:
 1748              	.LFB22:
1074:.\Generated_Source\PSoC5/CyLib.c **** 
1075:.\Generated_Source\PSoC5/CyLib.c **** 
1076:.\Generated_Source\PSoC5/CyLib.c **** /*******************************************************************************
1077:.\Generated_Source\PSoC5/CyLib.c **** * Function Name: CyILO_Disable33K
1078:.\Generated_Source\PSoC5/CyLib.c **** ********************************************************************************
1079:.\Generated_Source\PSoC5/CyLib.c **** *
1080:.\Generated_Source\PSoC5/CyLib.c **** * Summary:
1081:.\Generated_Source\PSoC5/CyLib.c **** *  Disables the ILO 33 KHz divider.
1082:.\Generated_Source\PSoC5/CyLib.c **** *
1083:.\Generated_Source\PSoC5/CyLib.c **** *  Note that the 33 KHz clock is generated from the 100 KHz oscillator, but this
1084:.\Generated_Source\PSoC5/CyLib.c **** *  API does not disable the 100 KHz clock.
1085:.\Generated_Source\PSoC5/CyLib.c **** *
1086:.\Generated_Source\PSoC5/CyLib.c **** * Parameters:
1087:.\Generated_Source\PSoC5/CyLib.c **** *  None
1088:.\Generated_Source\PSoC5/CyLib.c **** *
1089:.\Generated_Source\PSoC5/CyLib.c **** * Return:
1090:.\Generated_Source\PSoC5/CyLib.c **** *  None
1091:.\Generated_Source\PSoC5/CyLib.c **** *
1092:.\Generated_Source\PSoC5/CyLib.c **** *******************************************************************************/
1093:.\Generated_Source\PSoC5/CyLib.c **** void CyILO_Disable33K(void) 
1094:.\Generated_Source\PSoC5/CyLib.c **** {
 1749              		.loc 1 1094 0
 1750              		.cfi_startproc
 1751              		@ args = 0, pretend = 0, frame = 0
 1752              		@ frame_needed = 1, uses_anonymous_args = 0
ARM GAS  C:\Users\Heiwa\AppData\Local\Temp\ccuYQ69z.s 			page 51


 1753              		@ link register save eliminated.
 1754 0000 80B4     		push	{r7}
 1755              	.LCFI57:
 1756              		.cfi_def_cfa_offset 4
 1757 0002 00AF     		add	r7, sp, #0
 1758              		.cfi_offset 7, -4
 1759              	.LCFI58:
 1760              		.cfi_def_cfa_register 7
1095:.\Generated_Source\PSoC5/CyLib.c ****     /* Clear the bit 5 of ILO RS */
1096:.\Generated_Source\PSoC5/CyLib.c ****     SLOWCLK_ILO_CR0 &= ~ILO_CONTROL_33KHZ_ON;
 1761              		.loc 1 1096 0
 1762 0004 44F20033 		movw	r3, #:lower16:1073758976
 1763 0008 C4F20003 		movt	r3, #:upper16:1073758976
 1764 000c 44F20032 		movw	r2, #:lower16:1073758976
 1765 0010 C4F20002 		movt	r2, #:upper16:1073758976
 1766 0014 1278     		ldrb	r2, [r2, #0]
 1767 0016 D2B2     		uxtb	r2, r2
 1768 0018 02F0DF02 		and	r2, r2, #223
 1769 001c 1A70     		strb	r2, [r3, #0]
1097:.\Generated_Source\PSoC5/CyLib.c **** }
 1770              		.loc 1 1097 0
 1771 001e BD46     		mov	sp, r7
 1772 0020 80BC     		pop	{r7}
 1773 0022 7047     		bx	lr
 1774              		.cfi_endproc
 1775              	.LFE22:
 1776              		.size	CyILO_Disable33K, .-CyILO_Disable33K
 1777              		.section	.text.CyILO_SetSource,"ax",%progbits
 1778              		.align	2
 1779              		.global	CyILO_SetSource
 1780              		.thumb
 1781              		.thumb_func
 1782              		.type	CyILO_SetSource, %function
 1783              	CyILO_SetSource:
 1784              	.LFB23:
1098:.\Generated_Source\PSoC5/CyLib.c **** 
1099:.\Generated_Source\PSoC5/CyLib.c **** 
1100:.\Generated_Source\PSoC5/CyLib.c **** /*******************************************************************************
1101:.\Generated_Source\PSoC5/CyLib.c **** * Function Name: CyILO_SetSource
1102:.\Generated_Source\PSoC5/CyLib.c **** ********************************************************************************
1103:.\Generated_Source\PSoC5/CyLib.c **** *
1104:.\Generated_Source\PSoC5/CyLib.c **** * Summary:
1105:.\Generated_Source\PSoC5/CyLib.c **** *  Sets the source of the clock output from the ILO block.
1106:.\Generated_Source\PSoC5/CyLib.c **** *
1107:.\Generated_Source\PSoC5/CyLib.c **** * Parameters:
1108:.\Generated_Source\PSoC5/CyLib.c **** *  source: One of the three available ILO output sources
1109:.\Generated_Source\PSoC5/CyLib.c **** *       Value        Define                Source
1110:.\Generated_Source\PSoC5/CyLib.c **** *       0            CY_ILO_SOURCE_100K    ILO 100 KHz
1111:.\Generated_Source\PSoC5/CyLib.c **** *       1            CY_ILO_SOURCE_33K     ILO 33 KHz
1112:.\Generated_Source\PSoC5/CyLib.c **** *       2            CY_ILO_SOURCE_1K      ILO 1 KHz
1113:.\Generated_Source\PSoC5/CyLib.c **** *
1114:.\Generated_Source\PSoC5/CyLib.c **** * Return:
1115:.\Generated_Source\PSoC5/CyLib.c **** *  None
1116:.\Generated_Source\PSoC5/CyLib.c **** *
1117:.\Generated_Source\PSoC5/CyLib.c **** *******************************************************************************/
1118:.\Generated_Source\PSoC5/CyLib.c **** void CyILO_SetSource(uint8 source) 
1119:.\Generated_Source\PSoC5/CyLib.c **** {
ARM GAS  C:\Users\Heiwa\AppData\Local\Temp\ccuYQ69z.s 			page 52


 1785              		.loc 1 1119 0
 1786              		.cfi_startproc
 1787              		@ args = 0, pretend = 0, frame = 8
 1788              		@ frame_needed = 1, uses_anonymous_args = 0
 1789              		@ link register save eliminated.
 1790 0000 80B4     		push	{r7}
 1791              	.LCFI59:
 1792              		.cfi_def_cfa_offset 4
 1793 0002 83B0     		sub	sp, sp, #12
 1794              	.LCFI60:
 1795              		.cfi_def_cfa_offset 16
 1796 0004 00AF     		add	r7, sp, #0
 1797              		.cfi_offset 7, -4
 1798              	.LCFI61:
 1799              		.cfi_def_cfa_register 7
 1800 0006 0346     		mov	r3, r0
 1801 0008 FB71     		strb	r3, [r7, #7]
1120:.\Generated_Source\PSoC5/CyLib.c ****     CLKDIST_CR = (CLKDIST_CR & CY_ILO_SOURCE_BITS_CLEAR) |
 1802              		.loc 1 1120 0
 1803 000a 44F20003 		movw	r3, #:lower16:1073758208
 1804 000e C4F20003 		movt	r3, #:upper16:1073758208
 1805 0012 44F20002 		movw	r2, #:lower16:1073758208
 1806 0016 C4F20002 		movt	r2, #:upper16:1073758208
 1807 001a 1278     		ldrb	r2, [r2, #0]
 1808 001c D2B2     		uxtb	r2, r2
 1809 001e 1146     		mov	r1, r2
 1810 0020 01F0F301 		and	r1, r1, #243
 1811 0024 FA79     		ldrb	r2, [r7, #7]
 1812 0026 4FEA8202 		lsl	r2, r2, #2
 1813 002a D2B2     		uxtb	r2, r2
 1814 002c 02F00C02 		and	r2, r2, #12
 1815 0030 41EA0202 		orr	r2, r1, r2
 1816 0034 D2B2     		uxtb	r2, r2
 1817 0036 1A70     		strb	r2, [r3, #0]
1121:.\Generated_Source\PSoC5/CyLib.c ****                     ((source << 2) & ~CY_ILO_SOURCE_BITS_CLEAR);
1122:.\Generated_Source\PSoC5/CyLib.c **** }
 1818              		.loc 1 1122 0
 1819 0038 07F10C07 		add	r7, r7, #12
 1820 003c BD46     		mov	sp, r7
 1821 003e 80BC     		pop	{r7}
 1822 0040 7047     		bx	lr
 1823              		.cfi_endproc
 1824              	.LFE23:
 1825              		.size	CyILO_SetSource, .-CyILO_SetSource
 1826 0042 00BF     		.section	.text.CyILO_SetPowerMode,"ax",%progbits
 1827              		.align	2
 1828              		.global	CyILO_SetPowerMode
 1829              		.thumb
 1830              		.thumb_func
 1831              		.type	CyILO_SetPowerMode, %function
 1832              	CyILO_SetPowerMode:
 1833              	.LFB24:
1123:.\Generated_Source\PSoC5/CyLib.c **** 
1124:.\Generated_Source\PSoC5/CyLib.c **** 
1125:.\Generated_Source\PSoC5/CyLib.c **** /*******************************************************************************
1126:.\Generated_Source\PSoC5/CyLib.c **** * Function Name: CyILO_SetPowerMode
1127:.\Generated_Source\PSoC5/CyLib.c **** ********************************************************************************
ARM GAS  C:\Users\Heiwa\AppData\Local\Temp\ccuYQ69z.s 			page 53


1128:.\Generated_Source\PSoC5/CyLib.c **** *
1129:.\Generated_Source\PSoC5/CyLib.c **** * Summary:
1130:.\Generated_Source\PSoC5/CyLib.c **** *  Sets the power mode used by the ILO during power down. Allows for lower power
1131:.\Generated_Source\PSoC5/CyLib.c **** *  down power usage resulting in a slower startup time.
1132:.\Generated_Source\PSoC5/CyLib.c **** *
1133:.\Generated_Source\PSoC5/CyLib.c **** * Parameters:
1134:.\Generated_Source\PSoC5/CyLib.c **** *  uint8 mode
1135:.\Generated_Source\PSoC5/CyLib.c **** *   CY_ILO_FAST_START - Faster start-up, internal bias left on when powered down
1136:.\Generated_Source\PSoC5/CyLib.c **** *   CY_ILO_SLOW_START - Slower start-up, internal bias off when powered down
1137:.\Generated_Source\PSoC5/CyLib.c **** *
1138:.\Generated_Source\PSoC5/CyLib.c **** * Return:
1139:.\Generated_Source\PSoC5/CyLib.c **** *   Prevous power mode state.
1140:.\Generated_Source\PSoC5/CyLib.c **** *
1141:.\Generated_Source\PSoC5/CyLib.c **** *******************************************************************************/
1142:.\Generated_Source\PSoC5/CyLib.c **** uint8 CyILO_SetPowerMode(uint8 mode) 
1143:.\Generated_Source\PSoC5/CyLib.c **** {
 1834              		.loc 1 1143 0
 1835              		.cfi_startproc
 1836              		@ args = 0, pretend = 0, frame = 16
 1837              		@ frame_needed = 1, uses_anonymous_args = 0
 1838              		@ link register save eliminated.
 1839 0000 80B4     		push	{r7}
 1840              	.LCFI62:
 1841              		.cfi_def_cfa_offset 4
 1842 0002 85B0     		sub	sp, sp, #20
 1843              	.LCFI63:
 1844              		.cfi_def_cfa_offset 24
 1845 0004 00AF     		add	r7, sp, #0
 1846              		.cfi_offset 7, -4
 1847              	.LCFI64:
 1848              		.cfi_def_cfa_register 7
 1849 0006 0346     		mov	r3, r0
 1850 0008 FB71     		strb	r3, [r7, #7]
1144:.\Generated_Source\PSoC5/CyLib.c ****     uint8 state;
1145:.\Generated_Source\PSoC5/CyLib.c **** 
1146:.\Generated_Source\PSoC5/CyLib.c ****     /* Get current state. */
1147:.\Generated_Source\PSoC5/CyLib.c ****     state = SLOWCLK_ILO_CR0;
 1851              		.loc 1 1147 0
 1852 000a 44F20033 		movw	r3, #:lower16:1073758976
 1853 000e C4F20003 		movt	r3, #:upper16:1073758976
 1854 0012 1B78     		ldrb	r3, [r3, #0]
 1855 0014 FB73     		strb	r3, [r7, #15]
1148:.\Generated_Source\PSoC5/CyLib.c **** 
1149:.\Generated_Source\PSoC5/CyLib.c ****     /* Set the the oscillator power mode. */
1150:.\Generated_Source\PSoC5/CyLib.c ****     if(mode != CY_ILO_FAST_START)
 1856              		.loc 1 1150 0
 1857 0016 FB79     		ldrb	r3, [r7, #7]	@ zero_extendqisi2
 1858 0018 002B     		cmp	r3, #0
 1859 001a 09D0     		beq	.L125
1151:.\Generated_Source\PSoC5/CyLib.c ****     {
1152:.\Generated_Source\PSoC5/CyLib.c ****         SLOWCLK_ILO_CR0 = (state | ILO_CONTROL_PD_MODE);
 1860              		.loc 1 1152 0
 1861 001c 44F20033 		movw	r3, #:lower16:1073758976
 1862 0020 C4F20003 		movt	r3, #:upper16:1073758976
 1863 0024 FA7B     		ldrb	r2, [r7, #15]
 1864 0026 42F01002 		orr	r2, r2, #16
 1865 002a D2B2     		uxtb	r2, r2
ARM GAS  C:\Users\Heiwa\AppData\Local\Temp\ccuYQ69z.s 			page 54


 1866 002c 1A70     		strb	r2, [r3, #0]
 1867 002e 07E0     		b	.L126
 1868              	.L125:
1153:.\Generated_Source\PSoC5/CyLib.c ****     }
1154:.\Generated_Source\PSoC5/CyLib.c ****     else
1155:.\Generated_Source\PSoC5/CyLib.c ****     {
1156:.\Generated_Source\PSoC5/CyLib.c ****         SLOWCLK_ILO_CR0 = (state & ~ILO_CONTROL_PD_MODE);
 1869              		.loc 1 1156 0
 1870 0030 44F20033 		movw	r3, #:lower16:1073758976
 1871 0034 C4F20003 		movt	r3, #:upper16:1073758976
 1872 0038 FA7B     		ldrb	r2, [r7, #15]	@ zero_extendqisi2
 1873 003a 02F0EF02 		and	r2, r2, #239
 1874 003e 1A70     		strb	r2, [r3, #0]
 1875              	.L126:
1157:.\Generated_Source\PSoC5/CyLib.c ****     }
1158:.\Generated_Source\PSoC5/CyLib.c **** 
1159:.\Generated_Source\PSoC5/CyLib.c ****     /* Return the old mode. */
1160:.\Generated_Source\PSoC5/CyLib.c ****     return ((state & ILO_CONTROL_PD_MODE) >> ILO_CONTROL_PD_POSITION);
 1876              		.loc 1 1160 0
 1877 0040 FB7B     		ldrb	r3, [r7, #15]	@ zero_extendqisi2
 1878 0042 03F01003 		and	r3, r3, #16
 1879 0046 4FEA2313 		asr	r3, r3, #4
 1880 004a DBB2     		uxtb	r3, r3
1161:.\Generated_Source\PSoC5/CyLib.c **** }
 1881              		.loc 1 1161 0
 1882 004c 1846     		mov	r0, r3
 1883 004e 07F11407 		add	r7, r7, #20
 1884 0052 BD46     		mov	sp, r7
 1885 0054 80BC     		pop	{r7}
 1886 0056 7047     		bx	lr
 1887              		.cfi_endproc
 1888              	.LFE24:
 1889              		.size	CyILO_SetPowerMode, .-CyILO_SetPowerMode
 1890              		.section	.text.CyXTAL_32KHZ_Start,"ax",%progbits
 1891              		.align	2
 1892              		.global	CyXTAL_32KHZ_Start
 1893              		.thumb
 1894              		.thumb_func
 1895              		.type	CyXTAL_32KHZ_Start, %function
 1896              	CyXTAL_32KHZ_Start:
 1897              	.LFB25:
1162:.\Generated_Source\PSoC5/CyLib.c **** 
1163:.\Generated_Source\PSoC5/CyLib.c **** 
1164:.\Generated_Source\PSoC5/CyLib.c **** /*******************************************************************************
1165:.\Generated_Source\PSoC5/CyLib.c **** * Function Name: CyXTAL_32KHZ_Start
1166:.\Generated_Source\PSoC5/CyLib.c **** ********************************************************************************
1167:.\Generated_Source\PSoC5/CyLib.c **** *
1168:.\Generated_Source\PSoC5/CyLib.c **** * Summary:
1169:.\Generated_Source\PSoC5/CyLib.c **** *  Enables the 32 KHz Crystal Oscillator.
1170:.\Generated_Source\PSoC5/CyLib.c **** *
1171:.\Generated_Source\PSoC5/CyLib.c **** * Parameters:
1172:.\Generated_Source\PSoC5/CyLib.c **** *  None
1173:.\Generated_Source\PSoC5/CyLib.c **** *
1174:.\Generated_Source\PSoC5/CyLib.c **** * Return:
1175:.\Generated_Source\PSoC5/CyLib.c **** *  None
1176:.\Generated_Source\PSoC5/CyLib.c **** *
1177:.\Generated_Source\PSoC5/CyLib.c **** *******************************************************************************/
ARM GAS  C:\Users\Heiwa\AppData\Local\Temp\ccuYQ69z.s 			page 55


1178:.\Generated_Source\PSoC5/CyLib.c **** void CyXTAL_32KHZ_Start(void) 
1179:.\Generated_Source\PSoC5/CyLib.c **** {
 1898              		.loc 1 1179 0
 1899              		.cfi_startproc
 1900              		@ args = 0, pretend = 0, frame = 8
 1901              		@ frame_needed = 1, uses_anonymous_args = 0
 1902 0000 80B5     		push	{r7, lr}
 1903              	.LCFI65:
 1904              		.cfi_def_cfa_offset 8
 1905 0002 82B0     		sub	sp, sp, #8
 1906              	.LCFI66:
 1907              		.cfi_def_cfa_offset 16
 1908 0004 00AF     		add	r7, sp, #0
 1909              		.cfi_offset 14, -4
 1910              		.cfi_offset 7, -8
 1911              	.LCFI67:
 1912              		.cfi_def_cfa_register 7
1180:.\Generated_Source\PSoC5/CyLib.c ****     volatile uint32 i;
1181:.\Generated_Source\PSoC5/CyLib.c **** 
1182:.\Generated_Source\PSoC5/CyLib.c ****     CY_CLK_XTAL32_TST_REG = CY_CLK_XTAL32_TST_DEFAULT;
 1913              		.loc 1 1182 0
 1914 0006 44F20A33 		movw	r3, #:lower16:1073758986
 1915 000a C4F20003 		movt	r3, #:upper16:1073758986
 1916 000e 6FF00C02 		mvn	r2, #12
 1917 0012 1A70     		strb	r2, [r3, #0]
1183:.\Generated_Source\PSoC5/CyLib.c ****     CY_CLK_XTAL32_TR_REG  = CY_CLK_XTAL32_TR_STARTUP;
 1918              		.loc 1 1183 0
 1919 0014 44F29863 		movw	r3, #:lower16:1073759896
 1920 0018 C4F20003 		movt	r3, #:upper16:1073759896
 1921 001c 4FF00302 		mov	r2, #3
 1922 0020 1A70     		strb	r2, [r3, #0]
1184:.\Generated_Source\PSoC5/CyLib.c ****     CY_CLK_XTAL32_CFG_REG = (CY_CLK_XTAL32_CFG_REG & ~CY_CLK_XTAL32_CFG_LP_MASK) | CY_CLK_XTAL32_CF
 1923              		.loc 1 1184 0
 1924 0022 44F20933 		movw	r3, #:lower16:1073758985
 1925 0026 C4F20003 		movt	r3, #:upper16:1073758985
 1926 002a 44F20932 		movw	r2, #:lower16:1073758985
 1927 002e C4F20002 		movt	r2, #:upper16:1073758985
 1928 0032 1278     		ldrb	r2, [r2, #0]
 1929 0034 D2B2     		uxtb	r2, r2
 1930 0036 02F0F302 		and	r2, r2, #243
 1931 003a 42F00402 		orr	r2, r2, #4
 1932 003e D2B2     		uxtb	r2, r2
 1933 0040 1A70     		strb	r2, [r3, #0]
1185:.\Generated_Source\PSoC5/CyLib.c **** 
1186:.\Generated_Source\PSoC5/CyLib.c ****     #if(CY_PSOC3)
1187:.\Generated_Source\PSoC5/CyLib.c ****         CY_CLK_XTAL32_CR_REG |= CY_CLK_XTAL32_CR_PDBEN;
1188:.\Generated_Source\PSoC5/CyLib.c ****     #endif  /* (CY_PSOC3) */
1189:.\Generated_Source\PSoC5/CyLib.c **** 
1190:.\Generated_Source\PSoC5/CyLib.c ****     /* Enable operation of the 32K Crystal Oscillator */
1191:.\Generated_Source\PSoC5/CyLib.c ****     CY_CLK_XTAL32_CR_REG |= CY_CLK_XTAL32_CR_EN;
 1934              		.loc 1 1191 0
 1935 0042 44F20833 		movw	r3, #:lower16:1073758984
 1936 0046 C4F20003 		movt	r3, #:upper16:1073758984
 1937 004a 44F20832 		movw	r2, #:lower16:1073758984
 1938 004e C4F20002 		movt	r2, #:upper16:1073758984
 1939 0052 1278     		ldrb	r2, [r2, #0]
 1940 0054 D2B2     		uxtb	r2, r2
ARM GAS  C:\Users\Heiwa\AppData\Local\Temp\ccuYQ69z.s 			page 56


 1941 0056 42F00102 		orr	r2, r2, #1
 1942 005a D2B2     		uxtb	r2, r2
 1943 005c 1A70     		strb	r2, [r3, #0]
1192:.\Generated_Source\PSoC5/CyLib.c **** 
1193:.\Generated_Source\PSoC5/CyLib.c ****     for (i = 1000u; i > 0u; i--)
 1944              		.loc 1 1193 0
 1945 005e 4FF47A73 		mov	r3, #1000
 1946 0062 7B60     		str	r3, [r7, #4]
 1947 0064 13E0     		b	.L129
 1948              	.L132:
1194:.\Generated_Source\PSoC5/CyLib.c ****     {
1195:.\Generated_Source\PSoC5/CyLib.c ****         if(0u != (CyXTAL_32KHZ_ReadStatus() & CY_XTAL32K_ANA_STAT))
 1949              		.loc 1 1195 0
 1950 0066 FFF7FEFF 		bl	CyXTAL_32KHZ_ReadStatus
 1951 006a 0346     		mov	r3, r0
 1952 006c 03F02003 		and	r3, r3, #32
 1953 0070 002B     		cmp	r3, #0
 1954 0072 04D0     		beq	.L130
1196:.\Generated_Source\PSoC5/CyLib.c ****         {
1197:.\Generated_Source\PSoC5/CyLib.c ****             /* Ready - switch to the hign power mode */
1198:.\Generated_Source\PSoC5/CyLib.c ****             (void) CyXTAL_32KHZ_SetPowerMode(0u);
 1955              		.loc 1 1198 0
 1956 0074 4FF00000 		mov	r0, #0
 1957 0078 FFF7FEFF 		bl	CyXTAL_32KHZ_SetPowerMode
1199:.\Generated_Source\PSoC5/CyLib.c **** 
1200:.\Generated_Source\PSoC5/CyLib.c ****             break;
 1958              		.loc 1 1200 0
 1959 007c 0AE0     		b	.L133
 1960              	.L130:
1201:.\Generated_Source\PSoC5/CyLib.c ****         }
1202:.\Generated_Source\PSoC5/CyLib.c ****         CyDelayUs(1u);
 1961              		.loc 1 1202 0
 1962 007e 4FF00100 		mov	r0, #1
 1963 0082 FFF7FEFF 		bl	CyDelayUs
 1964              		.loc 1 1193 0
 1965 0086 7B68     		ldr	r3, [r7, #4]
 1966 0088 03F1FF33 		add	r3, r3, #-1
 1967 008c 7B60     		str	r3, [r7, #4]
 1968              	.L129:
 1969 008e 7B68     		ldr	r3, [r7, #4]
 1970 0090 002B     		cmp	r3, #0
 1971 0092 E8D1     		bne	.L132
 1972              	.L133:
1203:.\Generated_Source\PSoC5/CyLib.c ****     }
1204:.\Generated_Source\PSoC5/CyLib.c **** }
 1973              		.loc 1 1204 0
 1974 0094 07F10807 		add	r7, r7, #8
 1975 0098 BD46     		mov	sp, r7
 1976 009a 80BD     		pop	{r7, pc}
 1977              		.cfi_endproc
 1978              	.LFE25:
 1979              		.size	CyXTAL_32KHZ_Start, .-CyXTAL_32KHZ_Start
 1980              		.section	.text.CyXTAL_32KHZ_Stop,"ax",%progbits
 1981              		.align	2
 1982              		.global	CyXTAL_32KHZ_Stop
 1983              		.thumb
 1984              		.thumb_func
ARM GAS  C:\Users\Heiwa\AppData\Local\Temp\ccuYQ69z.s 			page 57


 1985              		.type	CyXTAL_32KHZ_Stop, %function
 1986              	CyXTAL_32KHZ_Stop:
 1987              	.LFB26:
1205:.\Generated_Source\PSoC5/CyLib.c **** 
1206:.\Generated_Source\PSoC5/CyLib.c **** 
1207:.\Generated_Source\PSoC5/CyLib.c **** /*******************************************************************************
1208:.\Generated_Source\PSoC5/CyLib.c **** * Function Name: CyXTAL_32KHZ_Stop
1209:.\Generated_Source\PSoC5/CyLib.c **** ********************************************************************************
1210:.\Generated_Source\PSoC5/CyLib.c **** *
1211:.\Generated_Source\PSoC5/CyLib.c **** * Summary:
1212:.\Generated_Source\PSoC5/CyLib.c **** *  Disables the 32KHz Crystal Oscillator.
1213:.\Generated_Source\PSoC5/CyLib.c **** *
1214:.\Generated_Source\PSoC5/CyLib.c **** * Parameters:
1215:.\Generated_Source\PSoC5/CyLib.c **** *  None
1216:.\Generated_Source\PSoC5/CyLib.c **** *
1217:.\Generated_Source\PSoC5/CyLib.c **** * Return:
1218:.\Generated_Source\PSoC5/CyLib.c **** *  None
1219:.\Generated_Source\PSoC5/CyLib.c **** *
1220:.\Generated_Source\PSoC5/CyLib.c **** *******************************************************************************/
1221:.\Generated_Source\PSoC5/CyLib.c **** void CyXTAL_32KHZ_Stop(void) 
1222:.\Generated_Source\PSoC5/CyLib.c **** {
 1988              		.loc 1 1222 0
 1989              		.cfi_startproc
 1990              		@ args = 0, pretend = 0, frame = 0
 1991              		@ frame_needed = 1, uses_anonymous_args = 0
 1992              		@ link register save eliminated.
 1993 0000 80B4     		push	{r7}
 1994              	.LCFI68:
 1995              		.cfi_def_cfa_offset 4
 1996 0002 00AF     		add	r7, sp, #0
 1997              		.cfi_offset 7, -4
 1998              	.LCFI69:
 1999              		.cfi_def_cfa_register 7
1223:.\Generated_Source\PSoC5/CyLib.c ****     CY_CLK_XTAL32_TST_REG  = CY_CLK_XTAL32_TST_DEFAULT;
 2000              		.loc 1 1223 0
 2001 0004 44F20A33 		movw	r3, #:lower16:1073758986
 2002 0008 C4F20003 		movt	r3, #:upper16:1073758986
 2003 000c 6FF00C02 		mvn	r2, #12
 2004 0010 1A70     		strb	r2, [r3, #0]
1224:.\Generated_Source\PSoC5/CyLib.c ****     CY_CLK_XTAL32_TR_REG   = CY_CLK_XTAL32_TR_POWERDOWN;
 2005              		.loc 1 1224 0
 2006 0012 44F29863 		movw	r3, #:lower16:1073759896
 2007 0016 C4F20003 		movt	r3, #:upper16:1073759896
 2008 001a 4FF00002 		mov	r2, #0
 2009 001e 1A70     		strb	r2, [r3, #0]
1225:.\Generated_Source\PSoC5/CyLib.c ****     CY_CLK_XTAL32_CFG_REG = (CY_CLK_XTAL32_CFG_REG & ~CY_CLK_XTAL32_CFG_LP_MASK) | CY_CLK_XTAL32_CF
 2010              		.loc 1 1225 0
 2011 0020 44F20933 		movw	r3, #:lower16:1073758985
 2012 0024 C4F20003 		movt	r3, #:upper16:1073758985
 2013 0028 44F20932 		movw	r2, #:lower16:1073758985
 2014 002c C4F20002 		movt	r2, #:upper16:1073758985
 2015 0030 1278     		ldrb	r2, [r2, #0]
 2016 0032 D2B2     		uxtb	r2, r2
 2017 0034 02F0F302 		and	r2, r2, #243
 2018 0038 42F00402 		orr	r2, r2, #4
 2019 003c D2B2     		uxtb	r2, r2
 2020 003e 1A70     		strb	r2, [r3, #0]
ARM GAS  C:\Users\Heiwa\AppData\Local\Temp\ccuYQ69z.s 			page 58


1226:.\Generated_Source\PSoC5/CyLib.c ****     CY_CLK_XTAL32_CR_REG &= ~(CY_CLK_XTAL32_CR_EN | CY_CLK_XTAL32_CR_LPM);
 2021              		.loc 1 1226 0
 2022 0040 44F20833 		movw	r3, #:lower16:1073758984
 2023 0044 C4F20003 		movt	r3, #:upper16:1073758984
 2024 0048 44F20832 		movw	r2, #:lower16:1073758984
 2025 004c C4F20002 		movt	r2, #:upper16:1073758984
 2026 0050 1278     		ldrb	r2, [r2, #0]
 2027 0052 D2B2     		uxtb	r2, r2
 2028 0054 02F0FC02 		and	r2, r2, #252
 2029 0058 1A70     		strb	r2, [r3, #0]
1227:.\Generated_Source\PSoC5/CyLib.c **** 
1228:.\Generated_Source\PSoC5/CyLib.c ****     #if(CY_PSOC3)
1229:.\Generated_Source\PSoC5/CyLib.c ****         CY_CLK_XTAL32_CR_REG &= ~CY_CLK_XTAL32_CR_PDBEN;
1230:.\Generated_Source\PSoC5/CyLib.c ****     #endif  /* (CY_PSOC3) */
1231:.\Generated_Source\PSoC5/CyLib.c **** }
 2030              		.loc 1 1231 0
 2031 005a BD46     		mov	sp, r7
 2032 005c 80BC     		pop	{r7}
 2033 005e 7047     		bx	lr
 2034              		.cfi_endproc
 2035              	.LFE26:
 2036              		.size	CyXTAL_32KHZ_Stop, .-CyXTAL_32KHZ_Stop
 2037              		.section	.text.CyXTAL_32KHZ_ReadStatus,"ax",%progbits
 2038              		.align	2
 2039              		.global	CyXTAL_32KHZ_ReadStatus
 2040              		.thumb
 2041              		.thumb_func
 2042              		.type	CyXTAL_32KHZ_ReadStatus, %function
 2043              	CyXTAL_32KHZ_ReadStatus:
 2044              	.LFB27:
1232:.\Generated_Source\PSoC5/CyLib.c **** 
1233:.\Generated_Source\PSoC5/CyLib.c **** 
1234:.\Generated_Source\PSoC5/CyLib.c **** /*******************************************************************************
1235:.\Generated_Source\PSoC5/CyLib.c **** * Function Name: CyXTAL_32KHZ_ReadStatus
1236:.\Generated_Source\PSoC5/CyLib.c **** ********************************************************************************
1237:.\Generated_Source\PSoC5/CyLib.c **** *
1238:.\Generated_Source\PSoC5/CyLib.c **** * Summary:
1239:.\Generated_Source\PSoC5/CyLib.c **** *  Returns status of the 32 KHz oscillator.
1240:.\Generated_Source\PSoC5/CyLib.c **** *
1241:.\Generated_Source\PSoC5/CyLib.c **** * Parameters:
1242:.\Generated_Source\PSoC5/CyLib.c **** *  None
1243:.\Generated_Source\PSoC5/CyLib.c **** *
1244:.\Generated_Source\PSoC5/CyLib.c **** * Return:
1245:.\Generated_Source\PSoC5/CyLib.c **** *  Value     Define                    Source
1246:.\Generated_Source\PSoC5/CyLib.c **** *  20        CY_XTAL32K_ANA_STAT       Analog measurement
1247:.\Generated_Source\PSoC5/CyLib.c **** *                                       1: Stable
1248:.\Generated_Source\PSoC5/CyLib.c **** *                                       0: Not stable
1249:.\Generated_Source\PSoC5/CyLib.c **** *
1250:.\Generated_Source\PSoC5/CyLib.c **** *******************************************************************************/
1251:.\Generated_Source\PSoC5/CyLib.c **** uint8 CyXTAL_32KHZ_ReadStatus(void) 
1252:.\Generated_Source\PSoC5/CyLib.c **** {
 2045              		.loc 1 1252 0
 2046              		.cfi_startproc
 2047              		@ args = 0, pretend = 0, frame = 0
 2048              		@ frame_needed = 1, uses_anonymous_args = 0
 2049              		@ link register save eliminated.
 2050 0000 80B4     		push	{r7}
ARM GAS  C:\Users\Heiwa\AppData\Local\Temp\ccuYQ69z.s 			page 59


 2051              	.LCFI70:
 2052              		.cfi_def_cfa_offset 4
 2053 0002 00AF     		add	r7, sp, #0
 2054              		.cfi_offset 7, -4
 2055              	.LCFI71:
 2056              		.cfi_def_cfa_register 7
1253:.\Generated_Source\PSoC5/CyLib.c ****     return(CY_CLK_XTAL32_CR_REG & CY_XTAL32K_ANA_STAT);
 2057              		.loc 1 1253 0
 2058 0004 44F20833 		movw	r3, #:lower16:1073758984
 2059 0008 C4F20003 		movt	r3, #:upper16:1073758984
 2060 000c 1B78     		ldrb	r3, [r3, #0]
 2061 000e DBB2     		uxtb	r3, r3
 2062 0010 03F02003 		and	r3, r3, #32
1254:.\Generated_Source\PSoC5/CyLib.c **** }
 2063              		.loc 1 1254 0
 2064 0014 1846     		mov	r0, r3
 2065 0016 BD46     		mov	sp, r7
 2066 0018 80BC     		pop	{r7}
 2067 001a 7047     		bx	lr
 2068              		.cfi_endproc
 2069              	.LFE27:
 2070              		.size	CyXTAL_32KHZ_ReadStatus, .-CyXTAL_32KHZ_ReadStatus
 2071              		.section	.text.CyXTAL_32KHZ_SetPowerMode,"ax",%progbits
 2072              		.align	2
 2073              		.global	CyXTAL_32KHZ_SetPowerMode
 2074              		.thumb
 2075              		.thumb_func
 2076              		.type	CyXTAL_32KHZ_SetPowerMode, %function
 2077              	CyXTAL_32KHZ_SetPowerMode:
 2078              	.LFB28:
1255:.\Generated_Source\PSoC5/CyLib.c **** 
1256:.\Generated_Source\PSoC5/CyLib.c **** 
1257:.\Generated_Source\PSoC5/CyLib.c **** /*******************************************************************************
1258:.\Generated_Source\PSoC5/CyLib.c **** * Function Name: CyXTAL_32KHZ_SetPowerMode
1259:.\Generated_Source\PSoC5/CyLib.c **** ********************************************************************************
1260:.\Generated_Source\PSoC5/CyLib.c **** *
1261:.\Generated_Source\PSoC5/CyLib.c **** * Summary:
1262:.\Generated_Source\PSoC5/CyLib.c **** *  Sets the power mode for the 32 KHz oscillator used during sleep mode.
1263:.\Generated_Source\PSoC5/CyLib.c **** *  Allows for lower power during sleep when there are fewer sources of noise.
1264:.\Generated_Source\PSoC5/CyLib.c **** *  During active mode the oscillator is always run in high power mode.
1265:.\Generated_Source\PSoC5/CyLib.c **** *
1266:.\Generated_Source\PSoC5/CyLib.c **** * Parameters:
1267:.\Generated_Source\PSoC5/CyLib.c **** *  uint8 mode
1268:.\Generated_Source\PSoC5/CyLib.c **** *       0: High power mode
1269:.\Generated_Source\PSoC5/CyLib.c **** *       1: Low power mode during sleep
1270:.\Generated_Source\PSoC5/CyLib.c **** *
1271:.\Generated_Source\PSoC5/CyLib.c **** * Return:
1272:.\Generated_Source\PSoC5/CyLib.c **** *  Previous power mode.
1273:.\Generated_Source\PSoC5/CyLib.c **** *
1274:.\Generated_Source\PSoC5/CyLib.c **** *******************************************************************************/
1275:.\Generated_Source\PSoC5/CyLib.c **** uint8 CyXTAL_32KHZ_SetPowerMode(uint8 mode) 
1276:.\Generated_Source\PSoC5/CyLib.c **** {
 2079              		.loc 1 1276 0
 2080              		.cfi_startproc
 2081              		@ args = 0, pretend = 0, frame = 16
 2082              		@ frame_needed = 1, uses_anonymous_args = 0
 2083 0000 80B5     		push	{r7, lr}
ARM GAS  C:\Users\Heiwa\AppData\Local\Temp\ccuYQ69z.s 			page 60


 2084              	.LCFI72:
 2085              		.cfi_def_cfa_offset 8
 2086 0002 84B0     		sub	sp, sp, #16
 2087              	.LCFI73:
 2088              		.cfi_def_cfa_offset 24
 2089 0004 00AF     		add	r7, sp, #0
 2090              		.cfi_offset 14, -4
 2091              		.cfi_offset 7, -8
 2092              	.LCFI74:
 2093              		.cfi_def_cfa_register 7
 2094 0006 0346     		mov	r3, r0
 2095 0008 FB71     		strb	r3, [r7, #7]
1277:.\Generated_Source\PSoC5/CyLib.c ****     uint8 state = (0u != (CY_CLK_XTAL32_CR_REG & CY_CLK_XTAL32_CR_LPM)) ? 1u : 0u;
 2096              		.loc 1 1277 0
 2097 000a 44F20833 		movw	r3, #:lower16:1073758984
 2098 000e C4F20003 		movt	r3, #:upper16:1073758984
 2099 0012 1B78     		ldrb	r3, [r3, #0]
 2100 0014 DBB2     		uxtb	r3, r3
 2101 0016 03F00203 		and	r3, r3, #2
 2102 001a 002B     		cmp	r3, #0
 2103 001c 02D0     		beq	.L139
 2104 001e 4FF00103 		mov	r3, #1
 2105 0022 01E0     		b	.L140
 2106              	.L139:
 2107 0024 4FF00003 		mov	r3, #0
 2108              	.L140:
 2109 0028 FB73     		strb	r3, [r7, #15]
1278:.\Generated_Source\PSoC5/CyLib.c **** 
1279:.\Generated_Source\PSoC5/CyLib.c ****     CY_CLK_XTAL32_TST_REG = CY_CLK_XTAL32_TST_DEFAULT;
 2110              		.loc 1 1279 0
 2111 002a 44F20A33 		movw	r3, #:lower16:1073758986
 2112 002e C4F20003 		movt	r3, #:upper16:1073758986
 2113 0032 6FF00C02 		mvn	r2, #12
 2114 0036 1A70     		strb	r2, [r3, #0]
1280:.\Generated_Source\PSoC5/CyLib.c **** 
1281:.\Generated_Source\PSoC5/CyLib.c ****     if(1u == mode)
 2115              		.loc 1 1281 0
 2116 0038 FB79     		ldrb	r3, [r7, #7]	@ zero_extendqisi2
 2117 003a 012B     		cmp	r3, #1
 2118 003c 2DD1     		bne	.L141
1282:.\Generated_Source\PSoC5/CyLib.c ****     {
1283:.\Generated_Source\PSoC5/CyLib.c ****         /* Low power mode during Sleep */
1284:.\Generated_Source\PSoC5/CyLib.c ****         CY_CLK_XTAL32_TR_REG  = CY_CLK_XTAL32_TR_LOW_POWER;
 2119              		.loc 1 1284 0
 2120 003e 44F29863 		movw	r3, #:lower16:1073759896
 2121 0042 C4F20003 		movt	r3, #:upper16:1073759896
 2122 0046 4FF00102 		mov	r2, #1
 2123 004a 1A70     		strb	r2, [r3, #0]
1285:.\Generated_Source\PSoC5/CyLib.c ****         CyDelayUs(10u);
 2124              		.loc 1 1285 0
 2125 004c 4FF00A00 		mov	r0, #10
 2126 0050 FFF7FEFF 		bl	CyDelayUs
1286:.\Generated_Source\PSoC5/CyLib.c ****         CY_CLK_XTAL32_CFG_REG = (CY_CLK_XTAL32_CFG_REG & ~CY_CLK_XTAL32_CFG_LP_MASK) | CY_CLK_XTAL3
 2127              		.loc 1 1286 0
 2128 0054 44F20933 		movw	r3, #:lower16:1073758985
 2129 0058 C4F20003 		movt	r3, #:upper16:1073758985
 2130 005c 44F20932 		movw	r2, #:lower16:1073758985
ARM GAS  C:\Users\Heiwa\AppData\Local\Temp\ccuYQ69z.s 			page 61


 2131 0060 C4F20002 		movt	r2, #:upper16:1073758985
 2132 0064 1278     		ldrb	r2, [r2, #0]
 2133 0066 D2B2     		uxtb	r2, r2
 2134 0068 02F0F302 		and	r2, r2, #243
 2135 006c 42F00802 		orr	r2, r2, #8
 2136 0070 D2B2     		uxtb	r2, r2
 2137 0072 1A70     		strb	r2, [r3, #0]
1287:.\Generated_Source\PSoC5/CyLib.c ****         CyDelayUs(20u);
 2138              		.loc 1 1287 0
 2139 0074 4FF01400 		mov	r0, #20
 2140 0078 FFF7FEFF 		bl	CyDelayUs
1288:.\Generated_Source\PSoC5/CyLib.c ****         CY_CLK_XTAL32_CR_REG |= CY_CLK_XTAL32_CR_LPM;
 2141              		.loc 1 1288 0
 2142 007c 44F20833 		movw	r3, #:lower16:1073758984
 2143 0080 C4F20003 		movt	r3, #:upper16:1073758984
 2144 0084 44F20832 		movw	r2, #:lower16:1073758984
 2145 0088 C4F20002 		movt	r2, #:upper16:1073758984
 2146 008c 1278     		ldrb	r2, [r2, #0]
 2147 008e D2B2     		uxtb	r2, r2
 2148 0090 42F00202 		orr	r2, r2, #2
 2149 0094 D2B2     		uxtb	r2, r2
 2150 0096 1A70     		strb	r2, [r3, #0]
 2151 0098 27E0     		b	.L142
 2152              	.L141:
1289:.\Generated_Source\PSoC5/CyLib.c ****     }
1290:.\Generated_Source\PSoC5/CyLib.c ****     else
1291:.\Generated_Source\PSoC5/CyLib.c ****     {
1292:.\Generated_Source\PSoC5/CyLib.c ****         /* High power mode */
1293:.\Generated_Source\PSoC5/CyLib.c ****         CY_CLK_XTAL32_TR_REG  = CY_CLK_XTAL32_TR_HIGH_POWER;
 2153              		.loc 1 1293 0
 2154 009a 44F29863 		movw	r3, #:lower16:1073759896
 2155 009e C4F20003 		movt	r3, #:upper16:1073759896
 2156 00a2 4FF00602 		mov	r2, #6
 2157 00a6 1A70     		strb	r2, [r3, #0]
1294:.\Generated_Source\PSoC5/CyLib.c ****         CyDelayUs(10u);
 2158              		.loc 1 1294 0
 2159 00a8 4FF00A00 		mov	r0, #10
 2160 00ac FFF7FEFF 		bl	CyDelayUs
1295:.\Generated_Source\PSoC5/CyLib.c ****         CY_CLK_XTAL32_CFG_REG = (CY_CLK_XTAL32_CFG_REG & ~CY_CLK_XTAL32_CFG_LP_MASK) | CY_CLK_XTAL3
 2161              		.loc 1 1295 0
 2162 00b0 44F20933 		movw	r3, #:lower16:1073758985
 2163 00b4 C4F20003 		movt	r3, #:upper16:1073758985
 2164 00b8 44F20932 		movw	r2, #:lower16:1073758985
 2165 00bc C4F20002 		movt	r2, #:upper16:1073758985
 2166 00c0 1278     		ldrb	r2, [r2, #0]
 2167 00c2 D2B2     		uxtb	r2, r2
 2168 00c4 02F0F302 		and	r2, r2, #243
 2169 00c8 42F00402 		orr	r2, r2, #4
 2170 00cc D2B2     		uxtb	r2, r2
 2171 00ce 1A70     		strb	r2, [r3, #0]
1296:.\Generated_Source\PSoC5/CyLib.c ****         CY_CLK_XTAL32_CR_REG &= ~CY_CLK_XTAL32_CR_LPM;
 2172              		.loc 1 1296 0
 2173 00d0 44F20833 		movw	r3, #:lower16:1073758984
 2174 00d4 C4F20003 		movt	r3, #:upper16:1073758984
 2175 00d8 44F20832 		movw	r2, #:lower16:1073758984
 2176 00dc C4F20002 		movt	r2, #:upper16:1073758984
 2177 00e0 1278     		ldrb	r2, [r2, #0]
ARM GAS  C:\Users\Heiwa\AppData\Local\Temp\ccuYQ69z.s 			page 62


 2178 00e2 D2B2     		uxtb	r2, r2
 2179 00e4 02F0FD02 		and	r2, r2, #253
 2180 00e8 1A70     		strb	r2, [r3, #0]
 2181              	.L142:
1297:.\Generated_Source\PSoC5/CyLib.c ****     }
1298:.\Generated_Source\PSoC5/CyLib.c **** 
1299:.\Generated_Source\PSoC5/CyLib.c ****     return(state);
 2182              		.loc 1 1299 0
 2183 00ea FB7B     		ldrb	r3, [r7, #15]	@ zero_extendqisi2
1300:.\Generated_Source\PSoC5/CyLib.c **** }
 2184              		.loc 1 1300 0
 2185 00ec 1846     		mov	r0, r3
 2186 00ee 07F11007 		add	r7, r7, #16
 2187 00f2 BD46     		mov	sp, r7
 2188 00f4 80BD     		pop	{r7, pc}
 2189              		.cfi_endproc
 2190              	.LFE28:
 2191              		.size	CyXTAL_32KHZ_SetPowerMode, .-CyXTAL_32KHZ_SetPowerMode
 2192 00f6 00BF     		.section	.text.CyXTAL_Start,"ax",%progbits
 2193              		.align	2
 2194              		.global	CyXTAL_Start
 2195              		.thumb
 2196              		.thumb_func
 2197              		.type	CyXTAL_Start, %function
 2198              	CyXTAL_Start:
 2199              	.LFB29:
1301:.\Generated_Source\PSoC5/CyLib.c **** 
1302:.\Generated_Source\PSoC5/CyLib.c **** 
1303:.\Generated_Source\PSoC5/CyLib.c **** /*******************************************************************************
1304:.\Generated_Source\PSoC5/CyLib.c **** * Function Name: CyXTAL_Start
1305:.\Generated_Source\PSoC5/CyLib.c **** ********************************************************************************
1306:.\Generated_Source\PSoC5/CyLib.c **** *
1307:.\Generated_Source\PSoC5/CyLib.c **** * Summary:
1308:.\Generated_Source\PSoC5/CyLib.c **** *  Enables the megahertz crystal.
1309:.\Generated_Source\PSoC5/CyLib.c **** *
1310:.\Generated_Source\PSoC5/CyLib.c **** *  PSoC3:
1311:.\Generated_Source\PSoC5/CyLib.c **** *  Waits until the XERR bit is low (no error) for a millisecond or until the
1312:.\Generated_Source\PSoC5/CyLib.c **** *  number of milliseconds specified by the wait parameter has expired.
1313:.\Generated_Source\PSoC5/CyLib.c **** *
1314:.\Generated_Source\PSoC5/CyLib.c **** *  PSoC5:
1315:.\Generated_Source\PSoC5/CyLib.c **** *  Waits for CY_CLK_XMHZ_MIN_TIMEOUT milliseconds (or number of milliseconds
1316:.\Generated_Source\PSoC5/CyLib.c **** *  specified by parameter if it is greater than CY_CLK_XMHZ_MIN_TIMEOUT. The
1317:.\Generated_Source\PSoC5/CyLib.c **** *  XERR bit status is not checked.
1318:.\Generated_Source\PSoC5/CyLib.c **** *
1319:.\Generated_Source\PSoC5/CyLib.c **** * Parameters:
1320:.\Generated_Source\PSoC5/CyLib.c **** *   wait: Valid range [0-255].
1321:.\Generated_Source\PSoC5/CyLib.c **** *   This is the timeout value in milliseconds.
1322:.\Generated_Source\PSoC5/CyLib.c **** *   The appropriate value is crystal specific.
1323:.\Generated_Source\PSoC5/CyLib.c **** *
1324:.\Generated_Source\PSoC5/CyLib.c **** * Return:
1325:.\Generated_Source\PSoC5/CyLib.c **** *   CYRET_SUCCESS - Completed successfully
1326:.\Generated_Source\PSoC5/CyLib.c **** *   CYRET_TIMEOUT - Timeout occurred without detecting a low value on XERR.
1327:.\Generated_Source\PSoC5/CyLib.c **** *
1328:.\Generated_Source\PSoC5/CyLib.c **** * Side Effects and Restrictions:
1329:.\Generated_Source\PSoC5/CyLib.c **** *  If wait is enabled (non-zero wait). Uses the Fast Timewheel to time the wait.
1330:.\Generated_Source\PSoC5/CyLib.c **** *  Any other use of the Fast Timewheel (FTW) will be stopped during the period
1331:.\Generated_Source\PSoC5/CyLib.c **** *  of this function and then restored.
ARM GAS  C:\Users\Heiwa\AppData\Local\Temp\ccuYQ69z.s 			page 63


1332:.\Generated_Source\PSoC5/CyLib.c **** *
1333:.\Generated_Source\PSoC5/CyLib.c **** *  Uses the 100KHz ILO.  If not enabled, this function will enable the 100KHz
1334:.\Generated_Source\PSoC5/CyLib.c **** *  ILO for the period of this function. No changes to the setup of the ILO,
1335:.\Generated_Source\PSoC5/CyLib.c **** *  Fast Timewheel, Central Timewheel or Once Per Second interrupt may be made
1336:.\Generated_Source\PSoC5/CyLib.c **** *  by interrupt routines during the period of this function.
1337:.\Generated_Source\PSoC5/CyLib.c **** *
1338:.\Generated_Source\PSoC5/CyLib.c **** *  The current operation of the ILO, Central Timewheel and Once Per Second
1339:.\Generated_Source\PSoC5/CyLib.c **** *  interrupt are maintained during the operation of this function provided the
1340:.\Generated_Source\PSoC5/CyLib.c **** *  reading of the Power Manager Interrupt Status Register is only done using the
1341:.\Generated_Source\PSoC5/CyLib.c **** *  CyPmReadStatus() function.
1342:.\Generated_Source\PSoC5/CyLib.c **** *
1343:.\Generated_Source\PSoC5/CyLib.c **** *******************************************************************************/
1344:.\Generated_Source\PSoC5/CyLib.c **** cystatus CyXTAL_Start(uint8 wait) 
1345:.\Generated_Source\PSoC5/CyLib.c **** {
 2200              		.loc 1 1345 0
 2201              		.cfi_startproc
 2202              		@ args = 0, pretend = 0, frame = 24
 2203              		@ frame_needed = 1, uses_anonymous_args = 0
 2204 0000 80B5     		push	{r7, lr}
 2205              	.LCFI75:
 2206              		.cfi_def_cfa_offset 8
 2207 0002 86B0     		sub	sp, sp, #24
 2208              	.LCFI76:
 2209              		.cfi_def_cfa_offset 32
 2210 0004 00AF     		add	r7, sp, #0
 2211              		.cfi_offset 14, -4
 2212              		.cfi_offset 7, -8
 2213              	.LCFI77:
 2214              		.cfi_def_cfa_register 7
 2215 0006 0346     		mov	r3, r0
 2216 0008 FB71     		strb	r3, [r7, #7]
1346:.\Generated_Source\PSoC5/CyLib.c ****     cystatus status = CYRET_SUCCESS;
 2217              		.loc 1 1346 0
 2218 000a 4FF00003 		mov	r3, #0
 2219 000e 3B61     		str	r3, [r7, #16]
1347:.\Generated_Source\PSoC5/CyLib.c **** 
1348:.\Generated_Source\PSoC5/CyLib.c ****     #if(CY_PSOC5A)
1349:.\Generated_Source\PSoC5/CyLib.c ****         volatile uint8  timeout = (wait < CY_CLK_XMHZ_MIN_TIMEOUT) ? CY_CLK_XMHZ_MIN_TIMEOUT : wait
 2220              		.loc 1 1349 0
 2221 0010 FB79     		ldrb	r3, [r7, #7]	@ zero_extendqisi2
 2222 0012 822B     		cmp	r3, #130
 2223 0014 38BF     		it	cc
 2224 0016 8223     		movcc	r3, #130
 2225 0018 DBB2     		uxtb	r3, r3
 2226 001a FB73     		strb	r3, [r7, #15]
1350:.\Generated_Source\PSoC5/CyLib.c ****     #else
1351:.\Generated_Source\PSoC5/CyLib.c ****         volatile uint8  timeout = wait;
1352:.\Generated_Source\PSoC5/CyLib.c ****     #endif  /* (CY_PSOC5A) */
1353:.\Generated_Source\PSoC5/CyLib.c **** 
1354:.\Generated_Source\PSoC5/CyLib.c ****     volatile uint8 count;
1355:.\Generated_Source\PSoC5/CyLib.c ****     uint8 iloEnableState;
1356:.\Generated_Source\PSoC5/CyLib.c ****     uint8 pmTwCfg0;
1357:.\Generated_Source\PSoC5/CyLib.c ****     uint8 pmTwCfg2;
1358:.\Generated_Source\PSoC5/CyLib.c **** 
1359:.\Generated_Source\PSoC5/CyLib.c **** 
1360:.\Generated_Source\PSoC5/CyLib.c ****     /* Enables the MHz crystal oscillator circuit  */
1361:.\Generated_Source\PSoC5/CyLib.c ****     CY_CLK_XMHZ_CSR_REG |= CY_CLK_XMHZ_CSR_ENABLE;
ARM GAS  C:\Users\Heiwa\AppData\Local\Temp\ccuYQ69z.s 			page 64


 2227              		.loc 1 1361 0
 2228 001c 44F21023 		movw	r3, #:lower16:1073758736
 2229 0020 C4F20003 		movt	r3, #:upper16:1073758736
 2230 0024 44F21022 		movw	r2, #:lower16:1073758736
 2231 0028 C4F20002 		movt	r2, #:upper16:1073758736
 2232 002c 1278     		ldrb	r2, [r2, #0]
 2233 002e D2B2     		uxtb	r2, r2
 2234 0030 42F00102 		orr	r2, r2, #1
 2235 0034 D2B2     		uxtb	r2, r2
 2236 0036 1A70     		strb	r2, [r3, #0]
1362:.\Generated_Source\PSoC5/CyLib.c **** 
1363:.\Generated_Source\PSoC5/CyLib.c **** 
1364:.\Generated_Source\PSoC5/CyLib.c ****     if(wait > 0)
 2237              		.loc 1 1364 0
 2238 0038 FB79     		ldrb	r3, [r7, #7]	@ zero_extendqisi2
 2239 003a 002B     		cmp	r3, #0
 2240 003c 4BD0     		beq	.L145
1365:.\Generated_Source\PSoC5/CyLib.c ****     {
1366:.\Generated_Source\PSoC5/CyLib.c ****         /* Save 100 KHz ILO, FTW interval, enable and interrupt enable */
1367:.\Generated_Source\PSoC5/CyLib.c ****         iloEnableState = SLOWCLK_ILO_CR0;
 2241              		.loc 1 1367 0
 2242 003e 44F20033 		movw	r3, #:lower16:1073758976
 2243 0042 C4F20003 		movt	r3, #:upper16:1073758976
 2244 0046 1B78     		ldrb	r3, [r3, #0]
 2245 0048 7B75     		strb	r3, [r7, #21]
1368:.\Generated_Source\PSoC5/CyLib.c ****         pmTwCfg0 = CY_PM_TW_CFG0_REG;
 2246              		.loc 1 1368 0
 2247 004a 44F28033 		movw	r3, #:lower16:1073759104
 2248 004e C4F20003 		movt	r3, #:upper16:1073759104
 2249 0052 1B78     		ldrb	r3, [r3, #0]
 2250 0054 BB75     		strb	r3, [r7, #22]
1369:.\Generated_Source\PSoC5/CyLib.c ****         pmTwCfg2 = CY_PM_TW_CFG2_REG;
 2251              		.loc 1 1369 0
 2252 0056 44F28233 		movw	r3, #:lower16:1073759106
 2253 005a C4F20003 		movt	r3, #:upper16:1073759106
 2254 005e 1B78     		ldrb	r3, [r3, #0]
 2255 0060 FB75     		strb	r3, [r7, #23]
1370:.\Generated_Source\PSoC5/CyLib.c **** 
1371:.\Generated_Source\PSoC5/CyLib.c ****         /* Set 250 us interval */
1372:.\Generated_Source\PSoC5/CyLib.c ****         CyPmFtwSetInterval(CY_CLK_XMHZ_FTW_INTERVAL);
 2256              		.loc 1 1372 0
 2257 0062 4FF01800 		mov	r0, #24
 2258 0066 FFF7FEFF 		bl	CyPmFtwSetInterval
1373:.\Generated_Source\PSoC5/CyLib.c ****         status = CYRET_TIMEOUT;
 2259              		.loc 1 1373 0
 2260 006a 4FF01003 		mov	r3, #16
 2261 006e 3B61     		str	r3, [r7, #16]
1374:.\Generated_Source\PSoC5/CyLib.c **** 
1375:.\Generated_Source\PSoC5/CyLib.c **** 
1376:.\Generated_Source\PSoC5/CyLib.c ****         for( ; timeout > 0; timeout--)
 2262              		.loc 1 1376 0
 2263 0070 1AE0     		b	.L146
 2264              	.L149:
1377:.\Generated_Source\PSoC5/CyLib.c ****         {
1378:.\Generated_Source\PSoC5/CyLib.c ****             #if(!CY_PSOC5A)
1379:.\Generated_Source\PSoC5/CyLib.c **** 
1380:.\Generated_Source\PSoC5/CyLib.c ****                 /* Read XERR bit to clear it */
ARM GAS  C:\Users\Heiwa\AppData\Local\Temp\ccuYQ69z.s 			page 65


1381:.\Generated_Source\PSoC5/CyLib.c ****                 (void) CY_CLK_XMHZ_CSR_REG;
1382:.\Generated_Source\PSoC5/CyLib.c **** 
1383:.\Generated_Source\PSoC5/CyLib.c ****             #endif  /* (!CY_PSOC5A) */
1384:.\Generated_Source\PSoC5/CyLib.c **** 
1385:.\Generated_Source\PSoC5/CyLib.c **** 
1386:.\Generated_Source\PSoC5/CyLib.c ****             /* Wait for a millisecond - 4 x 250 us */
1387:.\Generated_Source\PSoC5/CyLib.c ****             for(count = 4u; count > 0u; count--)
 2265              		.loc 1 1387 0
 2266 0072 4FF00403 		mov	r3, #4
 2267 0076 BB73     		strb	r3, [r7, #14]
 2268 0078 0CE0     		b	.L147
 2269              	.L148:
1388:.\Generated_Source\PSoC5/CyLib.c ****             {
1389:.\Generated_Source\PSoC5/CyLib.c ****                 while(!(CY_PM_FTW_INT == CyPmReadStatus(CY_PM_FTW_INT)))
 2270              		.loc 1 1389 0
 2271 007a 4FF00100 		mov	r0, #1
 2272 007e FFF7FEFF 		bl	CyPmReadStatus
 2273 0082 0346     		mov	r3, r0
 2274 0084 012B     		cmp	r3, #1
 2275 0086 F8D1     		bne	.L148
 2276              		.loc 1 1387 0
 2277 0088 BB7B     		ldrb	r3, [r7, #14]
 2278 008a DBB2     		uxtb	r3, r3
 2279 008c 03F1FF33 		add	r3, r3, #-1
 2280 0090 DBB2     		uxtb	r3, r3
 2281 0092 BB73     		strb	r3, [r7, #14]
 2282              	.L147:
 2283 0094 BB7B     		ldrb	r3, [r7, #14]
 2284 0096 DBB2     		uxtb	r3, r3
 2285 0098 002B     		cmp	r3, #0
 2286 009a EED1     		bne	.L148
 2287              		.loc 1 1376 0
 2288 009c FB7B     		ldrb	r3, [r7, #15]
 2289 009e DBB2     		uxtb	r3, r3
 2290 00a0 03F1FF33 		add	r3, r3, #-1
 2291 00a4 DBB2     		uxtb	r3, r3
 2292 00a6 FB73     		strb	r3, [r7, #15]
 2293              	.L146:
 2294 00a8 FB7B     		ldrb	r3, [r7, #15]
 2295 00aa DBB2     		uxtb	r3, r3
 2296 00ac 002B     		cmp	r3, #0
 2297 00ae E0D1     		bne	.L149
1390:.\Generated_Source\PSoC5/CyLib.c ****                 {
1391:.\Generated_Source\PSoC5/CyLib.c ****                     /* Wait for the FTW interrupt event */
1392:.\Generated_Source\PSoC5/CyLib.c ****                 }
1393:.\Generated_Source\PSoC5/CyLib.c ****             }
1394:.\Generated_Source\PSoC5/CyLib.c **** 
1395:.\Generated_Source\PSoC5/CyLib.c **** 
1396:.\Generated_Source\PSoC5/CyLib.c ****             #if(!CY_PSOC5A)
1397:.\Generated_Source\PSoC5/CyLib.c **** 
1398:.\Generated_Source\PSoC5/CyLib.c ****                 /*******************************************************************
1399:.\Generated_Source\PSoC5/CyLib.c ****                 * High output indicates oscillator failure.
1400:.\Generated_Source\PSoC5/CyLib.c ****                 * Only can be used after start-up interval (1 ms) is completed.
1401:.\Generated_Source\PSoC5/CyLib.c ****                 *******************************************************************/
1402:.\Generated_Source\PSoC5/CyLib.c ****                 if(0u == (CY_CLK_XMHZ_CSR_REG & CY_CLK_XMHZ_CSR_XERR))
1403:.\Generated_Source\PSoC5/CyLib.c ****                 {
1404:.\Generated_Source\PSoC5/CyLib.c ****                     status = CYRET_SUCCESS;
ARM GAS  C:\Users\Heiwa\AppData\Local\Temp\ccuYQ69z.s 			page 66


1405:.\Generated_Source\PSoC5/CyLib.c ****                     break;
1406:.\Generated_Source\PSoC5/CyLib.c ****                 }
1407:.\Generated_Source\PSoC5/CyLib.c **** 
1408:.\Generated_Source\PSoC5/CyLib.c ****             #endif  /* (!CY_PSOC5A) */
1409:.\Generated_Source\PSoC5/CyLib.c ****         }
1410:.\Generated_Source\PSoC5/CyLib.c **** 
1411:.\Generated_Source\PSoC5/CyLib.c **** 
1412:.\Generated_Source\PSoC5/CyLib.c ****         /* Restore 100 KHz ILO, FTW interval, enable and interrupt enable */
1413:.\Generated_Source\PSoC5/CyLib.c ****         if(0u == (iloEnableState & ILO_CONTROL_100KHZ_ON))
 2298              		.loc 1 1413 0
 2299 00b0 7B7D     		ldrb	r3, [r7, #21]	@ zero_extendqisi2
 2300 00b2 03F00403 		and	r3, r3, #4
 2301 00b6 002B     		cmp	r3, #0
 2302 00b8 01D1     		bne	.L150
1414:.\Generated_Source\PSoC5/CyLib.c ****         {
1415:.\Generated_Source\PSoC5/CyLib.c ****             CyILO_Stop100K();
 2303              		.loc 1 1415 0
 2304 00ba FFF7FEFF 		bl	CyILO_Stop100K
 2305              	.L150:
1416:.\Generated_Source\PSoC5/CyLib.c ****         }
1417:.\Generated_Source\PSoC5/CyLib.c ****         CY_PM_TW_CFG0_REG = pmTwCfg0;
 2306              		.loc 1 1417 0
 2307 00be 44F28033 		movw	r3, #:lower16:1073759104
 2308 00c2 C4F20003 		movt	r3, #:upper16:1073759104
 2309 00c6 BA7D     		ldrb	r2, [r7, #22]
 2310 00c8 1A70     		strb	r2, [r3, #0]
1418:.\Generated_Source\PSoC5/CyLib.c ****         CY_PM_TW_CFG2_REG = pmTwCfg2;
 2311              		.loc 1 1418 0
 2312 00ca 44F28233 		movw	r3, #:lower16:1073759106
 2313 00ce C4F20003 		movt	r3, #:upper16:1073759106
 2314 00d2 FA7D     		ldrb	r2, [r7, #23]
 2315 00d4 1A70     		strb	r2, [r3, #0]
 2316              	.L145:
1419:.\Generated_Source\PSoC5/CyLib.c ****     }
1420:.\Generated_Source\PSoC5/CyLib.c **** 
1421:.\Generated_Source\PSoC5/CyLib.c ****     return(status);
 2317              		.loc 1 1421 0
 2318 00d6 3B69     		ldr	r3, [r7, #16]
1422:.\Generated_Source\PSoC5/CyLib.c **** }
 2319              		.loc 1 1422 0
 2320 00d8 1846     		mov	r0, r3
 2321 00da 07F11807 		add	r7, r7, #24
 2322 00de BD46     		mov	sp, r7
 2323 00e0 80BD     		pop	{r7, pc}
 2324              		.cfi_endproc
 2325              	.LFE29:
 2326              		.size	CyXTAL_Start, .-CyXTAL_Start
 2327 00e2 00BF     		.section	.text.CyXTAL_Stop,"ax",%progbits
 2328              		.align	2
 2329              		.global	CyXTAL_Stop
 2330              		.thumb
 2331              		.thumb_func
 2332              		.type	CyXTAL_Stop, %function
 2333              	CyXTAL_Stop:
 2334              	.LFB30:
1423:.\Generated_Source\PSoC5/CyLib.c **** 
1424:.\Generated_Source\PSoC5/CyLib.c **** 
ARM GAS  C:\Users\Heiwa\AppData\Local\Temp\ccuYQ69z.s 			page 67


1425:.\Generated_Source\PSoC5/CyLib.c **** /*******************************************************************************
1426:.\Generated_Source\PSoC5/CyLib.c **** * Function Name: CyXTAL_Stop
1427:.\Generated_Source\PSoC5/CyLib.c **** ********************************************************************************
1428:.\Generated_Source\PSoC5/CyLib.c **** *
1429:.\Generated_Source\PSoC5/CyLib.c **** * Summary:
1430:.\Generated_Source\PSoC5/CyLib.c **** *  Disables the megahertz crystal oscillator.
1431:.\Generated_Source\PSoC5/CyLib.c **** *
1432:.\Generated_Source\PSoC5/CyLib.c **** * Parameters:
1433:.\Generated_Source\PSoC5/CyLib.c **** *  None
1434:.\Generated_Source\PSoC5/CyLib.c **** *
1435:.\Generated_Source\PSoC5/CyLib.c **** * Return:
1436:.\Generated_Source\PSoC5/CyLib.c **** *  None
1437:.\Generated_Source\PSoC5/CyLib.c **** *
1438:.\Generated_Source\PSoC5/CyLib.c **** *******************************************************************************/
1439:.\Generated_Source\PSoC5/CyLib.c **** void CyXTAL_Stop(void) 
1440:.\Generated_Source\PSoC5/CyLib.c **** {
 2335              		.loc 1 1440 0
 2336              		.cfi_startproc
 2337              		@ args = 0, pretend = 0, frame = 0
 2338              		@ frame_needed = 1, uses_anonymous_args = 0
 2339              		@ link register save eliminated.
 2340 0000 80B4     		push	{r7}
 2341              	.LCFI78:
 2342              		.cfi_def_cfa_offset 4
 2343 0002 00AF     		add	r7, sp, #0
 2344              		.cfi_offset 7, -4
 2345              	.LCFI79:
 2346              		.cfi_def_cfa_register 7
1441:.\Generated_Source\PSoC5/CyLib.c ****     /* Disable the the oscillator. */
1442:.\Generated_Source\PSoC5/CyLib.c ****     FASTCLK_XMHZ_CSR &= ~XMHZ_CONTROL_ENABLE;
 2347              		.loc 1 1442 0
 2348 0004 44F21023 		movw	r3, #:lower16:1073758736
 2349 0008 C4F20003 		movt	r3, #:upper16:1073758736
 2350 000c 44F21022 		movw	r2, #:lower16:1073758736
 2351 0010 C4F20002 		movt	r2, #:upper16:1073758736
 2352 0014 1278     		ldrb	r2, [r2, #0]
 2353 0016 D2B2     		uxtb	r2, r2
 2354 0018 02F0FE02 		and	r2, r2, #254
 2355 001c 1A70     		strb	r2, [r3, #0]
1443:.\Generated_Source\PSoC5/CyLib.c **** }
 2356              		.loc 1 1443 0
 2357 001e BD46     		mov	sp, r7
 2358 0020 80BC     		pop	{r7}
 2359 0022 7047     		bx	lr
 2360              		.cfi_endproc
 2361              	.LFE30:
 2362              		.size	CyXTAL_Stop, .-CyXTAL_Stop
 2363              		.section	.text.CyXTAL_SetStartup,"ax",%progbits
 2364              		.align	2
 2365              		.global	CyXTAL_SetStartup
 2366              		.thumb
 2367              		.thumb_func
 2368              		.type	CyXTAL_SetStartup, %function
 2369              	CyXTAL_SetStartup:
 2370              	.LFB31:
1444:.\Generated_Source\PSoC5/CyLib.c **** 
1445:.\Generated_Source\PSoC5/CyLib.c **** 
ARM GAS  C:\Users\Heiwa\AppData\Local\Temp\ccuYQ69z.s 			page 68


1446:.\Generated_Source\PSoC5/CyLib.c **** #if(!CY_PSOC5A)
1447:.\Generated_Source\PSoC5/CyLib.c **** 
1448:.\Generated_Source\PSoC5/CyLib.c ****     /*******************************************************************************
1449:.\Generated_Source\PSoC5/CyLib.c ****     * Function Name: CyXTAL_EnableErrStatus
1450:.\Generated_Source\PSoC5/CyLib.c ****     ********************************************************************************
1451:.\Generated_Source\PSoC5/CyLib.c ****     *
1452:.\Generated_Source\PSoC5/CyLib.c ****     * Summary:
1453:.\Generated_Source\PSoC5/CyLib.c ****     *  Enables the generation of the XERR status bit for the megahertz crystal.
1454:.\Generated_Source\PSoC5/CyLib.c ****     *  This function is not available for PSoC5.
1455:.\Generated_Source\PSoC5/CyLib.c ****     *
1456:.\Generated_Source\PSoC5/CyLib.c ****     * Parameters:
1457:.\Generated_Source\PSoC5/CyLib.c ****     *  None
1458:.\Generated_Source\PSoC5/CyLib.c ****     *
1459:.\Generated_Source\PSoC5/CyLib.c ****     * Return:
1460:.\Generated_Source\PSoC5/CyLib.c ****     *  None
1461:.\Generated_Source\PSoC5/CyLib.c ****     *
1462:.\Generated_Source\PSoC5/CyLib.c ****     *******************************************************************************/
1463:.\Generated_Source\PSoC5/CyLib.c ****     void CyXTAL_EnableErrStatus(void) 
1464:.\Generated_Source\PSoC5/CyLib.c ****     {
1465:.\Generated_Source\PSoC5/CyLib.c ****         /* If oscillator has insufficient amplitude, XERR bit will be high. */
1466:.\Generated_Source\PSoC5/CyLib.c ****         CY_CLK_XMHZ_CSR_REG &= ~CY_CLK_XMHZ_CSR_XFB;
1467:.\Generated_Source\PSoC5/CyLib.c ****     }
1468:.\Generated_Source\PSoC5/CyLib.c **** 
1469:.\Generated_Source\PSoC5/CyLib.c **** 
1470:.\Generated_Source\PSoC5/CyLib.c ****     /*******************************************************************************
1471:.\Generated_Source\PSoC5/CyLib.c ****     * Function Name: CyXTAL_DisableErrStatus
1472:.\Generated_Source\PSoC5/CyLib.c ****     ********************************************************************************
1473:.\Generated_Source\PSoC5/CyLib.c ****     *
1474:.\Generated_Source\PSoC5/CyLib.c ****     * Summary:
1475:.\Generated_Source\PSoC5/CyLib.c ****     *  Disables the generation of the XERR status bit for the megahertz crystal.
1476:.\Generated_Source\PSoC5/CyLib.c ****     *  This function is not available for PSoC5.
1477:.\Generated_Source\PSoC5/CyLib.c ****     *
1478:.\Generated_Source\PSoC5/CyLib.c ****     * Parameters:
1479:.\Generated_Source\PSoC5/CyLib.c ****     *  None
1480:.\Generated_Source\PSoC5/CyLib.c ****     *
1481:.\Generated_Source\PSoC5/CyLib.c ****     * Return:
1482:.\Generated_Source\PSoC5/CyLib.c ****     *  None
1483:.\Generated_Source\PSoC5/CyLib.c ****     *
1484:.\Generated_Source\PSoC5/CyLib.c ****     *******************************************************************************/
1485:.\Generated_Source\PSoC5/CyLib.c ****     void CyXTAL_DisableErrStatus(void) 
1486:.\Generated_Source\PSoC5/CyLib.c ****     {
1487:.\Generated_Source\PSoC5/CyLib.c ****         /* If oscillator has insufficient amplitude, XERR bit will be high. */
1488:.\Generated_Source\PSoC5/CyLib.c ****         CY_CLK_XMHZ_CSR_REG |= CY_CLK_XMHZ_CSR_XFB;
1489:.\Generated_Source\PSoC5/CyLib.c ****     }
1490:.\Generated_Source\PSoC5/CyLib.c **** 
1491:.\Generated_Source\PSoC5/CyLib.c **** 
1492:.\Generated_Source\PSoC5/CyLib.c ****     /*******************************************************************************
1493:.\Generated_Source\PSoC5/CyLib.c ****     * Function Name: CyXTAL_ReadStatus
1494:.\Generated_Source\PSoC5/CyLib.c ****     ********************************************************************************
1495:.\Generated_Source\PSoC5/CyLib.c ****     *
1496:.\Generated_Source\PSoC5/CyLib.c ****     * Summary:
1497:.\Generated_Source\PSoC5/CyLib.c ****     *  Reads the XERR status bit for the megahertz crystal. This status bit is a
1498:.\Generated_Source\PSoC5/CyLib.c ****     *  sticky clear on read value. This function is not available for PSoC5.
1499:.\Generated_Source\PSoC5/CyLib.c ****     *
1500:.\Generated_Source\PSoC5/CyLib.c ****     * Parameters:
1501:.\Generated_Source\PSoC5/CyLib.c ****     *  None
1502:.\Generated_Source\PSoC5/CyLib.c ****     *
ARM GAS  C:\Users\Heiwa\AppData\Local\Temp\ccuYQ69z.s 			page 69


1503:.\Generated_Source\PSoC5/CyLib.c ****     * Return:
1504:.\Generated_Source\PSoC5/CyLib.c ****     *   Status
1505:.\Generated_Source\PSoC5/CyLib.c ****     *    0: No error
1506:.\Generated_Source\PSoC5/CyLib.c ****     *    1: Error
1507:.\Generated_Source\PSoC5/CyLib.c ****     *
1508:.\Generated_Source\PSoC5/CyLib.c ****     *******************************************************************************/
1509:.\Generated_Source\PSoC5/CyLib.c ****     uint8 CyXTAL_ReadStatus(void) 
1510:.\Generated_Source\PSoC5/CyLib.c ****     {
1511:.\Generated_Source\PSoC5/CyLib.c ****         /***************************************************************************
1512:.\Generated_Source\PSoC5/CyLib.c ****         * High output indicates oscillator failure. Only use this after start-up
1513:.\Generated_Source\PSoC5/CyLib.c ****         * interval is completed. This can be used for status and failure recovery.
1514:.\Generated_Source\PSoC5/CyLib.c ****         ***************************************************************************/
1515:.\Generated_Source\PSoC5/CyLib.c ****         return((0u != (CY_CLK_XMHZ_CSR_REG & CY_CLK_XMHZ_CSR_XERR)) ? 1u : 0u);
1516:.\Generated_Source\PSoC5/CyLib.c ****     }
1517:.\Generated_Source\PSoC5/CyLib.c **** 
1518:.\Generated_Source\PSoC5/CyLib.c **** 
1519:.\Generated_Source\PSoC5/CyLib.c ****     /*******************************************************************************
1520:.\Generated_Source\PSoC5/CyLib.c ****     * Function Name: CyXTAL_EnableFaultRecovery
1521:.\Generated_Source\PSoC5/CyLib.c ****     ********************************************************************************
1522:.\Generated_Source\PSoC5/CyLib.c ****     *
1523:.\Generated_Source\PSoC5/CyLib.c ****     * Summary:
1524:.\Generated_Source\PSoC5/CyLib.c ****     *  Enables the fault recovery circuit which will switch to the IMO in the case
1525:.\Generated_Source\PSoC5/CyLib.c ****     *  of a fault in the megahertz crystal circuit. The crystal must be up and
1526:.\Generated_Source\PSoC5/CyLib.c ****     *  running with the XERR bit at 0, before calling this function to prevent
1527:.\Generated_Source\PSoC5/CyLib.c ****     *  immediate fault switchover. This function is not available for PSoC5.
1528:.\Generated_Source\PSoC5/CyLib.c ****     *
1529:.\Generated_Source\PSoC5/CyLib.c ****     * Parameters:
1530:.\Generated_Source\PSoC5/CyLib.c ****     *  None
1531:.\Generated_Source\PSoC5/CyLib.c ****     *
1532:.\Generated_Source\PSoC5/CyLib.c ****     * Return:
1533:.\Generated_Source\PSoC5/CyLib.c ****     *  None
1534:.\Generated_Source\PSoC5/CyLib.c ****     *
1535:.\Generated_Source\PSoC5/CyLib.c ****     *******************************************************************************/
1536:.\Generated_Source\PSoC5/CyLib.c ****     void CyXTAL_EnableFaultRecovery(void) 
1537:.\Generated_Source\PSoC5/CyLib.c ****     {
1538:.\Generated_Source\PSoC5/CyLib.c ****         CY_CLK_XMHZ_CSR_REG |= CY_CLK_XMHZ_CSR_XPROT;
1539:.\Generated_Source\PSoC5/CyLib.c ****     }
1540:.\Generated_Source\PSoC5/CyLib.c **** 
1541:.\Generated_Source\PSoC5/CyLib.c **** 
1542:.\Generated_Source\PSoC5/CyLib.c ****     /*******************************************************************************
1543:.\Generated_Source\PSoC5/CyLib.c ****     * Function Name: CyXTAL_DisableFaultRecovery
1544:.\Generated_Source\PSoC5/CyLib.c ****     ********************************************************************************
1545:.\Generated_Source\PSoC5/CyLib.c ****     *
1546:.\Generated_Source\PSoC5/CyLib.c ****     * Summary:
1547:.\Generated_Source\PSoC5/CyLib.c ****     *  Disables the fault recovery circuit which will switch to the IMO in the case
1548:.\Generated_Source\PSoC5/CyLib.c ****     *  of a fault in the megahertz crystal circuit. This function is not available
1549:.\Generated_Source\PSoC5/CyLib.c ****     *  for PSoC5.
1550:.\Generated_Source\PSoC5/CyLib.c ****     *
1551:.\Generated_Source\PSoC5/CyLib.c ****     * Parameters:
1552:.\Generated_Source\PSoC5/CyLib.c ****     *  None
1553:.\Generated_Source\PSoC5/CyLib.c ****     *
1554:.\Generated_Source\PSoC5/CyLib.c ****     * Return:
1555:.\Generated_Source\PSoC5/CyLib.c ****     *  None
1556:.\Generated_Source\PSoC5/CyLib.c ****     *
1557:.\Generated_Source\PSoC5/CyLib.c ****     *******************************************************************************/
1558:.\Generated_Source\PSoC5/CyLib.c ****     void CyXTAL_DisableFaultRecovery(void) 
1559:.\Generated_Source\PSoC5/CyLib.c ****     {
ARM GAS  C:\Users\Heiwa\AppData\Local\Temp\ccuYQ69z.s 			page 70


1560:.\Generated_Source\PSoC5/CyLib.c ****         CY_CLK_XMHZ_CSR_REG &= ~CY_CLK_XMHZ_CSR_XPROT;
1561:.\Generated_Source\PSoC5/CyLib.c ****     }
1562:.\Generated_Source\PSoC5/CyLib.c **** 
1563:.\Generated_Source\PSoC5/CyLib.c **** #endif  /* (!CY_PSOC5A) */
1564:.\Generated_Source\PSoC5/CyLib.c **** 
1565:.\Generated_Source\PSoC5/CyLib.c **** /*******************************************************************************
1566:.\Generated_Source\PSoC5/CyLib.c **** * Function Name: CyXTAL_SetStartup
1567:.\Generated_Source\PSoC5/CyLib.c **** ********************************************************************************
1568:.\Generated_Source\PSoC5/CyLib.c **** *
1569:.\Generated_Source\PSoC5/CyLib.c **** * Summary:
1570:.\Generated_Source\PSoC5/CyLib.c **** *  Sets the startup settings for the crystal. Logic model outputs a frequency
1571:.\Generated_Source\PSoC5/CyLib.c **** *  (setting + 4) MHz when enabled.
1572:.\Generated_Source\PSoC5/CyLib.c **** *
1573:.\Generated_Source\PSoC5/CyLib.c **** *  This is artificial as the actual frequency is determined by an attached
1574:.\Generated_Source\PSoC5/CyLib.c **** *  external crystal.
1575:.\Generated_Source\PSoC5/CyLib.c **** *
1576:.\Generated_Source\PSoC5/CyLib.c **** * Parameters:
1577:.\Generated_Source\PSoC5/CyLib.c **** *  setting: Valid range [0-31].
1578:.\Generated_Source\PSoC5/CyLib.c **** *   Value is dependent on the frequency and quality of the crystal being used.
1579:.\Generated_Source\PSoC5/CyLib.c **** *   Refer to the device TRM and datasheet for more information.
1580:.\Generated_Source\PSoC5/CyLib.c **** *
1581:.\Generated_Source\PSoC5/CyLib.c **** * Return:
1582:.\Generated_Source\PSoC5/CyLib.c **** *  None
1583:.\Generated_Source\PSoC5/CyLib.c **** *
1584:.\Generated_Source\PSoC5/CyLib.c **** *******************************************************************************/
1585:.\Generated_Source\PSoC5/CyLib.c **** void CyXTAL_SetStartup(uint8 setting) 
1586:.\Generated_Source\PSoC5/CyLib.c **** {
 2371              		.loc 1 1586 0
 2372              		.cfi_startproc
 2373              		@ args = 0, pretend = 0, frame = 8
 2374              		@ frame_needed = 1, uses_anonymous_args = 0
 2375              		@ link register save eliminated.
 2376 0000 80B4     		push	{r7}
 2377              	.LCFI80:
 2378              		.cfi_def_cfa_offset 4
 2379 0002 83B0     		sub	sp, sp, #12
 2380              	.LCFI81:
 2381              		.cfi_def_cfa_offset 16
 2382 0004 00AF     		add	r7, sp, #0
 2383              		.cfi_offset 7, -4
 2384              	.LCFI82:
 2385              		.cfi_def_cfa_register 7
 2386 0006 0346     		mov	r3, r0
 2387 0008 FB71     		strb	r3, [r7, #7]
1587:.\Generated_Source\PSoC5/CyLib.c ****     CY_CLK_XMHZ_CFG0_REG = (CY_CLK_XMHZ_CFG0_REG & ~CY_CLK_XMHZ_CFG0_XCFG_MASK) |
 2388              		.loc 1 1587 0
 2389 000a 44F21223 		movw	r3, #:lower16:1073758738
 2390 000e C4F20003 		movt	r3, #:upper16:1073758738
 2391 0012 44F21222 		movw	r2, #:lower16:1073758738
 2392 0016 C4F20002 		movt	r2, #:upper16:1073758738
 2393 001a 1278     		ldrb	r2, [r2, #0]
 2394 001c D2B2     		uxtb	r2, r2
 2395 001e 1146     		mov	r1, r2
 2396 0020 01F0E001 		and	r1, r1, #224
 2397 0024 FA79     		ldrb	r2, [r7, #7]	@ zero_extendqisi2
 2398 0026 02F01F02 		and	r2, r2, #31
 2399 002a 41EA0202 		orr	r2, r1, r2
ARM GAS  C:\Users\Heiwa\AppData\Local\Temp\ccuYQ69z.s 			page 71


 2400 002e D2B2     		uxtb	r2, r2
 2401 0030 1A70     		strb	r2, [r3, #0]
1588:.\Generated_Source\PSoC5/CyLib.c ****                            (setting & CY_CLK_XMHZ_CFG0_XCFG_MASK);
1589:.\Generated_Source\PSoC5/CyLib.c **** }
 2402              		.loc 1 1589 0
 2403 0032 07F10C07 		add	r7, r7, #12
 2404 0036 BD46     		mov	sp, r7
 2405 0038 80BC     		pop	{r7}
 2406 003a 7047     		bx	lr
 2407              		.cfi_endproc
 2408              	.LFE31:
 2409              		.size	CyXTAL_SetStartup, .-CyXTAL_SetStartup
 2410              		.section	.text.CyHalt,"ax",%progbits
 2411              		.align	2
 2412              		.global	CyHalt
 2413              		.thumb
 2414              		.thumb_func
 2415              		.type	CyHalt, %function
 2416              	CyHalt:
 2417              	.LFB32:
1590:.\Generated_Source\PSoC5/CyLib.c **** 
1591:.\Generated_Source\PSoC5/CyLib.c **** 
1592:.\Generated_Source\PSoC5/CyLib.c **** #if(CY_PSOC3 || CY_PSOC5LP)
1593:.\Generated_Source\PSoC5/CyLib.c ****     /*******************************************************************************
1594:.\Generated_Source\PSoC5/CyLib.c ****     * Function Name: CyXTAL_SetFbVoltage
1595:.\Generated_Source\PSoC5/CyLib.c ****     ********************************************************************************
1596:.\Generated_Source\PSoC5/CyLib.c ****     *
1597:.\Generated_Source\PSoC5/CyLib.c ****     * Summary:
1598:.\Generated_Source\PSoC5/CyLib.c ****     *  Sets the feedback reference voltage to use for the crystal circuit.
1599:.\Generated_Source\PSoC5/CyLib.c ****     *  This function is only available for PSoC3 and PSoC 5LP.
1600:.\Generated_Source\PSoC5/CyLib.c ****     *
1601:.\Generated_Source\PSoC5/CyLib.c ****     * Parameters:
1602:.\Generated_Source\PSoC5/CyLib.c ****     *  setting: Valid range [0-15].
1603:.\Generated_Source\PSoC5/CyLib.c ****     *  Refer to the device TRM and datasheet for more information.
1604:.\Generated_Source\PSoC5/CyLib.c ****     *
1605:.\Generated_Source\PSoC5/CyLib.c ****     * Return:
1606:.\Generated_Source\PSoC5/CyLib.c ****     *  None
1607:.\Generated_Source\PSoC5/CyLib.c ****     *
1608:.\Generated_Source\PSoC5/CyLib.c ****     *******************************************************************************/
1609:.\Generated_Source\PSoC5/CyLib.c ****     void CyXTAL_SetFbVoltage(uint8 setting) 
1610:.\Generated_Source\PSoC5/CyLib.c ****     {
1611:.\Generated_Source\PSoC5/CyLib.c ****         CY_CLK_XMHZ_CFG1_REG = ((CY_CLK_XMHZ_CFG1_REG & ~CY_CLK_XMHZ_CFG1_VREF_FB_MASK) |
1612:.\Generated_Source\PSoC5/CyLib.c ****                                 (setting & CY_CLK_XMHZ_CFG1_VREF_FB_MASK));
1613:.\Generated_Source\PSoC5/CyLib.c ****     }
1614:.\Generated_Source\PSoC5/CyLib.c **** 
1615:.\Generated_Source\PSoC5/CyLib.c **** 
1616:.\Generated_Source\PSoC5/CyLib.c ****     /*******************************************************************************
1617:.\Generated_Source\PSoC5/CyLib.c ****     * Function Name: CyXTAL_SetWdVoltage
1618:.\Generated_Source\PSoC5/CyLib.c ****     ********************************************************************************
1619:.\Generated_Source\PSoC5/CyLib.c ****     *
1620:.\Generated_Source\PSoC5/CyLib.c ****     * Summary:
1621:.\Generated_Source\PSoC5/CyLib.c ****     *  Sets the reference voltage used by the watchdog to detect a failure in the
1622:.\Generated_Source\PSoC5/CyLib.c ****     *  crystal circuit. This function is only available for PSoC3 and PSoC 5LP.
1623:.\Generated_Source\PSoC5/CyLib.c ****     *
1624:.\Generated_Source\PSoC5/CyLib.c ****     * Parameters:
1625:.\Generated_Source\PSoC5/CyLib.c ****     *  setting: Valid range [0-7].
1626:.\Generated_Source\PSoC5/CyLib.c ****     *  Refer to the device TRM and datasheet for more information.
ARM GAS  C:\Users\Heiwa\AppData\Local\Temp\ccuYQ69z.s 			page 72


1627:.\Generated_Source\PSoC5/CyLib.c ****     *
1628:.\Generated_Source\PSoC5/CyLib.c ****     * Return:
1629:.\Generated_Source\PSoC5/CyLib.c ****     *  None
1630:.\Generated_Source\PSoC5/CyLib.c ****     *
1631:.\Generated_Source\PSoC5/CyLib.c ****     *******************************************************************************/
1632:.\Generated_Source\PSoC5/CyLib.c ****     void CyXTAL_SetWdVoltage(uint8 setting) 
1633:.\Generated_Source\PSoC5/CyLib.c ****     {
1634:.\Generated_Source\PSoC5/CyLib.c ****         CY_CLK_XMHZ_CFG1_REG = ((CY_CLK_XMHZ_CFG1_REG & ~CY_CLK_XMHZ_CFG1_VREF_WD_MASK) |
1635:.\Generated_Source\PSoC5/CyLib.c ****                                 ((setting << 4) & CY_CLK_XMHZ_CFG1_VREF_WD_MASK));
1636:.\Generated_Source\PSoC5/CyLib.c ****     }
1637:.\Generated_Source\PSoC5/CyLib.c **** 
1638:.\Generated_Source\PSoC5/CyLib.c **** #endif /* (CY_PSOC3 || CY_PSOC5LP) */
1639:.\Generated_Source\PSoC5/CyLib.c **** 
1640:.\Generated_Source\PSoC5/CyLib.c **** 
1641:.\Generated_Source\PSoC5/CyLib.c **** /*******************************************************************************
1642:.\Generated_Source\PSoC5/CyLib.c **** * Function Name: CyHalt
1643:.\Generated_Source\PSoC5/CyLib.c **** ********************************************************************************
1644:.\Generated_Source\PSoC5/CyLib.c **** *
1645:.\Generated_Source\PSoC5/CyLib.c **** * Summary:
1646:.\Generated_Source\PSoC5/CyLib.c **** *  Halts the CPU.
1647:.\Generated_Source\PSoC5/CyLib.c **** *
1648:.\Generated_Source\PSoC5/CyLib.c **** * Parameters:
1649:.\Generated_Source\PSoC5/CyLib.c **** *  uint8 reason: Value to be used during debugging.
1650:.\Generated_Source\PSoC5/CyLib.c **** *
1651:.\Generated_Source\PSoC5/CyLib.c **** * Return:
1652:.\Generated_Source\PSoC5/CyLib.c **** *  None
1653:.\Generated_Source\PSoC5/CyLib.c **** *
1654:.\Generated_Source\PSoC5/CyLib.c **** *******************************************************************************/
1655:.\Generated_Source\PSoC5/CyLib.c **** void CyHalt(uint8 reason) CYREENTRANT
1656:.\Generated_Source\PSoC5/CyLib.c **** {
 2418              		.loc 1 1656 0
 2419              		.cfi_startproc
 2420              		@ args = 0, pretend = 0, frame = 8
 2421              		@ frame_needed = 1, uses_anonymous_args = 0
 2422              		@ link register save eliminated.
 2423 0000 80B4     		push	{r7}
 2424              	.LCFI83:
 2425              		.cfi_def_cfa_offset 4
 2426 0002 83B0     		sub	sp, sp, #12
 2427              	.LCFI84:
 2428              		.cfi_def_cfa_offset 16
 2429 0004 00AF     		add	r7, sp, #0
 2430              		.cfi_offset 7, -4
 2431              	.LCFI85:
 2432              		.cfi_def_cfa_register 7
 2433 0006 0346     		mov	r3, r0
 2434 0008 FB71     		strb	r3, [r7, #7]
1657:.\Generated_Source\PSoC5/CyLib.c ****     reason = reason;
1658:.\Generated_Source\PSoC5/CyLib.c **** 
1659:.\Generated_Source\PSoC5/CyLib.c ****     #if defined (__ARMCC_VERSION)
1660:.\Generated_Source\PSoC5/CyLib.c ****         __breakpoint(0x0);
1661:.\Generated_Source\PSoC5/CyLib.c ****     #elif defined(__GNUC__)
1662:.\Generated_Source\PSoC5/CyLib.c ****         __asm("    bkpt    1");
 2435              		.loc 1 1662 0
 2436              	@ 1662 ".\Generated_Source\PSoC5\CyLib.c" 1
 2437 000a 01BE     		    bkpt    1
 2438              	@ 0 "" 2
ARM GAS  C:\Users\Heiwa\AppData\Local\Temp\ccuYQ69z.s 			page 73


1663:.\Generated_Source\PSoC5/CyLib.c ****     #elif defined(__C51__)
1664:.\Generated_Source\PSoC5/CyLib.c ****         CYDEV_HALT_CPU;
1665:.\Generated_Source\PSoC5/CyLib.c ****     #endif  /* (__ARMCC_VERSION) */
1666:.\Generated_Source\PSoC5/CyLib.c **** }
 2439              		.loc 1 1666 0
 2440              		.thumb
 2441 000c 07F10C07 		add	r7, r7, #12
 2442 0010 BD46     		mov	sp, r7
 2443 0012 80BC     		pop	{r7}
 2444 0014 7047     		bx	lr
 2445              		.cfi_endproc
 2446              	.LFE32:
 2447              		.size	CyHalt, .-CyHalt
 2448 0016 00BF     		.section	.text.CySoftwareReset,"ax",%progbits
 2449              		.align	2
 2450              		.global	CySoftwareReset
 2451              		.thumb
 2452              		.thumb_func
 2453              		.type	CySoftwareReset, %function
 2454              	CySoftwareReset:
 2455              	.LFB33:
1667:.\Generated_Source\PSoC5/CyLib.c **** 
1668:.\Generated_Source\PSoC5/CyLib.c **** 
1669:.\Generated_Source\PSoC5/CyLib.c **** /*******************************************************************************
1670:.\Generated_Source\PSoC5/CyLib.c **** * Function Name: CySoftwareReset
1671:.\Generated_Source\PSoC5/CyLib.c **** ********************************************************************************
1672:.\Generated_Source\PSoC5/CyLib.c **** *
1673:.\Generated_Source\PSoC5/CyLib.c **** * Summary:
1674:.\Generated_Source\PSoC5/CyLib.c **** *  Forces a software reset of the device.
1675:.\Generated_Source\PSoC5/CyLib.c **** *
1676:.\Generated_Source\PSoC5/CyLib.c **** * Parameters:
1677:.\Generated_Source\PSoC5/CyLib.c **** *  None
1678:.\Generated_Source\PSoC5/CyLib.c **** *
1679:.\Generated_Source\PSoC5/CyLib.c **** * Return:
1680:.\Generated_Source\PSoC5/CyLib.c **** *  None
1681:.\Generated_Source\PSoC5/CyLib.c **** *
1682:.\Generated_Source\PSoC5/CyLib.c **** *******************************************************************************/
1683:.\Generated_Source\PSoC5/CyLib.c **** void CySoftwareReset(void) 
1684:.\Generated_Source\PSoC5/CyLib.c **** {
 2456              		.loc 1 1684 0
 2457              		.cfi_startproc
 2458              		@ args = 0, pretend = 0, frame = 0
 2459              		@ frame_needed = 1, uses_anonymous_args = 0
 2460              		@ link register save eliminated.
 2461 0000 80B4     		push	{r7}
 2462              	.LCFI86:
 2463              		.cfi_def_cfa_offset 4
 2464 0002 00AF     		add	r7, sp, #0
 2465              		.cfi_offset 7, -4
 2466              	.LCFI87:
 2467              		.cfi_def_cfa_register 7
1685:.\Generated_Source\PSoC5/CyLib.c ****     /* Perform software reset */
1686:.\Generated_Source\PSoC5/CyLib.c ****     *RESET_CR2 = 0x1;
 2468              		.loc 1 1686 0
 2469 0004 44F2F663 		movw	r3, #:lower16:1073759990
 2470 0008 C4F20003 		movt	r3, #:upper16:1073759990
 2471 000c 4FF00102 		mov	r2, #1
ARM GAS  C:\Users\Heiwa\AppData\Local\Temp\ccuYQ69z.s 			page 74


 2472 0010 1A70     		strb	r2, [r3, #0]
1687:.\Generated_Source\PSoC5/CyLib.c **** }
 2473              		.loc 1 1687 0
 2474 0012 BD46     		mov	sp, r7
 2475 0014 80BC     		pop	{r7}
 2476 0016 7047     		bx	lr
 2477              		.cfi_endproc
 2478              	.LFE33:
 2479              		.size	CySoftwareReset, .-CySoftwareReset
 2480              		.section	.text.CyDelay,"ax",%progbits
 2481              		.align	2
 2482              		.global	CyDelay
 2483              		.thumb
 2484              		.thumb_func
 2485              		.type	CyDelay, %function
 2486              	CyDelay:
 2487              	.LFB34:
1688:.\Generated_Source\PSoC5/CyLib.c **** 
1689:.\Generated_Source\PSoC5/CyLib.c **** 
1690:.\Generated_Source\PSoC5/CyLib.c **** /*******************************************************************************
1691:.\Generated_Source\PSoC5/CyLib.c **** * Function Name: CyDelay
1692:.\Generated_Source\PSoC5/CyLib.c **** ********************************************************************************
1693:.\Generated_Source\PSoC5/CyLib.c **** *
1694:.\Generated_Source\PSoC5/CyLib.c **** * Summary:
1695:.\Generated_Source\PSoC5/CyLib.c **** *  Blocks for milliseconds.
1696:.\Generated_Source\PSoC5/CyLib.c **** *
1697:.\Generated_Source\PSoC5/CyLib.c **** *  Note:
1698:.\Generated_Source\PSoC5/CyLib.c **** *  CyDelay has been implemented with the instruction cache assumed enabled. When
1699:.\Generated_Source\PSoC5/CyLib.c **** *  instruction cache is disabled on PSoC5, CyDelay will be two times larger. For
1700:.\Generated_Source\PSoC5/CyLib.c **** *  example, with instruction cache disabled CyDelay(100) would result in about
1701:.\Generated_Source\PSoC5/CyLib.c **** *  200 ms delay instead of 100 ms.
1702:.\Generated_Source\PSoC5/CyLib.c **** *
1703:.\Generated_Source\PSoC5/CyLib.c **** * Parameters:
1704:.\Generated_Source\PSoC5/CyLib.c **** *  milliseconds: number of milliseconds to delay.
1705:.\Generated_Source\PSoC5/CyLib.c **** *
1706:.\Generated_Source\PSoC5/CyLib.c **** * Return:
1707:.\Generated_Source\PSoC5/CyLib.c **** *   None
1708:.\Generated_Source\PSoC5/CyLib.c **** *
1709:.\Generated_Source\PSoC5/CyLib.c **** *******************************************************************************/
1710:.\Generated_Source\PSoC5/CyLib.c **** void CyDelay(uint32 milliseconds) CYREENTRANT
1711:.\Generated_Source\PSoC5/CyLib.c **** {
 2488              		.loc 1 1711 0
 2489              		.cfi_startproc
 2490              		@ args = 0, pretend = 0, frame = 8
 2491              		@ frame_needed = 1, uses_anonymous_args = 0
 2492 0000 80B5     		push	{r7, lr}
 2493              	.LCFI88:
 2494              		.cfi_def_cfa_offset 8
 2495 0002 82B0     		sub	sp, sp, #8
 2496              	.LCFI89:
 2497              		.cfi_def_cfa_offset 16
 2498 0004 00AF     		add	r7, sp, #0
 2499              		.cfi_offset 14, -4
 2500              		.cfi_offset 7, -8
 2501              	.LCFI90:
 2502              		.cfi_def_cfa_register 7
 2503 0006 7860     		str	r0, [r7, #4]
ARM GAS  C:\Users\Heiwa\AppData\Local\Temp\ccuYQ69z.s 			page 75


1712:.\Generated_Source\PSoC5/CyLib.c ****     while (milliseconds > 32768)
 2504              		.loc 1 1712 0
 2505 0008 0BE0     		b	.L161
 2506              	.L162:
1713:.\Generated_Source\PSoC5/CyLib.c ****     {
1714:.\Generated_Source\PSoC5/CyLib.c ****         /***********************************************************************
1715:.\Generated_Source\PSoC5/CyLib.c ****         * This loop prevents overflow.At 100MHz, milliseconds * delay_freq_khz
1716:.\Generated_Source\PSoC5/CyLib.c ****         * overflows at about 42 seconds.
1717:.\Generated_Source\PSoC5/CyLib.c ****         ***********************************************************************/
1718:.\Generated_Source\PSoC5/CyLib.c ****         CyDelayCycles(cydelay_32k_ms);
 2507              		.loc 1 1718 0
 2508 000a 40F20003 		movw	r3, #:lower16:cydelay_32k_ms
 2509 000e C0F20003 		movt	r3, #:upper16:cydelay_32k_ms
 2510 0012 1B68     		ldr	r3, [r3, #0]
 2511 0014 1846     		mov	r0, r3
 2512 0016 FFF7FEFF 		bl	CyDelayCycles
1719:.\Generated_Source\PSoC5/CyLib.c ****         milliseconds -= 32768;
 2513              		.loc 1 1719 0
 2514 001a 7B68     		ldr	r3, [r7, #4]
 2515 001c A3F50043 		sub	r3, r3, #32768
 2516 0020 7B60     		str	r3, [r7, #4]
 2517              	.L161:
 2518              		.loc 1 1712 0
 2519 0022 7B68     		ldr	r3, [r7, #4]
 2520 0024 B3F5004F 		cmp	r3, #32768
 2521 0028 EFD8     		bhi	.L162
1720:.\Generated_Source\PSoC5/CyLib.c ****     }
1721:.\Generated_Source\PSoC5/CyLib.c **** 
1722:.\Generated_Source\PSoC5/CyLib.c ****     CyDelayCycles(milliseconds * cydelay_freq_khz);
 2522              		.loc 1 1722 0
 2523 002a 40F20003 		movw	r3, #:lower16:cydelay_freq_khz
 2524 002e C0F20003 		movt	r3, #:upper16:cydelay_freq_khz
 2525 0032 1B68     		ldr	r3, [r3, #0]
 2526 0034 7A68     		ldr	r2, [r7, #4]
 2527 0036 02FB03F3 		mul	r3, r2, r3
 2528 003a 1846     		mov	r0, r3
 2529 003c FFF7FEFF 		bl	CyDelayCycles
1723:.\Generated_Source\PSoC5/CyLib.c **** }
 2530              		.loc 1 1723 0
 2531 0040 07F10807 		add	r7, r7, #8
 2532 0044 BD46     		mov	sp, r7
 2533 0046 80BD     		pop	{r7, pc}
 2534              		.cfi_endproc
 2535              	.LFE34:
 2536              		.size	CyDelay, .-CyDelay
 2537              		.section	.text.CyDelayUs,"ax",%progbits
 2538              		.align	2
 2539              		.global	CyDelayUs
 2540              		.thumb
 2541              		.thumb_func
 2542              		.type	CyDelayUs, %function
 2543              	CyDelayUs:
 2544              	.LFB35:
1724:.\Generated_Source\PSoC5/CyLib.c **** 
1725:.\Generated_Source\PSoC5/CyLib.c **** 
1726:.\Generated_Source\PSoC5/CyLib.c **** #if(!CY_PSOC3)
1727:.\Generated_Source\PSoC5/CyLib.c **** 
ARM GAS  C:\Users\Heiwa\AppData\Local\Temp\ccuYQ69z.s 			page 76


1728:.\Generated_Source\PSoC5/CyLib.c ****     /* For PSoC3 devices function is defined in CyBootAsmKeil.a51 file */
1729:.\Generated_Source\PSoC5/CyLib.c **** 
1730:.\Generated_Source\PSoC5/CyLib.c ****     /*******************************************************************************
1731:.\Generated_Source\PSoC5/CyLib.c ****     * Function Name: CyDelayUs
1732:.\Generated_Source\PSoC5/CyLib.c ****     ********************************************************************************
1733:.\Generated_Source\PSoC5/CyLib.c ****     *
1734:.\Generated_Source\PSoC5/CyLib.c ****     * Summary:
1735:.\Generated_Source\PSoC5/CyLib.c ****     *  Blocks for microseconds.
1736:.\Generated_Source\PSoC5/CyLib.c ****     *
1737:.\Generated_Source\PSoC5/CyLib.c ****     *  Note:
1738:.\Generated_Source\PSoC5/CyLib.c ****     *   CyDelay has been implemented with the instruction cache assumed enabled.
1739:.\Generated_Source\PSoC5/CyLib.c ****     *   When instruction cache is disabled on PSoC5, CyDelayUs will be two times
1740:.\Generated_Source\PSoC5/CyLib.c ****     *   larger. Ex: With instruction cache disabled CyDelayUs(100) would result
1741:.\Generated_Source\PSoC5/CyLib.c ****     *   in about 200us delay instead of 100us.
1742:.\Generated_Source\PSoC5/CyLib.c ****     *
1743:.\Generated_Source\PSoC5/CyLib.c ****     * Parameters:
1744:.\Generated_Source\PSoC5/CyLib.c ****     *  uint16 microseconds: number of microseconds to delay.
1745:.\Generated_Source\PSoC5/CyLib.c ****     *
1746:.\Generated_Source\PSoC5/CyLib.c ****     * Return:
1747:.\Generated_Source\PSoC5/CyLib.c ****     *  None
1748:.\Generated_Source\PSoC5/CyLib.c ****     *
1749:.\Generated_Source\PSoC5/CyLib.c ****     * Side Effects:
1750:.\Generated_Source\PSoC5/CyLib.c ****     *  CyDelayUS has been implemented with the instruction cache assumed enabled.
1751:.\Generated_Source\PSoC5/CyLib.c ****     *  When instruction cache is disabled on PSoC 5, CyDelayUs will be two times
1752:.\Generated_Source\PSoC5/CyLib.c ****     *  larger. For example, with instruction cache disabled CyDelayUs(100) would
1753:.\Generated_Source\PSoC5/CyLib.c ****     *  result in about 200 us delay instead of 100 us.
1754:.\Generated_Source\PSoC5/CyLib.c ****     *
1755:.\Generated_Source\PSoC5/CyLib.c ****     *  If the bus clock frequency is a small non-integer number, the actual delay
1756:.\Generated_Source\PSoC5/CyLib.c ****     *  can be up to twice as long as the nominal value. The actual delay cannot be
1757:.\Generated_Source\PSoC5/CyLib.c ****     *  shorter than the nominal one.
1758:.\Generated_Source\PSoC5/CyLib.c ****     *******************************************************************************/
1759:.\Generated_Source\PSoC5/CyLib.c ****     void CyDelayUs(uint16 microseconds) CYREENTRANT
1760:.\Generated_Source\PSoC5/CyLib.c ****     {
 2545              		.loc 1 1760 0
 2546              		.cfi_startproc
 2547              		@ args = 0, pretend = 0, frame = 8
 2548              		@ frame_needed = 1, uses_anonymous_args = 0
 2549 0000 80B5     		push	{r7, lr}
 2550              	.LCFI91:
 2551              		.cfi_def_cfa_offset 8
 2552 0002 82B0     		sub	sp, sp, #8
 2553              	.LCFI92:
 2554              		.cfi_def_cfa_offset 16
 2555 0004 00AF     		add	r7, sp, #0
 2556              		.cfi_offset 14, -4
 2557              		.cfi_offset 7, -8
 2558              	.LCFI93:
 2559              		.cfi_def_cfa_register 7
 2560 0006 0346     		mov	r3, r0
 2561 0008 FB80     		strh	r3, [r7, #6]	@ movhi
1761:.\Generated_Source\PSoC5/CyLib.c ****         CyDelayCycles((uint32)microseconds * cydelay_freq_mhz);
 2562              		.loc 1 1761 0
 2563 000a FA88     		ldrh	r2, [r7, #6]
 2564 000c 40F20003 		movw	r3, #:lower16:cydelay_freq_mhz
 2565 0010 C0F20003 		movt	r3, #:upper16:cydelay_freq_mhz
 2566 0014 1B78     		ldrb	r3, [r3, #0]	@ zero_extendqisi2
 2567 0016 03FB02F3 		mul	r3, r3, r2
ARM GAS  C:\Users\Heiwa\AppData\Local\Temp\ccuYQ69z.s 			page 77


 2568 001a 1846     		mov	r0, r3
 2569 001c FFF7FEFF 		bl	CyDelayCycles
1762:.\Generated_Source\PSoC5/CyLib.c ****     }
 2570              		.loc 1 1762 0
 2571 0020 07F10807 		add	r7, r7, #8
 2572 0024 BD46     		mov	sp, r7
 2573 0026 80BD     		pop	{r7, pc}
 2574              		.cfi_endproc
 2575              	.LFE35:
 2576              		.size	CyDelayUs, .-CyDelayUs
 2577              		.section	.text.CyDelayFreq,"ax",%progbits
 2578              		.align	2
 2579              		.global	CyDelayFreq
 2580              		.thumb
 2581              		.thumb_func
 2582              		.type	CyDelayFreq, %function
 2583              	CyDelayFreq:
 2584              	.LFB36:
1763:.\Generated_Source\PSoC5/CyLib.c **** 
1764:.\Generated_Source\PSoC5/CyLib.c **** #endif  /* (!CY_PSOC3) */
1765:.\Generated_Source\PSoC5/CyLib.c **** 
1766:.\Generated_Source\PSoC5/CyLib.c **** 
1767:.\Generated_Source\PSoC5/CyLib.c **** /*******************************************************************************
1768:.\Generated_Source\PSoC5/CyLib.c **** * Function Name: CyDelayFreq
1769:.\Generated_Source\PSoC5/CyLib.c **** ********************************************************************************
1770:.\Generated_Source\PSoC5/CyLib.c **** *
1771:.\Generated_Source\PSoC5/CyLib.c **** * Summary:
1772:.\Generated_Source\PSoC5/CyLib.c **** *  Sets clock frequency for CyDelay.
1773:.\Generated_Source\PSoC5/CyLib.c **** *
1774:.\Generated_Source\PSoC5/CyLib.c **** * Parameters:
1775:.\Generated_Source\PSoC5/CyLib.c **** *  freq: Frequency of bus clock in Hertz.
1776:.\Generated_Source\PSoC5/CyLib.c **** *
1777:.\Generated_Source\PSoC5/CyLib.c **** * Return:
1778:.\Generated_Source\PSoC5/CyLib.c **** *  None
1779:.\Generated_Source\PSoC5/CyLib.c **** *
1780:.\Generated_Source\PSoC5/CyLib.c **** *******************************************************************************/
1781:.\Generated_Source\PSoC5/CyLib.c **** void CyDelayFreq(uint32 freq) CYREENTRANT
1782:.\Generated_Source\PSoC5/CyLib.c **** {
 2585              		.loc 1 1782 0
 2586              		.cfi_startproc
 2587              		@ args = 0, pretend = 0, frame = 8
 2588              		@ frame_needed = 1, uses_anonymous_args = 0
 2589              		@ link register save eliminated.
 2590 0000 80B4     		push	{r7}
 2591              	.LCFI94:
 2592              		.cfi_def_cfa_offset 4
 2593 0002 83B0     		sub	sp, sp, #12
 2594              	.LCFI95:
 2595              		.cfi_def_cfa_offset 16
 2596 0004 00AF     		add	r7, sp, #0
 2597              		.cfi_offset 7, -4
 2598              	.LCFI96:
 2599              		.cfi_def_cfa_register 7
 2600 0006 7860     		str	r0, [r7, #4]
1783:.\Generated_Source\PSoC5/CyLib.c ****     if (freq != 0u)
 2601              		.loc 1 1783 0
 2602 0008 7B68     		ldr	r3, [r7, #4]
ARM GAS  C:\Users\Heiwa\AppData\Local\Temp\ccuYQ69z.s 			page 78


 2603 000a 002B     		cmp	r3, #0
 2604 000c 06D0     		beq	.L167
1784:.\Generated_Source\PSoC5/CyLib.c ****     {
1785:.\Generated_Source\PSoC5/CyLib.c ****         cydelay_freq_hz = freq;
 2605              		.loc 1 1785 0
 2606 000e 40F20003 		movw	r3, #:lower16:cydelay_freq_hz
 2607 0012 C0F20003 		movt	r3, #:upper16:cydelay_freq_hz
 2608 0016 7A68     		ldr	r2, [r7, #4]
 2609 0018 1A60     		str	r2, [r3, #0]
 2610 001a 08E0     		b	.L168
 2611              	.L167:
1786:.\Generated_Source\PSoC5/CyLib.c ****     }
1787:.\Generated_Source\PSoC5/CyLib.c ****     else
1788:.\Generated_Source\PSoC5/CyLib.c ****     {
1789:.\Generated_Source\PSoC5/CyLib.c ****         cydelay_freq_hz = BCLK__BUS_CLK__HZ;
 2612              		.loc 1 1789 0
 2613 001c 40F20003 		movw	r3, #:lower16:cydelay_freq_hz
 2614 0020 C0F20003 		movt	r3, #:upper16:cydelay_freq_hz
 2615 0024 43F20062 		movw	r2, #:lower16:24000000
 2616 0028 C0F26E12 		movt	r2, #:upper16:24000000
 2617 002c 1A60     		str	r2, [r3, #0]
 2618              	.L168:
1790:.\Generated_Source\PSoC5/CyLib.c ****     }
1791:.\Generated_Source\PSoC5/CyLib.c **** 
1792:.\Generated_Source\PSoC5/CyLib.c ****     cydelay_freq_mhz = (uint8)((cydelay_freq_hz + 999999u) / 1000000u);
 2619              		.loc 1 1792 0
 2620 002e 40F20003 		movw	r3, #:lower16:cydelay_freq_hz
 2621 0032 C0F20003 		movt	r3, #:upper16:cydelay_freq_hz
 2622 0036 1A68     		ldr	r2, [r3, #0]
 2623 0038 44F23F23 		movw	r3, #:lower16:999999
 2624 003c C0F20F03 		movt	r3, #:upper16:999999
 2625 0040 1344     		add	r3, r2, r3
 2626 0042 4DF68362 		movw	r2, #:lower16:1125899907
 2627 0046 C4F21B32 		movt	r2, #:upper16:1125899907
 2628 004a A2FB0313 		umull	r1, r3, r2, r3
 2629 004e 4FEA9343 		lsr	r3, r3, #18
 2630 0052 DAB2     		uxtb	r2, r3
 2631 0054 40F20003 		movw	r3, #:lower16:cydelay_freq_mhz
 2632 0058 C0F20003 		movt	r3, #:upper16:cydelay_freq_mhz
 2633 005c 1A70     		strb	r2, [r3, #0]
1793:.\Generated_Source\PSoC5/CyLib.c ****     cydelay_freq_khz = (cydelay_freq_hz + 999u) / 1000u;
 2634              		.loc 1 1793 0
 2635 005e 40F20003 		movw	r3, #:lower16:cydelay_freq_hz
 2636 0062 C0F20003 		movt	r3, #:upper16:cydelay_freq_hz
 2637 0066 1B68     		ldr	r3, [r3, #0]
 2638 0068 03F57872 		add	r2, r3, #992
 2639 006c 02F10702 		add	r2, r2, #7
 2640 0070 44F6D353 		movw	r3, #:lower16:274877907
 2641 0074 C1F26203 		movt	r3, #:upper16:274877907
 2642 0078 A3FB0213 		umull	r1, r3, r3, r2
 2643 007c 4FEA9312 		lsr	r2, r3, #6
 2644 0080 40F20003 		movw	r3, #:lower16:cydelay_freq_khz
 2645 0084 C0F20003 		movt	r3, #:upper16:cydelay_freq_khz
 2646 0088 1A60     		str	r2, [r3, #0]
1794:.\Generated_Source\PSoC5/CyLib.c ****     cydelay_32k_ms   = 32768 * cydelay_freq_khz;
 2647              		.loc 1 1794 0
 2648 008a 40F20003 		movw	r3, #:lower16:cydelay_freq_khz
ARM GAS  C:\Users\Heiwa\AppData\Local\Temp\ccuYQ69z.s 			page 79


 2649 008e C0F20003 		movt	r3, #:upper16:cydelay_freq_khz
 2650 0092 1B68     		ldr	r3, [r3, #0]
 2651 0094 4FEAC332 		lsl	r2, r3, #15
 2652 0098 40F20003 		movw	r3, #:lower16:cydelay_32k_ms
 2653 009c C0F20003 		movt	r3, #:upper16:cydelay_32k_ms
 2654 00a0 1A60     		str	r2, [r3, #0]
1795:.\Generated_Source\PSoC5/CyLib.c **** }
 2655              		.loc 1 1795 0
 2656 00a2 07F10C07 		add	r7, r7, #12
 2657 00a6 BD46     		mov	sp, r7
 2658 00a8 80BC     		pop	{r7}
 2659 00aa 7047     		bx	lr
 2660              		.cfi_endproc
 2661              	.LFE36:
 2662              		.size	CyDelayFreq, .-CyDelayFreq
 2663              		.section	.text.CyWdtStart,"ax",%progbits
 2664              		.align	2
 2665              		.global	CyWdtStart
 2666              		.thumb
 2667              		.thumb_func
 2668              		.type	CyWdtStart, %function
 2669              	CyWdtStart:
 2670              	.LFB37:
1796:.\Generated_Source\PSoC5/CyLib.c **** 
1797:.\Generated_Source\PSoC5/CyLib.c **** 
1798:.\Generated_Source\PSoC5/CyLib.c **** /*******************************************************************************
1799:.\Generated_Source\PSoC5/CyLib.c **** * Function Name: CyWdtStart
1800:.\Generated_Source\PSoC5/CyLib.c **** ********************************************************************************
1801:.\Generated_Source\PSoC5/CyLib.c **** *
1802:.\Generated_Source\PSoC5/CyLib.c **** * Summary:
1803:.\Generated_Source\PSoC5/CyLib.c **** *  Enables the watchdog timer.
1804:.\Generated_Source\PSoC5/CyLib.c **** *
1805:.\Generated_Source\PSoC5/CyLib.c **** *  The timer is configured for the specified count interval, the central
1806:.\Generated_Source\PSoC5/CyLib.c **** *  timewheel is cleared, the setting for low power mode is configured and the
1807:.\Generated_Source\PSoC5/CyLib.c **** *  watchdog timer is enabled.
1808:.\Generated_Source\PSoC5/CyLib.c **** *
1809:.\Generated_Source\PSoC5/CyLib.c **** *  Once enabled the watchdog cannot be disabled. The watchdog counts each time
1810:.\Generated_Source\PSoC5/CyLib.c **** *  the Central Time Wheel (CTW) reaches the period specified. The watchdog must
1811:.\Generated_Source\PSoC5/CyLib.c **** *  be cleared using the CyWdtClear() function before three ticks of the watchdog
1812:.\Generated_Source\PSoC5/CyLib.c **** *  timer occur. The CTW is free running, so this will occur after between 2 and
1813:.\Generated_Source\PSoC5/CyLib.c **** *  3 timer periods elapse.
1814:.\Generated_Source\PSoC5/CyLib.c **** *
1815:.\Generated_Source\PSoC5/CyLib.c **** *  PSoC5: The watchdog timer should not be used during sleep modes. Since the
1816:.\Generated_Source\PSoC5/CyLib.c **** *  WDT cannot be disabled after it is enabled, the WDT timeout period can be
1817:.\Generated_Source\PSoC5/CyLib.c **** *  set to be greater than the sleep wakeup period, then feed the dog on each
1818:.\Generated_Source\PSoC5/CyLib.c **** *  wakeup from Sleep.
1819:.\Generated_Source\PSoC5/CyLib.c **** *
1820:.\Generated_Source\PSoC5/CyLib.c **** * Parameters:
1821:.\Generated_Source\PSoC5/CyLib.c **** *  ticks: One of the four available timer periods. Once WDT enabled, the
1822:.\Generated_Source\PSoC5/CyLib.c ****    interval cannot be changed.
1823:.\Generated_Source\PSoC5/CyLib.c **** *         CYWDT_2_TICKS     -     4 - 6     ms
1824:.\Generated_Source\PSoC5/CyLib.c **** *         CYWDT_16_TICKS    -    32 - 48    ms
1825:.\Generated_Source\PSoC5/CyLib.c **** *         CYWDT_128_TICKS   -   256 - 384   ms
1826:.\Generated_Source\PSoC5/CyLib.c **** *         CYWDT_1024_TICKS  - 2.048 - 3.072 s
1827:.\Generated_Source\PSoC5/CyLib.c **** *
1828:.\Generated_Source\PSoC5/CyLib.c **** *  lpMode: Low power mode configuration. This parameter is ignored for PSoC 5.
1829:.\Generated_Source\PSoC5/CyLib.c **** *          The WDT always acts as if CYWDT_LPMODE_NOCHANGE is passed.
ARM GAS  C:\Users\Heiwa\AppData\Local\Temp\ccuYQ69z.s 			page 80


1830:.\Generated_Source\PSoC5/CyLib.c **** *
1831:.\Generated_Source\PSoC5/CyLib.c **** *          CYWDT_LPMODE_NOCHANGE - No Change
1832:.\Generated_Source\PSoC5/CyLib.c **** *          CYWDT_LPMODE_MAXINTER - Switch to longest timer mode during low power
1833:.\Generated_Source\PSoC5/CyLib.c **** *                                 mode
1834:.\Generated_Source\PSoC5/CyLib.c **** *          CYWDT_LPMODE_DISABLED - Disable WDT during low power mode
1835:.\Generated_Source\PSoC5/CyLib.c **** *
1836:.\Generated_Source\PSoC5/CyLib.c **** * Return:
1837:.\Generated_Source\PSoC5/CyLib.c **** *  None
1838:.\Generated_Source\PSoC5/CyLib.c **** *
1839:.\Generated_Source\PSoC5/CyLib.c **** * Side Effects:
1840:.\Generated_Source\PSoC5/CyLib.c **** *  PSoC5: The ILO 1 KHz must be enabled for proper WDT operation. Stopping the
1841:.\Generated_Source\PSoC5/CyLib.c **** *  ILO 1 kHz could break the active WDT functionality.
1842:.\Generated_Source\PSoC5/CyLib.c **** *
1843:.\Generated_Source\PSoC5/CyLib.c **** *******************************************************************************/
1844:.\Generated_Source\PSoC5/CyLib.c **** void CyWdtStart(uint8 ticks, uint8 lpMode) 
1845:.\Generated_Source\PSoC5/CyLib.c **** {
 2671              		.loc 1 1845 0
 2672              		.cfi_startproc
 2673              		@ args = 0, pretend = 0, frame = 8
 2674              		@ frame_needed = 1, uses_anonymous_args = 0
 2675 0000 80B5     		push	{r7, lr}
 2676              	.LCFI97:
 2677              		.cfi_def_cfa_offset 8
 2678 0002 82B0     		sub	sp, sp, #8
 2679              	.LCFI98:
 2680              		.cfi_def_cfa_offset 16
 2681 0004 00AF     		add	r7, sp, #0
 2682              		.cfi_offset 14, -4
 2683              		.cfi_offset 7, -8
 2684              	.LCFI99:
 2685              		.cfi_def_cfa_register 7
 2686 0006 0246     		mov	r2, r0
 2687 0008 0B46     		mov	r3, r1
 2688 000a FA71     		strb	r2, [r7, #7]
 2689 000c BB71     		strb	r3, [r7, #6]
1846:.\Generated_Source\PSoC5/CyLib.c ****     #if(CY_PSOC5A)
1847:.\Generated_Source\PSoC5/CyLib.c ****         CyILO_Start1K();
 2690              		.loc 1 1847 0
 2691 000e FFF7FEFF 		bl	CyILO_Start1K
1848:.\Generated_Source\PSoC5/CyLib.c ****     #endif  /* (CY_PSOC5A) */
1849:.\Generated_Source\PSoC5/CyLib.c **** 
1850:.\Generated_Source\PSoC5/CyLib.c ****     /* Set WDT interval */
1851:.\Generated_Source\PSoC5/CyLib.c ****     CY_WDT_CFG_REG = (CY_WDT_CFG_REG & ~CY_WDT_CFG_INTERVAL_MASK) | (ticks & CY_WDT_CFG_INTERVAL_MA
 2692              		.loc 1 1851 0
 2693 0012 44F28333 		movw	r3, #:lower16:1073759107
 2694 0016 C4F20003 		movt	r3, #:upper16:1073759107
 2695 001a 44F28332 		movw	r2, #:lower16:1073759107
 2696 001e C4F20002 		movt	r2, #:upper16:1073759107
 2697 0022 1278     		ldrb	r2, [r2, #0]
 2698 0024 D2B2     		uxtb	r2, r2
 2699 0026 1146     		mov	r1, r2
 2700 0028 01F0FC01 		and	r1, r1, #252
 2701 002c FA79     		ldrb	r2, [r7, #7]	@ zero_extendqisi2
 2702 002e 02F00302 		and	r2, r2, #3
 2703 0032 41EA0202 		orr	r2, r1, r2
 2704 0036 D2B2     		uxtb	r2, r2
 2705 0038 1A70     		strb	r2, [r3, #0]
ARM GAS  C:\Users\Heiwa\AppData\Local\Temp\ccuYQ69z.s 			page 81


1852:.\Generated_Source\PSoC5/CyLib.c **** 
1853:.\Generated_Source\PSoC5/CyLib.c ****     /* Reset CTW to ensure that first watchdog period is full */
1854:.\Generated_Source\PSoC5/CyLib.c ****     CY_WDT_CFG_REG |= CY_WDT_CFG_CTW_RESET;
 2706              		.loc 1 1854 0
 2707 003a 44F28333 		movw	r3, #:lower16:1073759107
 2708 003e C4F20003 		movt	r3, #:upper16:1073759107
 2709 0042 44F28332 		movw	r2, #:lower16:1073759107
 2710 0046 C4F20002 		movt	r2, #:upper16:1073759107
 2711 004a 1278     		ldrb	r2, [r2, #0]
 2712 004c D2B2     		uxtb	r2, r2
 2713 004e 6FEA4262 		mvn	r2, r2, lsl #25
 2714 0052 6FEA5262 		mvn	r2, r2, lsr #25
 2715 0056 D2B2     		uxtb	r2, r2
 2716 0058 1A70     		strb	r2, [r3, #0]
1855:.\Generated_Source\PSoC5/CyLib.c ****     CY_WDT_CFG_REG &= ~CY_WDT_CFG_CTW_RESET;
 2717              		.loc 1 1855 0
 2718 005a 44F28333 		movw	r3, #:lower16:1073759107
 2719 005e C4F20003 		movt	r3, #:upper16:1073759107
