ARM GAS  C:\Users\Heiwa\AppData\Local\Temp\cc88StSU.s 			page 1


   1              		.syntax unified
   2              		.cpu cortex-m3
   3              		.fpu softvfp
   4              		.eabi_attribute 20, 1
   5              		.eabi_attribute 21, 1
   6              		.eabi_attribute 23, 3
   7              		.eabi_attribute 24, 1
   8              		.eabi_attribute 25, 1
   9              		.eabi_attribute 26, 1
  10              		.eabi_attribute 30, 6
  11              		.eabi_attribute 18, 4
  12              		.thumb
  13              		.file	"cyPm.c"
  20 0000 AF030000 		.text
  20      02006700 
  20      00000201 
  20      FB0E0D00 
  20      01010101 
  21              	.Ltext0:
  22              		.cfi_sections	.debug_frame
  23              		.bss
  24              		.align	2
  25              	cyPmBackup:
  26 0000 00000000 		.space	163
  26      00000000 
  26      00000000 
  26      00000000 
  26      00000000 
  27 00a3 00       		.align	2
  28              	cyPmClockBackup:
  29 00a4 00000000 		.space	16
  29      00000000 
  29      00000000 
  29      00000000 
  30              		.section	.rodata
  31              		.align	2
  32              		.type	cyPmImoFreqReg2Mhz, %object
  33              		.size	cyPmImoFreqReg2Mhz, 7
  34              	cyPmImoFreqReg2Mhz:
  35 0000 0C       		.byte	12
  36 0001 06       		.byte	6
  37 0002 18       		.byte	24
  38 0003 03       		.byte	3
  39 0004 30       		.byte	48
  40 0005 3E       		.byte	62
  41 0006 4A       		.byte	74
  42              		.section	.text.CyPmSaveClocks,"ax",%progbits
  43              		.align	2
  44              		.global	CyPmSaveClocks
  45              		.thumb
  46              		.thumb_func
ARM GAS  C:\Users\Heiwa\AppData\Local\Temp\cc88StSU.s 			page 2


  47              		.type	CyPmSaveClocks, %function
  48              	CyPmSaveClocks:
  49              	.LFB0:
  50              		.file 1 ".\\Generated_Source\\PSoC5\\cyPm.c"
   1:.\Generated_Source\PSoC5/cyPm.c **** /*******************************************************************************
   2:.\Generated_Source\PSoC5/cyPm.c **** * File Name: cyPm.c
   3:.\Generated_Source\PSoC5/cyPm.c **** * Version 3.10
   4:.\Generated_Source\PSoC5/cyPm.c **** *
   5:.\Generated_Source\PSoC5/cyPm.c **** * Description:
   6:.\Generated_Source\PSoC5/cyPm.c **** *  Provides an API for the power management.
   7:.\Generated_Source\PSoC5/cyPm.c **** *
   8:.\Generated_Source\PSoC5/cyPm.c **** * Note:
   9:.\Generated_Source\PSoC5/cyPm.c **** *  Documentation of the API's in this file is located in the
  10:.\Generated_Source\PSoC5/cyPm.c **** *  System Reference Guide provided with PSoC Creator.
  11:.\Generated_Source\PSoC5/cyPm.c **** *
  12:.\Generated_Source\PSoC5/cyPm.c **** ********************************************************************************
  13:.\Generated_Source\PSoC5/cyPm.c **** * Copyright 2008-2012, Cypress Semiconductor Corporation.  All rights reserved.
  14:.\Generated_Source\PSoC5/cyPm.c **** * You may use this file only in accordance with the license, terms, conditions,
  15:.\Generated_Source\PSoC5/cyPm.c **** * disclaimers, and limitations in the end user license agreement accompanying
  16:.\Generated_Source\PSoC5/cyPm.c **** * the software package with which this file was provided.
  17:.\Generated_Source\PSoC5/cyPm.c **** *******************************************************************************/
  18:.\Generated_Source\PSoC5/cyPm.c **** 
  19:.\Generated_Source\PSoC5/cyPm.c **** #include "cyPm.h"
  20:.\Generated_Source\PSoC5/cyPm.c **** 
  21:.\Generated_Source\PSoC5/cyPm.c **** static CY_PM_BACKUP_STRUCT          cyPmBackup;
  22:.\Generated_Source\PSoC5/cyPm.c **** static CY_PM_CLOCK_BACKUP_STRUCT    cyPmClockBackup;
  23:.\Generated_Source\PSoC5/cyPm.c **** 
  24:.\Generated_Source\PSoC5/cyPm.c **** /* Convertion table between register's values and frequency in MHz  */
  25:.\Generated_Source\PSoC5/cyPm.c **** static const uint8 CYCODE cyPmImoFreqReg2Mhz[7u] = {12u, 6u, 24u, 3u, 48u, 62u, 74u};
  26:.\Generated_Source\PSoC5/cyPm.c **** 
  27:.\Generated_Source\PSoC5/cyPm.c **** /* Function Prototypes */
  28:.\Generated_Source\PSoC5/cyPm.c **** static void CyPmHibSaveSet(void);
  29:.\Generated_Source\PSoC5/cyPm.c **** static void CyPmHibRestore(void) ;
  30:.\Generated_Source\PSoC5/cyPm.c **** 
  31:.\Generated_Source\PSoC5/cyPm.c **** static void CyPmSlpSaveSet(void) ;
  32:.\Generated_Source\PSoC5/cyPm.c **** static void CyPmSlpRestore(void) ;
  33:.\Generated_Source\PSoC5/cyPm.c **** 
  34:.\Generated_Source\PSoC5/cyPm.c **** static void CyPmHibSlpSaveSet(void) ;
  35:.\Generated_Source\PSoC5/cyPm.c **** static void CyPmHibSlpRestore(void) ;
  36:.\Generated_Source\PSoC5/cyPm.c **** 
  37:.\Generated_Source\PSoC5/cyPm.c **** #if(CY_PSOC5A)
  38:.\Generated_Source\PSoC5/cyPm.c **** 
  39:.\Generated_Source\PSoC5/cyPm.c ****     /***************************************************************************
  40:.\Generated_Source\PSoC5/cyPm.c ****     * The PICU interupt event is not allowed to act as wakeup source for PSoC 5.
  41:.\Generated_Source\PSoC5/cyPm.c ****     * To prevent accidental wakeup all the PICU interrupts are disabled before
  42:.\Generated_Source\PSoC5/cyPm.c ****     * Sleep and Hibernate low power modes entry. In case of Sleep mode registers
  43:.\Generated_Source\PSoC5/cyPm.c ****     * values must be restored on wakeup, but in case of Hibernate low power mode
  44:.\Generated_Source\PSoC5/cyPm.c ****     * there is no sense in saving/restoring registers values as the only wakeup
  45:.\Generated_Source\PSoC5/cyPm.c ****     * source for this mode is external reset (XRES). For more information refer
  46:.\Generated_Source\PSoC5/cyPm.c ****     * to the PSoC 5 device TRM.
  47:.\Generated_Source\PSoC5/cyPm.c ****     ***************************************************************************/
  48:.\Generated_Source\PSoC5/cyPm.c **** 
  49:.\Generated_Source\PSoC5/cyPm.c ****     static void CyPmSavePicuInterrupts(void);
  50:.\Generated_Source\PSoC5/cyPm.c ****     static void CyPmDisablePicuInterrupts(void) ;
  51:.\Generated_Source\PSoC5/cyPm.c ****     static void CyPmRestorePicuInterrupts(void) ;
  52:.\Generated_Source\PSoC5/cyPm.c **** 
  53:.\Generated_Source\PSoC5/cyPm.c **** #endif  /* (CY_PSOC5A) */
ARM GAS  C:\Users\Heiwa\AppData\Local\Temp\cc88StSU.s 			page 3


  54:.\Generated_Source\PSoC5/cyPm.c **** 
  55:.\Generated_Source\PSoC5/cyPm.c **** 
  56:.\Generated_Source\PSoC5/cyPm.c **** /*******************************************************************************
  57:.\Generated_Source\PSoC5/cyPm.c **** * Function Name: CyPmSaveClocks
  58:.\Generated_Source\PSoC5/cyPm.c **** ********************************************************************************
  59:.\Generated_Source\PSoC5/cyPm.c **** *
  60:.\Generated_Source\PSoC5/cyPm.c **** * Summary:
  61:.\Generated_Source\PSoC5/cyPm.c **** *  This function is called in preparation for entering sleep or hibernate low
  62:.\Generated_Source\PSoC5/cyPm.c **** *  power modes. Saves all state of the clocking system that does not persist
  63:.\Generated_Source\PSoC5/cyPm.c **** *  during sleep/hibernate or that needs to be altered in preparation for
  64:.\Generated_Source\PSoC5/cyPm.c **** *  sleep/hibernate. Shutdowns all the digital and analog clock dividers.
  65:.\Generated_Source\PSoC5/cyPm.c **** *
  66:.\Generated_Source\PSoC5/cyPm.c **** *  Switches the master clock over to the IMO and shuts down the PLL and MHz
  67:.\Generated_Source\PSoC5/cyPm.c **** *  Crystal. The IMO frequency is set to either 12 MHz or 48 MHz to match the
  68:.\Generated_Source\PSoC5/cyPm.c **** *  Design-Wide Resources System Editor "Enable Fast IMO During Startup" setting.
  69:.\Generated_Source\PSoC5/cyPm.c **** *  The ILO and 32 KHz oscillators are not impacted. The current Flash wait state
  70:.\Generated_Source\PSoC5/cyPm.c **** *  setting is saved and the Flash wait state setting is set for the current IMO
  71:.\Generated_Source\PSoC5/cyPm.c **** *  speed.
  72:.\Generated_Source\PSoC5/cyPm.c **** *
  73:.\Generated_Source\PSoC5/cyPm.c **** *  Note If the Master Clock source is routed through the DSI inputs, then it
  74:.\Generated_Source\PSoC5/cyPm.c **** *  must be set manually to another source before using the
  75:.\Generated_Source\PSoC5/cyPm.c **** *  CyPmSaveClocks()/CyPmRestoreClocks() functions.
  76:.\Generated_Source\PSoC5/cyPm.c **** *
  77:.\Generated_Source\PSoC5/cyPm.c **** * Parameters:
  78:.\Generated_Source\PSoC5/cyPm.c **** *  None
  79:.\Generated_Source\PSoC5/cyPm.c **** *
  80:.\Generated_Source\PSoC5/cyPm.c **** * Return:
  81:.\Generated_Source\PSoC5/cyPm.c **** *  None
  82:.\Generated_Source\PSoC5/cyPm.c **** *
  83:.\Generated_Source\PSoC5/cyPm.c **** * Side Effects:
  84:.\Generated_Source\PSoC5/cyPm.c **** *  All peripheral clocks are going to be off after this API method call.
  85:.\Generated_Source\PSoC5/cyPm.c **** *
  86:.\Generated_Source\PSoC5/cyPm.c **** *******************************************************************************/
  87:.\Generated_Source\PSoC5/cyPm.c **** void CyPmSaveClocks(void) 
  88:.\Generated_Source\PSoC5/cyPm.c **** {
  51              		.loc 1 88 0
  52              		.cfi_startproc
  53              		@ args = 0, pretend = 0, frame = 0
  54              		@ frame_needed = 1, uses_anonymous_args = 0
  55 0000 80B5     		push	{r7, lr}
  56              	.LCFI0:
  57              		.cfi_def_cfa_offset 8
  58 0002 00AF     		add	r7, sp, #0
  59              		.cfi_offset 14, -4
  60              		.cfi_offset 7, -8
  61              	.LCFI1:
  62              		.cfi_def_cfa_register 7
  89:.\Generated_Source\PSoC5/cyPm.c ****     /* Digital and analog clocks - save enable state and disable them all */
  90:.\Generated_Source\PSoC5/cyPm.c ****     cyPmClockBackup.enClkA = CY_PM_ACT_CFG1_REG & CY_PM_ACT_EN_CLK_A_MASK;
  63              		.loc 1 90 0
  64 0004 44F2A133 		movw	r3, #:lower16:1073759137
  65 0008 C4F20003 		movt	r3, #:upper16:1073759137
  66 000c 1B78     		ldrb	r3, [r3, #0]
  67 000e DBB2     		uxtb	r3, r3
  68 0010 1A46     		mov	r2, r3
  69 0012 02F00F02 		and	r2, r2, #15
  70 0016 40F20003 		movw	r3, #:lower16:cyPmClockBackup
ARM GAS  C:\Users\Heiwa\AppData\Local\Temp\cc88StSU.s 			page 4


  71 001a C0F20003 		movt	r3, #:upper16:cyPmClockBackup
  72 001e 1A70     		strb	r2, [r3, #0]
  91:.\Generated_Source\PSoC5/cyPm.c ****     cyPmClockBackup.enClkD = CY_PM_ACT_CFG2_REG;
  73              		.loc 1 91 0
  74 0020 44F2A233 		movw	r3, #:lower16:1073759138
  75 0024 C4F20003 		movt	r3, #:upper16:1073759138
  76 0028 1B78     		ldrb	r3, [r3, #0]
  77 002a DAB2     		uxtb	r2, r3
  78 002c 40F20003 		movw	r3, #:lower16:cyPmClockBackup
  79 0030 C0F20003 		movt	r3, #:upper16:cyPmClockBackup
  80 0034 5A70     		strb	r2, [r3, #1]
  92:.\Generated_Source\PSoC5/cyPm.c ****     CY_PM_ACT_CFG1_REG &= ~CY_PM_ACT_EN_CLK_A_MASK;
  81              		.loc 1 92 0
  82 0036 44F2A133 		movw	r3, #:lower16:1073759137
  83 003a C4F20003 		movt	r3, #:upper16:1073759137
  84 003e 44F2A132 		movw	r2, #:lower16:1073759137
  85 0042 C4F20002 		movt	r2, #:upper16:1073759137
  86 0046 1278     		ldrb	r2, [r2, #0]
  87 0048 D2B2     		uxtb	r2, r2
  88 004a 02F0F002 		and	r2, r2, #240
  89 004e 1A70     		strb	r2, [r3, #0]
  93:.\Generated_Source\PSoC5/cyPm.c ****     CY_PM_ACT_CFG2_REG &= ~CY_PM_ACT_EN_CLK_D_MASK;
  90              		.loc 1 93 0
  91 0050 44F2A233 		movw	r3, #:lower16:1073759138
  92 0054 C4F20003 		movt	r3, #:upper16:1073759138
  93 0058 1B78     		ldrb	r3, [r3, #0]
  94 005a 44F2A233 		movw	r3, #:lower16:1073759138
  95 005e C4F20003 		movt	r3, #:upper16:1073759138
  96 0062 4FF00002 		mov	r2, #0
  97 0066 1A70     		strb	r2, [r3, #0]
  94:.\Generated_Source\PSoC5/cyPm.c **** 
  95:.\Generated_Source\PSoC5/cyPm.c ****     /* Save current flash wait cycles and set the maximum value */
  96:.\Generated_Source\PSoC5/cyPm.c ****     cyPmClockBackup.flashWaitCycles = CY_PM_CACHE_CR_CYCLES_MASK & CY_PM_CACHE_CR_REG;
  98              		.loc 1 96 0
  99 0068 44F60003 		movw	r3, #:lower16:1073760256
 100 006c C4F20003 		movt	r3, #:upper16:1073760256
 101 0070 1B78     		ldrb	r3, [r3, #0]
 102 0072 DBB2     		uxtb	r3, r3
 103 0074 1A46     		mov	r2, r3
 104 0076 02F0C002 		and	r2, r2, #192
 105 007a 40F20003 		movw	r3, #:lower16:cyPmClockBackup
 106 007e C0F20003 		movt	r3, #:upper16:cyPmClockBackup
 107 0082 5A71     		strb	r2, [r3, #5]
  97:.\Generated_Source\PSoC5/cyPm.c ****     CyFlash_SetWaitCycles(CY_PM_MAX_FLASH_WAIT_CYCLES);
 108              		.loc 1 97 0
 109 0084 4FF03700 		mov	r0, #55
 110 0088 FFF7FEFF 		bl	CyFlash_SetWaitCycles
  98:.\Generated_Source\PSoC5/cyPm.c **** 
  99:.\Generated_Source\PSoC5/cyPm.c ****     /* IMO - save current IMO MHz OSC frequency and USB mode is on bit */
 100:.\Generated_Source\PSoC5/cyPm.c ****     cyPmClockBackup.imoFreq = CY_PM_FASTCLK_IMO_CR_REG & CY_PM_FASTCLK_IMO_CR_FREQ_MASK;
 111              		.loc 1 100 0
 112 008c 44F20023 		movw	r3, #:lower16:1073758720
 113 0090 C4F20003 		movt	r3, #:upper16:1073758720
 114 0094 1B78     		ldrb	r3, [r3, #0]
 115 0096 DBB2     		uxtb	r3, r3
 116 0098 1A46     		mov	r2, r3
 117 009a 02F00702 		and	r2, r2, #7
ARM GAS  C:\Users\Heiwa\AppData\Local\Temp\cc88StSU.s 			page 5


 118 009e 40F20003 		movw	r3, #:lower16:cyPmClockBackup
 119 00a2 C0F20003 		movt	r3, #:upper16:cyPmClockBackup
 120 00a6 DA70     		strb	r2, [r3, #3]
 101:.\Generated_Source\PSoC5/cyPm.c ****     cyPmClockBackup.imoUsbClk = CY_PM_FASTCLK_IMO_CR_REG & CY_PM_FASTCLK_IMO_CR_USB;
 121              		.loc 1 101 0
 122 00a8 44F20023 		movw	r3, #:lower16:1073758720
 123 00ac C4F20003 		movt	r3, #:upper16:1073758720
 124 00b0 1B78     		ldrb	r3, [r3, #0]
 125 00b2 DBB2     		uxtb	r3, r3
 126 00b4 1A46     		mov	r2, r3
 127 00b6 02F04002 		and	r2, r2, #64
 128 00ba 40F20003 		movw	r3, #:lower16:cyPmClockBackup
 129 00be C0F20003 		movt	r3, #:upper16:cyPmClockBackup
 130 00c2 1A71     		strb	r2, [r3, #4]
 102:.\Generated_Source\PSoC5/cyPm.c **** 
 103:.\Generated_Source\PSoC5/cyPm.c ****     /* IMO doubler - save enable state */
 104:.\Generated_Source\PSoC5/cyPm.c ****     if(0u != (CY_PM_FASTCLK_IMO_CR_REG & CY_PM_FASTCLK_IMO_CR_F2XON))
 131              		.loc 1 104 0
 132 00c4 44F20023 		movw	r3, #:lower16:1073758720
 133 00c8 C4F20003 		movt	r3, #:upper16:1073758720
 134 00cc 1B78     		ldrb	r3, [r3, #0]
 135 00ce DBB2     		uxtb	r3, r3
 136 00d0 03F01003 		and	r3, r3, #16
 137 00d4 002B     		cmp	r3, #0
 138 00d6 07D0     		beq	.L2
 105:.\Generated_Source\PSoC5/cyPm.c ****     {
 106:.\Generated_Source\PSoC5/cyPm.c ****         /* IMO doubler enabled - save and disable */
 107:.\Generated_Source\PSoC5/cyPm.c ****         cyPmClockBackup.imo2x = CY_PM_ENABLED;
 139              		.loc 1 107 0
 140 00d8 40F20003 		movw	r3, #:lower16:cyPmClockBackup
 141 00dc C0F20003 		movt	r3, #:upper16:cyPmClockBackup
 142 00e0 4FF00102 		mov	r2, #1
 143 00e4 5A72     		strb	r2, [r3, #9]
 144 00e6 06E0     		b	.L3
 145              	.L2:
 108:.\Generated_Source\PSoC5/cyPm.c ****     }
 109:.\Generated_Source\PSoC5/cyPm.c ****     else
 110:.\Generated_Source\PSoC5/cyPm.c ****     {
 111:.\Generated_Source\PSoC5/cyPm.c ****         /* IMO doubler disabled */
 112:.\Generated_Source\PSoC5/cyPm.c ****         cyPmClockBackup.imo2x = CY_PM_DISABLED;
 146              		.loc 1 112 0
 147 00e8 40F20003 		movw	r3, #:lower16:cyPmClockBackup
 148 00ec C0F20003 		movt	r3, #:upper16:cyPmClockBackup
 149 00f0 4FF00002 		mov	r2, #0
 150 00f4 5A72     		strb	r2, [r3, #9]
 151              	.L3:
 113:.\Generated_Source\PSoC5/cyPm.c ****     }
 114:.\Generated_Source\PSoC5/cyPm.c **** 
 115:.\Generated_Source\PSoC5/cyPm.c ****     /* IMO - set appropriate frequency for LPM */
 116:.\Generated_Source\PSoC5/cyPm.c ****     CyIMO_SetFreq(CY_PM_IMO_FREQ_LPM);
 152              		.loc 1 116 0
 153 00f6 4FF00200 		mov	r0, #2
 154 00fa FFF7FEFF 		bl	CyIMO_SetFreq
 117:.\Generated_Source\PSoC5/cyPm.c **** 
 118:.\Generated_Source\PSoC5/cyPm.c ****     /* IMO - save enable state and enable without wait to settle */
 119:.\Generated_Source\PSoC5/cyPm.c ****     if(0u != (CY_PM_ACT_CFG0_IMO & CY_PM_ACT_CFG0_REG))
 155              		.loc 1 119 0
ARM GAS  C:\Users\Heiwa\AppData\Local\Temp\cc88StSU.s 			page 6


 156 00fe 44F2A033 		movw	r3, #:lower16:1073759136
 157 0102 C4F20003 		movt	r3, #:upper16:1073759136
 158 0106 1B78     		ldrb	r3, [r3, #0]
 159 0108 DBB2     		uxtb	r3, r3
 160 010a 03F01003 		and	r3, r3, #16
 161 010e 002B     		cmp	r3, #0
 162 0110 07D0     		beq	.L4
 120:.\Generated_Source\PSoC5/cyPm.c ****     {
 121:.\Generated_Source\PSoC5/cyPm.c ****         /* IMO - save enabled state */
 122:.\Generated_Source\PSoC5/cyPm.c ****         cyPmClockBackup.imoEnable = CY_PM_ENABLED;
 163              		.loc 1 122 0
 164 0112 40F20003 		movw	r3, #:lower16:cyPmClockBackup
 165 0116 C0F20003 		movt	r3, #:upper16:cyPmClockBackup
 166 011a 4FF00102 		mov	r2, #1
 167 011e 9A71     		strb	r2, [r3, #6]
 168 0120 0AE0     		b	.L5
 169              	.L4:
 123:.\Generated_Source\PSoC5/cyPm.c ****     }
 124:.\Generated_Source\PSoC5/cyPm.c ****     else
 125:.\Generated_Source\PSoC5/cyPm.c ****     {
 126:.\Generated_Source\PSoC5/cyPm.c ****         /* IMO - save disabled state */
 127:.\Generated_Source\PSoC5/cyPm.c ****         cyPmClockBackup.imoEnable = CY_PM_DISABLED;
 170              		.loc 1 127 0
 171 0122 40F20003 		movw	r3, #:lower16:cyPmClockBackup
 172 0126 C0F20003 		movt	r3, #:upper16:cyPmClockBackup
 173 012a 4FF00002 		mov	r2, #0
 174 012e 9A71     		strb	r2, [r3, #6]
 128:.\Generated_Source\PSoC5/cyPm.c **** 
 129:.\Generated_Source\PSoC5/cyPm.c ****         /* IMO - enable */
 130:.\Generated_Source\PSoC5/cyPm.c ****         CyIMO_Start(CY_PM_IMO_NO_WAIT_TO_SETTLE);
 175              		.loc 1 130 0
 176 0130 4FF00000 		mov	r0, #0
 177 0134 FFF7FEFF 		bl	CyIMO_Start
 178              	.L5:
 131:.\Generated_Source\PSoC5/cyPm.c ****     }
 132:.\Generated_Source\PSoC5/cyPm.c **** 
 133:.\Generated_Source\PSoC5/cyPm.c ****     /* IMO - save the current IMOCLK source and set to IMO if not yet */
 134:.\Generated_Source\PSoC5/cyPm.c ****     if(0u != (CY_PM_FASTCLK_IMO_CR_REG & CY_PM_FASTCLK_IMO_CR_XCLKEN))
 179              		.loc 1 134 0
 180 0138 44F20023 		movw	r3, #:lower16:1073758720
 181 013c C4F20003 		movt	r3, #:upper16:1073758720
 182 0140 1B78     		ldrb	r3, [r3, #0]
 183 0142 DBB2     		uxtb	r3, r3
 184 0144 03F02003 		and	r3, r3, #32
 185 0148 002B     		cmp	r3, #0
 186 014a 18D0     		beq	.L6
 135:.\Generated_Source\PSoC5/cyPm.c ****     {
 136:.\Generated_Source\PSoC5/cyPm.c ****         /* DSI or XTAL CLK */
 137:.\Generated_Source\PSoC5/cyPm.c ****         cyPmClockBackup.imoClkSrc =
 138:.\Generated_Source\PSoC5/cyPm.c ****             (0u == (CY_PM_CLKDIST_CR_REG & CY_PM_CLKDIST_IMO2X_SRC)) ? CY_IMO_SOURCE_DSI : CY_IMO_S
 187              		.loc 1 138 0
 188 014c 44F20003 		movw	r3, #:lower16:1073758208
 189 0150 C4F20003 		movt	r3, #:upper16:1073758208
 190 0154 1B78     		ldrb	r3, [r3, #0]
 191 0156 DBB2     		uxtb	r3, r3
 192 0158 03F04003 		and	r3, r3, #64
 193              		.loc 1 137 0
ARM GAS  C:\Users\Heiwa\AppData\Local\Temp\cc88StSU.s 			page 7


 194 015c 002B     		cmp	r3, #0
 195 015e 02D1     		bne	.L7
 196 0160 4FF00202 		mov	r2, #2
 197 0164 01E0     		b	.L8
 198              	.L7:
 199 0166 4FF00102 		mov	r2, #1
 200              	.L8:
 201 016a 40F20003 		movw	r3, #:lower16:cyPmClockBackup
 202 016e C0F20003 		movt	r3, #:upper16:cyPmClockBackup
 203 0172 DA71     		strb	r2, [r3, #7]
 139:.\Generated_Source\PSoC5/cyPm.c **** 
 140:.\Generated_Source\PSoC5/cyPm.c ****         /* IMO -  set IMOCLK source to MHz OSC */
 141:.\Generated_Source\PSoC5/cyPm.c ****         CyIMO_SetSource(CY_IMO_SOURCE_IMO);
 204              		.loc 1 141 0
 205 0174 4FF00000 		mov	r0, #0
 206 0178 FFF7FEFF 		bl	CyIMO_SetSource
 207 017c 06E0     		b	.L9
 208              	.L6:
 142:.\Generated_Source\PSoC5/cyPm.c ****     }
 143:.\Generated_Source\PSoC5/cyPm.c ****     else
 144:.\Generated_Source\PSoC5/cyPm.c ****     {
 145:.\Generated_Source\PSoC5/cyPm.c ****         /* IMO */
 146:.\Generated_Source\PSoC5/cyPm.c ****         cyPmClockBackup.imoClkSrc = CY_IMO_SOURCE_IMO;
 209              		.loc 1 146 0
 210 017e 40F20003 		movw	r3, #:lower16:cyPmClockBackup
 211 0182 C0F20003 		movt	r3, #:upper16:cyPmClockBackup
 212 0186 4FF00002 		mov	r2, #0
 213 018a DA71     		strb	r2, [r3, #7]
 214              	.L9:
 147:.\Generated_Source\PSoC5/cyPm.c ****     }
 148:.\Generated_Source\PSoC5/cyPm.c **** 
 149:.\Generated_Source\PSoC5/cyPm.c ****     /* Save clk_imo source */
 150:.\Generated_Source\PSoC5/cyPm.c ****     cyPmClockBackup.clkImoSrc = CY_PM_CLKDIST_CR_REG & CY_PM_CLKDIST_IMO_OUT_MASK;
 215              		.loc 1 150 0
 216 018c 44F20003 		movw	r3, #:lower16:1073758208
 217 0190 C4F20003 		movt	r3, #:upper16:1073758208
 218 0194 1B78     		ldrb	r3, [r3, #0]
 219 0196 DBB2     		uxtb	r3, r3
 220 0198 1A46     		mov	r2, r3
 221 019a 02F03002 		and	r2, r2, #48
 222 019e 40F20003 		movw	r3, #:lower16:cyPmClockBackup
 223 01a2 C0F20003 		movt	r3, #:upper16:cyPmClockBackup
 224 01a6 1A72     		strb	r2, [r3, #8]
 151:.\Generated_Source\PSoC5/cyPm.c **** 
 152:.\Generated_Source\PSoC5/cyPm.c ****     /* If IMOCLK2X or SPC OSC is source for clk_imo, set it to IMOCLK */
 153:.\Generated_Source\PSoC5/cyPm.c ****     if(CY_PM_CLKDIST_IMO_OUT_IMO != cyPmClockBackup.clkImoSrc)
 225              		.loc 1 153 0
 226 01a8 40F20003 		movw	r3, #:lower16:cyPmClockBackup
 227 01ac C0F20003 		movt	r3, #:upper16:cyPmClockBackup
 228 01b0 1B7A     		ldrb	r3, [r3, #8]	@ zero_extendqisi2
 229 01b2 002B     		cmp	r3, #0
 230 01b4 0CD0     		beq	.L10
 154:.\Generated_Source\PSoC5/cyPm.c ****     {
 155:.\Generated_Source\PSoC5/cyPm.c ****         /* Set IMOCLK to source for clk_imo */
 156:.\Generated_Source\PSoC5/cyPm.c ****         CY_PM_CLKDIST_CR_REG = (CY_PM_CLKDIST_CR_REG & ~CY_PM_CLKDIST_IMO_OUT_MASK) |
 231              		.loc 1 156 0
 232 01b6 44F20003 		movw	r3, #:lower16:1073758208
ARM GAS  C:\Users\Heiwa\AppData\Local\Temp\cc88StSU.s 			page 8


 233 01ba C4F20003 		movt	r3, #:upper16:1073758208
 234 01be 44F20002 		movw	r2, #:lower16:1073758208
 235 01c2 C4F20002 		movt	r2, #:upper16:1073758208
 236 01c6 1278     		ldrb	r2, [r2, #0]
 237 01c8 D2B2     		uxtb	r2, r2
 238 01ca 02F0CF02 		and	r2, r2, #207
 239 01ce 1A70     		strb	r2, [r3, #0]
 240              	.L10:
 157:.\Generated_Source\PSoC5/cyPm.c ****                                 CY_PM_CLKDIST_IMO_OUT_IMO;
 158:.\Generated_Source\PSoC5/cyPm.c ****     }    /* Need to change nothing if IMOCLK is source clk_imo */
 159:.\Generated_Source\PSoC5/cyPm.c **** 
 160:.\Generated_Source\PSoC5/cyPm.c ****     /* IMO doubler - disable it (saved above) */
 161:.\Generated_Source\PSoC5/cyPm.c ****     if(0u != (CY_PM_FASTCLK_IMO_CR_REG & CY_PM_FASTCLK_IMO_CR_F2XON))
 241              		.loc 1 161 0
 242 01d0 44F20023 		movw	r3, #:lower16:1073758720
 243 01d4 C4F20003 		movt	r3, #:upper16:1073758720
 244 01d8 1B78     		ldrb	r3, [r3, #0]
 245 01da DBB2     		uxtb	r3, r3
 246 01dc 03F01003 		and	r3, r3, #16
 247 01e0 002B     		cmp	r3, #0
 248 01e2 01D0     		beq	.L11
 162:.\Generated_Source\PSoC5/cyPm.c ****     {
 163:.\Generated_Source\PSoC5/cyPm.c ****         CyIMO_DisableDoubler();
 249              		.loc 1 163 0
 250 01e4 FFF7FEFF 		bl	CyIMO_DisableDoubler
 251              	.L11:
 164:.\Generated_Source\PSoC5/cyPm.c ****     }
 165:.\Generated_Source\PSoC5/cyPm.c **** 
 166:.\Generated_Source\PSoC5/cyPm.c ****     /* Master clock - save divider and set it to divide-by-one (if no yet) */
 167:.\Generated_Source\PSoC5/cyPm.c ****     cyPmClockBackup.clkSyncDiv = CY_PM_CLKDIST_MSTR0_REG;
 252              		.loc 1 167 0
 253 01e8 44F20403 		movw	r3, #:lower16:1073758212
 254 01ec C4F20003 		movt	r3, #:upper16:1073758212
 255 01f0 1B78     		ldrb	r3, [r3, #0]
 256 01f2 DAB2     		uxtb	r2, r3
 257 01f4 40F20003 		movw	r3, #:lower16:cyPmClockBackup
 258 01f8 C0F20003 		movt	r3, #:upper16:cyPmClockBackup
 259 01fc 9A72     		strb	r2, [r3, #10]
 168:.\Generated_Source\PSoC5/cyPm.c ****     if(CY_PM_DIV_BY_ONE != cyPmClockBackup.clkSyncDiv)
 260              		.loc 1 168 0
 261 01fe 40F20003 		movw	r3, #:lower16:cyPmClockBackup
 262 0202 C0F20003 		movt	r3, #:upper16:cyPmClockBackup
 263 0206 9B7A     		ldrb	r3, [r3, #10]	@ zero_extendqisi2
 264 0208 002B     		cmp	r3, #0
 265 020a 03D0     		beq	.L12
 169:.\Generated_Source\PSoC5/cyPm.c ****     {
 170:.\Generated_Source\PSoC5/cyPm.c ****         CyMasterClk_SetDivider(CY_PM_DIV_BY_ONE);
 266              		.loc 1 170 0
 267 020c 4FF00000 		mov	r0, #0
 268 0210 FFF7FEFF 		bl	CyMasterClk_SetDivider
 269              	.L12:
 171:.\Generated_Source\PSoC5/cyPm.c ****     }    /* Need to change nothing if master clock divider is 1 */
 172:.\Generated_Source\PSoC5/cyPm.c **** 
 173:.\Generated_Source\PSoC5/cyPm.c ****     /* Master clock - save current source */
 174:.\Generated_Source\PSoC5/cyPm.c ****     cyPmClockBackup.masterClkSrc = CY_PM_CLKDIST_MSTR1_REG & CY_PM_MASTER_CLK_SRC_MASK;
 270              		.loc 1 174 0
 271 0214 44F20503 		movw	r3, #:lower16:1073758213
ARM GAS  C:\Users\Heiwa\AppData\Local\Temp\cc88StSU.s 			page 9


 272 0218 C4F20003 		movt	r3, #:upper16:1073758213
 273 021c 1B78     		ldrb	r3, [r3, #0]
 274 021e DBB2     		uxtb	r3, r3
 275 0220 1A46     		mov	r2, r3
 276 0222 02F00302 		and	r2, r2, #3
 277 0226 40F20003 		movw	r3, #:lower16:cyPmClockBackup
 278 022a C0F20003 		movt	r3, #:upper16:cyPmClockBackup
 279 022e 9A70     		strb	r2, [r3, #2]
 175:.\Generated_Source\PSoC5/cyPm.c **** 
 176:.\Generated_Source\PSoC5/cyPm.c ****     /* Master clock source - set it to IMO if not yet. */
 177:.\Generated_Source\PSoC5/cyPm.c ****     if(CY_MASTER_SOURCE_IMO != cyPmClockBackup.masterClkSrc)
 280              		.loc 1 177 0
 281 0230 40F20003 		movw	r3, #:lower16:cyPmClockBackup
 282 0234 C0F20003 		movt	r3, #:upper16:cyPmClockBackup
 283 0238 9B78     		ldrb	r3, [r3, #2]	@ zero_extendqisi2
 284 023a 002B     		cmp	r3, #0
 285 023c 03D0     		beq	.L13
 178:.\Generated_Source\PSoC5/cyPm.c ****     {
 179:.\Generated_Source\PSoC5/cyPm.c ****         CyMasterClk_SetSource(CY_MASTER_SOURCE_IMO);
 286              		.loc 1 179 0
 287 023e 4FF00000 		mov	r0, #0
 288 0242 FFF7FEFF 		bl	CyMasterClk_SetSource
 289              	.L13:
 180:.\Generated_Source\PSoC5/cyPm.c ****     }    /* Need to change nothing if master clock source is IMO */
 181:.\Generated_Source\PSoC5/cyPm.c **** 
 182:.\Generated_Source\PSoC5/cyPm.c ****     /* Bus clock - save divider and set it, if needed, to divide-by-one */
 183:.\Generated_Source\PSoC5/cyPm.c ****     cyPmClockBackup.clkBusDiv = ((uint16) CY_PM_CLK_BUS_MSB_DIV_REG << 8u) | CY_PM_CLK_BUS_LSB_DIV_
 290              		.loc 1 183 0
 291 0246 44F20703 		movw	r3, #:lower16:1073758215
 292 024a C4F20003 		movt	r3, #:upper16:1073758215
 293 024e 1B78     		ldrb	r3, [r3, #0]
 294 0250 DBB2     		uxtb	r3, r3
 295 0252 4FEA0323 		lsl	r3, r3, #8
 296 0256 9AB2     		uxth	r2, r3
 297 0258 44F20603 		movw	r3, #:lower16:1073758214
 298 025c C4F20003 		movt	r3, #:upper16:1073758214
 299 0260 1B78     		ldrb	r3, [r3, #0]
 300 0262 DBB2     		uxtb	r3, r3
 301 0264 42EA0303 		orr	r3, r2, r3
 302 0268 9BB2     		uxth	r3, r3
 303 026a 9AB2     		uxth	r2, r3
 304 026c 40F20003 		movw	r3, #:lower16:cyPmClockBackup
 305 0270 C0F20003 		movt	r3, #:upper16:cyPmClockBackup
 306 0274 9A81     		strh	r2, [r3, #12]	@ movhi
 184:.\Generated_Source\PSoC5/cyPm.c ****     if(CY_PM_BUS_CLK_DIV_BY_ONE != cyPmClockBackup.clkBusDiv)
 307              		.loc 1 184 0
 308 0276 40F20003 		movw	r3, #:lower16:cyPmClockBackup
 309 027a C0F20003 		movt	r3, #:upper16:cyPmClockBackup
 310 027e 9B89     		ldrh	r3, [r3, #12]
 311 0280 002B     		cmp	r3, #0
 312 0282 03D0     		beq	.L14
 185:.\Generated_Source\PSoC5/cyPm.c ****     {
 186:.\Generated_Source\PSoC5/cyPm.c ****         CyBusClk_SetDivider(CY_PM_BUS_CLK_DIV_BY_ONE);
 313              		.loc 1 186 0
 314 0284 4FF00000 		mov	r0, #0
 315 0288 FFF7FEFF 		bl	CyBusClk_SetDivider
 316              	.L14:
ARM GAS  C:\Users\Heiwa\AppData\Local\Temp\cc88StSU.s 			page 10


 187:.\Generated_Source\PSoC5/cyPm.c ****     }    /* Do nothing if saved and actual values are equal */
 188:.\Generated_Source\PSoC5/cyPm.c **** 
 189:.\Generated_Source\PSoC5/cyPm.c ****     /* Set number of wait cycles for the flash according CPU frequency in MHz */
 190:.\Generated_Source\PSoC5/cyPm.c ****     CyFlash_SetWaitCycles(CY_PM_GET_CPU_FREQ_MHZ);
 317              		.loc 1 190 0
 318 028c 44F20023 		movw	r3, #:lower16:1073758720
 319 0290 C4F20003 		movt	r3, #:upper16:1073758720
 320 0294 1B78     		ldrb	r3, [r3, #0]
 321 0296 DBB2     		uxtb	r3, r3
 322 0298 03F00702 		and	r2, r3, #7
 323 029c 40F20003 		movw	r3, #:lower16:cyPmImoFreqReg2Mhz
 324 02a0 C0F20003 		movt	r3, #:upper16:cyPmImoFreqReg2Mhz
 325 02a4 9B5C     		ldrb	r3, [r3, r2]	@ zero_extendqisi2
 326 02a6 1846     		mov	r0, r3
 327 02a8 FFF7FEFF 		bl	CyFlash_SetWaitCycles
 191:.\Generated_Source\PSoC5/cyPm.c **** 
 192:.\Generated_Source\PSoC5/cyPm.c ****     /* PLL - check enable state, disable if needed */
 193:.\Generated_Source\PSoC5/cyPm.c ****     if(0u != (CY_PM_FASTCLK_PLL_CFG0_REG & CY_PM_PLL_CFG0_ENABLE))
 328              		.loc 1 193 0
 329 02ac 44F22023 		movw	r3, #:lower16:1073758752
 330 02b0 C4F20003 		movt	r3, #:upper16:1073758752
 331 02b4 1B78     		ldrb	r3, [r3, #0]
 332 02b6 DBB2     		uxtb	r3, r3
 333 02b8 03F00103 		and	r3, r3, #1
 334 02bc DBB2     		uxtb	r3, r3
 335 02be 002B     		cmp	r3, #0
 336 02c0 09D0     		beq	.L15
 194:.\Generated_Source\PSoC5/cyPm.c ****     {
 195:.\Generated_Source\PSoC5/cyPm.c ****         /* PLL is enabled - save state and disable */
 196:.\Generated_Source\PSoC5/cyPm.c ****         cyPmClockBackup.pllEnableState = CY_PM_ENABLED;
 337              		.loc 1 196 0
 338 02c2 40F20003 		movw	r3, #:lower16:cyPmClockBackup
 339 02c6 C0F20003 		movt	r3, #:upper16:cyPmClockBackup
 340 02ca 4FF00102 		mov	r2, #1
 341 02ce 9A73     		strb	r2, [r3, #14]
 197:.\Generated_Source\PSoC5/cyPm.c ****         CyPLL_OUT_Stop();
 342              		.loc 1 197 0
 343 02d0 FFF7FEFF 		bl	CyPLL_OUT_Stop
 344 02d4 06E0     		b	.L16
 345              	.L15:
 198:.\Generated_Source\PSoC5/cyPm.c ****     }
 199:.\Generated_Source\PSoC5/cyPm.c ****     else
 200:.\Generated_Source\PSoC5/cyPm.c ****     {
 201:.\Generated_Source\PSoC5/cyPm.c ****         /* PLL is disabled - save state */
 202:.\Generated_Source\PSoC5/cyPm.c ****         cyPmClockBackup.pllEnableState = CY_PM_DISABLED;
 346              		.loc 1 202 0
 347 02d6 40F20003 		movw	r3, #:lower16:cyPmClockBackup
 348 02da C0F20003 		movt	r3, #:upper16:cyPmClockBackup
 349 02de 4FF00002 		mov	r2, #0
 350 02e2 9A73     		strb	r2, [r3, #14]
 351              	.L16:
 203:.\Generated_Source\PSoC5/cyPm.c ****     }
 204:.\Generated_Source\PSoC5/cyPm.c **** 
 205:.\Generated_Source\PSoC5/cyPm.c ****     /* MHz ECO - check enable state and disable if needed */
 206:.\Generated_Source\PSoC5/cyPm.c ****     if(0u != (CY_PM_FASTCLK_XMHZ_CSR_REG & CY_PM_XMHZ_CSR_ENABLE))
 352              		.loc 1 206 0
 353 02e4 44F21023 		movw	r3, #:lower16:1073758736
ARM GAS  C:\Users\Heiwa\AppData\Local\Temp\cc88StSU.s 			page 11


 354 02e8 C4F20003 		movt	r3, #:upper16:1073758736
 355 02ec 1B78     		ldrb	r3, [r3, #0]
 356 02ee DBB2     		uxtb	r3, r3
 357 02f0 03F00103 		and	r3, r3, #1
 358 02f4 DBB2     		uxtb	r3, r3
 359 02f6 002B     		cmp	r3, #0
 360 02f8 09D0     		beq	.L17
 207:.\Generated_Source\PSoC5/cyPm.c ****     {
 208:.\Generated_Source\PSoC5/cyPm.c ****         /* MHz ECO is enabled - save state and disable */
 209:.\Generated_Source\PSoC5/cyPm.c ****         cyPmClockBackup.xmhzEnableState = CY_PM_ENABLED;
 361              		.loc 1 209 0
 362 02fa 40F20003 		movw	r3, #:lower16:cyPmClockBackup
 363 02fe C0F20003 		movt	r3, #:upper16:cyPmClockBackup
 364 0302 4FF00102 		mov	r2, #1
 365 0306 DA73     		strb	r2, [r3, #15]
 210:.\Generated_Source\PSoC5/cyPm.c ****         CyXTAL_Stop();
 366              		.loc 1 210 0
 367 0308 FFF7FEFF 		bl	CyXTAL_Stop
 368 030c 06E0     		b	.L19
 369              	.L17:
 211:.\Generated_Source\PSoC5/cyPm.c ****     }
 212:.\Generated_Source\PSoC5/cyPm.c ****     else
 213:.\Generated_Source\PSoC5/cyPm.c ****     {
 214:.\Generated_Source\PSoC5/cyPm.c ****         /* MHz ECO is disabled - save state */
 215:.\Generated_Source\PSoC5/cyPm.c ****         cyPmClockBackup.xmhzEnableState = CY_PM_DISABLED;
 370              		.loc 1 215 0
 371 030e 40F20003 		movw	r3, #:lower16:cyPmClockBackup
 372 0312 C0F20003 		movt	r3, #:upper16:cyPmClockBackup
 373 0316 4FF00002 		mov	r2, #0
 374 031a DA73     		strb	r2, [r3, #15]
 375              	.L19:
 216:.\Generated_Source\PSoC5/cyPm.c ****     }
 217:.\Generated_Source\PSoC5/cyPm.c **** }
 376              		.loc 1 217 0
 377 031c 80BD     		pop	{r7, pc}
 378              		.cfi_endproc
 379              	.LFE0:
 380              		.size	CyPmSaveClocks, .-CyPmSaveClocks
 381 031e 00BF     		.section	.text.CyPmRestoreClocks,"ax",%progbits
 382              		.align	2
 383              		.global	CyPmRestoreClocks
 384              		.thumb
 385              		.thumb_func
 386              		.type	CyPmRestoreClocks, %function
 387              	CyPmRestoreClocks:
 388              	.LFB1:
 218:.\Generated_Source\PSoC5/cyPm.c **** 
 219:.\Generated_Source\PSoC5/cyPm.c **** 
 220:.\Generated_Source\PSoC5/cyPm.c **** /*******************************************************************************
 221:.\Generated_Source\PSoC5/cyPm.c **** * Function Name: CyPmRestoreClocks
 222:.\Generated_Source\PSoC5/cyPm.c **** ********************************************************************************
 223:.\Generated_Source\PSoC5/cyPm.c **** *
 224:.\Generated_Source\PSoC5/cyPm.c **** * Summary:
 225:.\Generated_Source\PSoC5/cyPm.c **** *  Restores any state that was preserved by the last call to CyPmSaveClocks().
 226:.\Generated_Source\PSoC5/cyPm.c **** *  The Flash wait state setting is also restored.
 227:.\Generated_Source\PSoC5/cyPm.c **** *
 228:.\Generated_Source\PSoC5/cyPm.c **** *  Note If the Master Clock source is routed through the DSI inputs, then it
ARM GAS  C:\Users\Heiwa\AppData\Local\Temp\cc88StSU.s 			page 12


 229:.\Generated_Source\PSoC5/cyPm.c **** *  must be set manually to another source before using the
 230:.\Generated_Source\PSoC5/cyPm.c **** *  CyPmSaveClocks()/CyPmRestoreClocks() functions.
 231:.\Generated_Source\PSoC5/cyPm.c **** *
 232:.\Generated_Source\PSoC5/cyPm.c **** *  PSoC3 ES3: The merge region could be used to process state when the megahertz
 233:.\Generated_Source\PSoC5/cyPm.c **** *  crystal is not ready after the hold-off timeout.
 234:.\Generated_Source\PSoC5/cyPm.c **** *
 235:.\Generated_Source\PSoC5/cyPm.c **** *  PSoC5: The 130 ms is given for the megahertz crystal to stabilize. It's
 236:.\Generated_Source\PSoC5/cyPm.c **** *  readiness is not verified after the hold-off timeout.
 237:.\Generated_Source\PSoC5/cyPm.c **** *
 238:.\Generated_Source\PSoC5/cyPm.c **** * Parameters:
 239:.\Generated_Source\PSoC5/cyPm.c **** *  None
 240:.\Generated_Source\PSoC5/cyPm.c **** *
 241:.\Generated_Source\PSoC5/cyPm.c **** * Return:
 242:.\Generated_Source\PSoC5/cyPm.c **** *  None
 243:.\Generated_Source\PSoC5/cyPm.c **** *
 244:.\Generated_Source\PSoC5/cyPm.c **** *******************************************************************************/
 245:.\Generated_Source\PSoC5/cyPm.c **** void CyPmRestoreClocks(void) 
 246:.\Generated_Source\PSoC5/cyPm.c **** {
 389              		.loc 1 246 0
 390              		.cfi_startproc
 391              		@ args = 0, pretend = 0, frame = 8
 392              		@ frame_needed = 1, uses_anonymous_args = 0
 393 0000 80B5     		push	{r7, lr}
 394              	.LCFI2:
 395              		.cfi_def_cfa_offset 8
 396 0002 82B0     		sub	sp, sp, #8
 397              	.LCFI3:
 398              		.cfi_def_cfa_offset 16
 399 0004 00AF     		add	r7, sp, #0
 400              		.cfi_offset 14, -4
 401              		.cfi_offset 7, -8
 402              	.LCFI4:
 403              		.cfi_def_cfa_register 7
 247:.\Generated_Source\PSoC5/cyPm.c ****     #if !(CY_PSOC5A)
 248:.\Generated_Source\PSoC5/cyPm.c **** 
 249:.\Generated_Source\PSoC5/cyPm.c ****         cystatus status = CYRET_TIMEOUT;
 250:.\Generated_Source\PSoC5/cyPm.c ****         uint16 i;
 251:.\Generated_Source\PSoC5/cyPm.c **** 
 252:.\Generated_Source\PSoC5/cyPm.c ****     #endif  /* !(CY_PSOC5A) */
 253:.\Generated_Source\PSoC5/cyPm.c **** 
 254:.\Generated_Source\PSoC5/cyPm.c ****     /* Convertion table between CyIMO_SetFreq() parameters and register's value */
 255:.\Generated_Source\PSoC5/cyPm.c ****     const uint8 CYCODE cyPmImoFreqMhz2Reg[7u] = {
 256:.\Generated_Source\PSoC5/cyPm.c ****         CY_IMO_FREQ_12MHZ, CY_IMO_FREQ_6MHZ,  CY_IMO_FREQ_24MHZ, CY_IMO_FREQ_3MHZ,
 257:.\Generated_Source\PSoC5/cyPm.c ****         CY_IMO_FREQ_48MHZ, 5, 6};
 404              		.loc 1 257 0
 405 0006 40F20002 		movw	r2, #:lower16:C.2.2080
 406 000a C0F20002 		movt	r2, #:upper16:C.2.2080
 407 000e 3B46     		mov	r3, r7
 408 0010 92E80300 		ldmia	r2, {r0, r1}
 409 0014 1860     		str	r0, [r3, #0]
 410 0016 03F10403 		add	r3, r3, #4
 411 001a 1980     		strh	r1, [r3, #0]	@ movhi
 412 001c 03F10203 		add	r3, r3, #2
 413 0020 4FEA1142 		lsr	r2, r1, #16
 414 0024 1A70     		strb	r2, [r3, #0]
 258:.\Generated_Source\PSoC5/cyPm.c **** 
 259:.\Generated_Source\PSoC5/cyPm.c ****     /* MHz ECO restore state */
ARM GAS  C:\Users\Heiwa\AppData\Local\Temp\cc88StSU.s 			page 13


 260:.\Generated_Source\PSoC5/cyPm.c ****     if(CY_PM_ENABLED == cyPmClockBackup.xmhzEnableState)
 415              		.loc 1 260 0
 416 0026 40F20003 		movw	r3, #:lower16:cyPmClockBackup
 417 002a C0F20003 		movt	r3, #:upper16:cyPmClockBackup
 418 002e DB7B     		ldrb	r3, [r3, #15]	@ zero_extendqisi2
 419 0030 012B     		cmp	r3, #1
 420 0032 1AD1     		bne	.L21
 261:.\Generated_Source\PSoC5/cyPm.c ****     {
 262:.\Generated_Source\PSoC5/cyPm.c ****         /***********************************************************************
 263:.\Generated_Source\PSoC5/cyPm.c ****         * Enabling XMHZ XTAL. The actual CyXTAL_Start() with non zero wait
 264:.\Generated_Source\PSoC5/cyPm.c ****         * period uses FTW for period measurement. This could cause a problem
 265:.\Generated_Source\PSoC5/cyPm.c ****         * if CTW/FTW is used as a wake up time in the low power modes APIs.
 266:.\Generated_Source\PSoC5/cyPm.c ****         * So, the XTAL wait procedure is implemented with a software delay.
 267:.\Generated_Source\PSoC5/cyPm.c ****         ***********************************************************************/
 268:.\Generated_Source\PSoC5/cyPm.c **** 
 269:.\Generated_Source\PSoC5/cyPm.c ****         /* Enable XMHZ XTAL with no wait */
 270:.\Generated_Source\PSoC5/cyPm.c ****         (void) CyXTAL_Start(CY_PM_XTAL_MHZ_NO_WAIT);
 421              		.loc 1 270 0
 422 0034 4FF00000 		mov	r0, #0
 423 0038 FFF7FEFF 		bl	CyXTAL_Start
 271:.\Generated_Source\PSoC5/cyPm.c **** 
 272:.\Generated_Source\PSoC5/cyPm.c ****         #if(CY_PSOC5A)
 273:.\Generated_Source\PSoC5/cyPm.c **** 
 274:.\Generated_Source\PSoC5/cyPm.c ****             /* Make a 130 milliseconds delay */
 275:.\Generated_Source\PSoC5/cyPm.c ****             CyDelayCycles(CY_PM_WAIT_200_US * CY_PM_MHZ_XTAL_WAIT_NUM_OF_200_US * CY_PM_GET_CPU_FRE
 424              		.loc 1 275 0
 425 003c 44F20023 		movw	r3, #:lower16:1073758720
 426 0040 C4F20003 		movt	r3, #:upper16:1073758720
 427 0044 1B78     		ldrb	r3, [r3, #0]
 428 0046 DBB2     		uxtb	r3, r3
 429 0048 03F00702 		and	r2, r3, #7
 430 004c 40F20003 		movw	r3, #:lower16:cyPmImoFreqReg2Mhz
 431 0050 C0F20003 		movt	r3, #:upper16:cyPmImoFreqReg2Mhz
 432 0054 9B5C     		ldrb	r3, [r3, r2]	@ zero_extendqisi2
 433 0056 1A46     		mov	r2, r3
 434 0058 4FF6D033 		movw	r3, #:lower16:130000
 435 005c C0F20103 		movt	r3, #:upper16:130000
 436 0060 03FB02F3 		mul	r3, r3, r2
 437 0064 1846     		mov	r0, r3
 438 0066 FFF7FEFF 		bl	CyDelayCycles
 439              	.L21:
 276:.\Generated_Source\PSoC5/cyPm.c **** 
 277:.\Generated_Source\PSoC5/cyPm.c ****         #else
 278:.\Generated_Source\PSoC5/cyPm.c **** 
 279:.\Generated_Source\PSoC5/cyPm.c ****             /* Read XERR bit to clear it */
 280:.\Generated_Source\PSoC5/cyPm.c ****             (void) CY_PM_FASTCLK_XMHZ_CSR_REG;
 281:.\Generated_Source\PSoC5/cyPm.c **** 
 282:.\Generated_Source\PSoC5/cyPm.c ****             /* Wait */
 283:.\Generated_Source\PSoC5/cyPm.c ****             for(i = CY_PM_MHZ_XTAL_WAIT_NUM_OF_200_US; i > 0u; i--)
 284:.\Generated_Source\PSoC5/cyPm.c ****             {
 285:.\Generated_Source\PSoC5/cyPm.c ****                 /* Make a 200 microseconds delay */
 286:.\Generated_Source\PSoC5/cyPm.c ****                 CyDelayCycles(CY_PM_WAIT_200_US * CY_PM_GET_CPU_FREQ_MHZ);
 287:.\Generated_Source\PSoC5/cyPm.c **** 
 288:.\Generated_Source\PSoC5/cyPm.c ****                 /* High output indicates oscillator failure */
 289:.\Generated_Source\PSoC5/cyPm.c ****                 if(0u == (CY_PM_FASTCLK_XMHZ_CSR_REG & CY_PM_XMHZ_CSR_XERR))
 290:.\Generated_Source\PSoC5/cyPm.c ****                 {
 291:.\Generated_Source\PSoC5/cyPm.c ****                     status = CYRET_SUCCESS;
ARM GAS  C:\Users\Heiwa\AppData\Local\Temp\cc88StSU.s 			page 14


 292:.\Generated_Source\PSoC5/cyPm.c ****                     break;
 293:.\Generated_Source\PSoC5/cyPm.c ****                 }
 294:.\Generated_Source\PSoC5/cyPm.c ****             }
 295:.\Generated_Source\PSoC5/cyPm.c **** 
 296:.\Generated_Source\PSoC5/cyPm.c ****             if(CYRET_TIMEOUT == status)
 297:.\Generated_Source\PSoC5/cyPm.c ****             {
 298:.\Generated_Source\PSoC5/cyPm.c ****                 /*******************************************************************
 299:.\Generated_Source\PSoC5/cyPm.c ****                 * Process the situation when megahertz crystal is not ready.
 300:.\Generated_Source\PSoC5/cyPm.c ****                 * Time to stabialize value is crystal specific.
 301:.\Generated_Source\PSoC5/cyPm.c ****                 *******************************************************************/
 302:.\Generated_Source\PSoC5/cyPm.c **** 
 303:.\Generated_Source\PSoC5/cyPm.c ****                 /* `#START_MHZ_ECO_TIMEOUT` */
 304:.\Generated_Source\PSoC5/cyPm.c **** 
 305:.\Generated_Source\PSoC5/cyPm.c ****                 /* `#END` */
 306:.\Generated_Source\PSoC5/cyPm.c ****             }
 307:.\Generated_Source\PSoC5/cyPm.c **** 
 308:.\Generated_Source\PSoC5/cyPm.c ****         #endif  /* (CY_PSOC5A) */
 309:.\Generated_Source\PSoC5/cyPm.c **** 
 310:.\Generated_Source\PSoC5/cyPm.c ****     }   /* (CY_PM_ENABLED == cyPmClockBackup.xmhzEnableState) */
 311:.\Generated_Source\PSoC5/cyPm.c **** 
 312:.\Generated_Source\PSoC5/cyPm.c **** 
 313:.\Generated_Source\PSoC5/cyPm.c ****     /* Temprorary set the maximum flash wait cycles */
 314:.\Generated_Source\PSoC5/cyPm.c ****     CyFlash_SetWaitCycles(CY_PM_MAX_FLASH_WAIT_CYCLES);
 440              		.loc 1 314 0
 441 006a 4FF03700 		mov	r0, #55
 442 006e FFF7FEFF 		bl	CyFlash_SetWaitCycles
 315:.\Generated_Source\PSoC5/cyPm.c **** 
 316:.\Generated_Source\PSoC5/cyPm.c ****     /* The XTAL and DSI clocks are ready to be source for Master clock. */
 317:.\Generated_Source\PSoC5/cyPm.c ****     if((CY_PM_MASTER_CLK_SRC_XTAL == cyPmClockBackup.masterClkSrc) ||
 443              		.loc 1 317 0
 444 0072 40F20003 		movw	r3, #:lower16:cyPmClockBackup
 445 0076 C0F20003 		movt	r3, #:upper16:cyPmClockBackup
 446 007a 9B78     		ldrb	r3, [r3, #2]	@ zero_extendqisi2
 447 007c 022B     		cmp	r3, #2
 448 007e 06D0     		beq	.L22
 318:.\Generated_Source\PSoC5/cyPm.c ****        (CY_PM_MASTER_CLK_SRC_DSI  == cyPmClockBackup.masterClkSrc))
 449              		.loc 1 318 0
 450 0080 40F20003 		movw	r3, #:lower16:cyPmClockBackup
 451 0084 C0F20003 		movt	r3, #:upper16:cyPmClockBackup
 452 0088 9B78     		ldrb	r3, [r3, #2]	@ zero_extendqisi2
 453              		.loc 1 317 0
 454 008a 032B     		cmp	r3, #3
 455 008c 1CD1     		bne	.L23
 456              	.L22:
 319:.\Generated_Source\PSoC5/cyPm.c ****     {
 320:.\Generated_Source\PSoC5/cyPm.c ****         /* Restore Master clock's divider */
 321:.\Generated_Source\PSoC5/cyPm.c ****         if(CY_PM_CLKDIST_MSTR0_REG != cyPmClockBackup.clkSyncDiv)
 457              		.loc 1 321 0
 458 008e 44F20403 		movw	r3, #:lower16:1073758212
 459 0092 C4F20003 		movt	r3, #:upper16:1073758212
 460 0096 1B78     		ldrb	r3, [r3, #0]
 461 0098 DAB2     		uxtb	r2, r3
 462 009a 40F20003 		movw	r3, #:lower16:cyPmClockBackup
 463 009e C0F20003 		movt	r3, #:upper16:cyPmClockBackup
 464 00a2 9B7A     		ldrb	r3, [r3, #10]	@ zero_extendqisi2
 465 00a4 9A42     		cmp	r2, r3
 466 00a6 07D0     		beq	.L24
ARM GAS  C:\Users\Heiwa\AppData\Local\Temp\cc88StSU.s 			page 15


 322:.\Generated_Source\PSoC5/cyPm.c ****         {
 323:.\Generated_Source\PSoC5/cyPm.c ****             /* Restore Master clock divider */
 324:.\Generated_Source\PSoC5/cyPm.c ****             CyMasterClk_SetDivider(cyPmClockBackup.clkSyncDiv);
 467              		.loc 1 324 0
 468 00a8 40F20003 		movw	r3, #:lower16:cyPmClockBackup
 469 00ac C0F20003 		movt	r3, #:upper16:cyPmClockBackup
 470 00b0 9B7A     		ldrb	r3, [r3, #10]	@ zero_extendqisi2
 471 00b2 1846     		mov	r0, r3
 472 00b4 FFF7FEFF 		bl	CyMasterClk_SetDivider
 473              	.L24:
 325:.\Generated_Source\PSoC5/cyPm.c ****         }
 326:.\Generated_Source\PSoC5/cyPm.c **** 
 327:.\Generated_Source\PSoC5/cyPm.c ****         /* Restore Master clock source */
 328:.\Generated_Source\PSoC5/cyPm.c ****         CyMasterClk_SetSource(cyPmClockBackup.masterClkSrc);
 474              		.loc 1 328 0
 475 00b8 40F20003 		movw	r3, #:lower16:cyPmClockBackup
 476 00bc C0F20003 		movt	r3, #:upper16:cyPmClockBackup
 477 00c0 9B78     		ldrb	r3, [r3, #2]	@ zero_extendqisi2
 478 00c2 1846     		mov	r0, r3
 479 00c4 FFF7FEFF 		bl	CyMasterClk_SetSource
 480              	.L23:
 329:.\Generated_Source\PSoC5/cyPm.c ****     }
 330:.\Generated_Source\PSoC5/cyPm.c **** 
 331:.\Generated_Source\PSoC5/cyPm.c ****     /* IMO - restore IMO frequency */
 332:.\Generated_Source\PSoC5/cyPm.c ****     if((0u != (cyPmClockBackup.imoUsbClk & CY_PM_FASTCLK_IMO_CR_USB)) &&
 481              		.loc 1 332 0
 482 00c8 40F20003 		movw	r3, #:lower16:cyPmClockBackup
 483 00cc C0F20003 		movt	r3, #:upper16:cyPmClockBackup
 484 00d0 1B79     		ldrb	r3, [r3, #4]	@ zero_extendqisi2
 485 00d2 03F04003 		and	r3, r3, #64
 486 00d6 002B     		cmp	r3, #0
 487 00d8 10D0     		beq	.L25
 333:.\Generated_Source\PSoC5/cyPm.c ****         (CY_IMO_FREQ_24MHZ == cyPmImoFreqMhz2Reg[cyPmClockBackup.imoFreq]))
 488              		.loc 1 333 0
 489 00da 40F20003 		movw	r3, #:lower16:cyPmClockBackup
 490 00de C0F20003 		movt	r3, #:upper16:cyPmClockBackup
 491 00e2 DB78     		ldrb	r3, [r3, #3]	@ zero_extendqisi2
 492 00e4 07F10802 		add	r2, r7, #8
 493 00e8 1344     		add	r3, r2, r3
 494 00ea 13F8083C 		ldrb	r3, [r3, #-8]	@ zero_extendqisi2
 495              		.loc 1 332 0
 496 00ee 032B     		cmp	r3, #3
 497 00f0 04D1     		bne	.L25
 334:.\Generated_Source\PSoC5/cyPm.c ****     {
 335:.\Generated_Source\PSoC5/cyPm.c ****         /* Restore IMO frequency (24 MHz) and trim it for USB */
 336:.\Generated_Source\PSoC5/cyPm.c ****         CyIMO_SetFreq(CY_IMO_FREQ_USB);
 498              		.loc 1 336 0
 499 00f2 4FF00800 		mov	r0, #8
 500 00f6 FFF7FEFF 		bl	CyIMO_SetFreq
 501              		.loc 1 332 0
 502 00fa 31E0     		b	.L26
 503              	.L25:
 337:.\Generated_Source\PSoC5/cyPm.c ****     }
 338:.\Generated_Source\PSoC5/cyPm.c ****     else
 339:.\Generated_Source\PSoC5/cyPm.c ****     {
 340:.\Generated_Source\PSoC5/cyPm.c ****         /* Restore IMO frequency */
 341:.\Generated_Source\PSoC5/cyPm.c ****         CyIMO_SetFreq(cyPmImoFreqMhz2Reg[cyPmClockBackup.imoFreq]);
ARM GAS  C:\Users\Heiwa\AppData\Local\Temp\cc88StSU.s 			page 16


 504              		.loc 1 341 0
 505 00fc 40F20003 		movw	r3, #:lower16:cyPmClockBackup
 506 0100 C0F20003 		movt	r3, #:upper16:cyPmClockBackup
 507 0104 DB78     		ldrb	r3, [r3, #3]	@ zero_extendqisi2
 508 0106 07F10802 		add	r2, r7, #8
 509 010a 1344     		add	r3, r2, r3
 510 010c 13F8083C 		ldrb	r3, [r3, #-8]	@ zero_extendqisi2
 511 0110 1846     		mov	r0, r3
 512 0112 FFF7FEFF 		bl	CyIMO_SetFreq
 342:.\Generated_Source\PSoC5/cyPm.c **** 
 343:.\Generated_Source\PSoC5/cyPm.c ****         if(0u != (cyPmClockBackup.imoUsbClk & CY_PM_FASTCLK_IMO_CR_USB))
 513              		.loc 1 343 0
 514 0116 40F20003 		movw	r3, #:lower16:cyPmClockBackup
 515 011a C0F20003 		movt	r3, #:upper16:cyPmClockBackup
 516 011e 1B79     		ldrb	r3, [r3, #4]	@ zero_extendqisi2
 517 0120 03F04003 		and	r3, r3, #64
 518 0124 002B     		cmp	r3, #0
 519 0126 0ED0     		beq	.L27
 344:.\Generated_Source\PSoC5/cyPm.c ****         {
 345:.\Generated_Source\PSoC5/cyPm.c ****             CY_PM_FASTCLK_IMO_CR_REG |= CY_PM_FASTCLK_IMO_CR_USB;
 520              		.loc 1 345 0
 521 0128 44F20023 		movw	r3, #:lower16:1073758720
 522 012c C4F20003 		movt	r3, #:upper16:1073758720
 523 0130 44F20022 		movw	r2, #:lower16:1073758720
 524 0134 C4F20002 		movt	r2, #:upper16:1073758720
 525 0138 1278     		ldrb	r2, [r2, #0]
 526 013a D2B2     		uxtb	r2, r2
 527 013c 42F04002 		orr	r2, r2, #64
 528 0140 D2B2     		uxtb	r2, r2
 529 0142 1A70     		strb	r2, [r3, #0]
 530 0144 0CE0     		b	.L26
 531              	.L27:
 346:.\Generated_Source\PSoC5/cyPm.c ****         }
 347:.\Generated_Source\PSoC5/cyPm.c ****         else
 348:.\Generated_Source\PSoC5/cyPm.c ****         {
 349:.\Generated_Source\PSoC5/cyPm.c ****             CY_PM_FASTCLK_IMO_CR_REG &= ~CY_PM_FASTCLK_IMO_CR_USB;
 532              		.loc 1 349 0
 533 0146 44F20023 		movw	r3, #:lower16:1073758720
 534 014a C4F20003 		movt	r3, #:upper16:1073758720
 535 014e 44F20022 		movw	r2, #:lower16:1073758720
 536 0152 C4F20002 		movt	r2, #:upper16:1073758720
 537 0156 1278     		ldrb	r2, [r2, #0]
 538 0158 D2B2     		uxtb	r2, r2
 539 015a 02F0BF02 		and	r2, r2, #191
 540 015e 1A70     		strb	r2, [r3, #0]
 541              	.L26:
 350:.\Generated_Source\PSoC5/cyPm.c ****         }
 351:.\Generated_Source\PSoC5/cyPm.c ****     }
 352:.\Generated_Source\PSoC5/cyPm.c **** 
 353:.\Generated_Source\PSoC5/cyPm.c ****     /* IMO - restore enable state if needed */
 354:.\Generated_Source\PSoC5/cyPm.c ****     if((CY_PM_ENABLED == cyPmClockBackup.imoEnable) &&
 542              		.loc 1 354 0
 543 0160 40F20003 		movw	r3, #:lower16:cyPmClockBackup
 544 0164 C0F20003 		movt	r3, #:upper16:cyPmClockBackup
 545 0168 9B79     		ldrb	r3, [r3, #6]	@ zero_extendqisi2
 546 016a 012B     		cmp	r3, #1
 547 016c 0DD1     		bne	.L28
ARM GAS  C:\Users\Heiwa\AppData\Local\Temp\cc88StSU.s 			page 17


 355:.\Generated_Source\PSoC5/cyPm.c ****        (0u == (CY_PM_ACT_CFG0_IMO & CY_PM_ACT_CFG0_REG)))
 548              		.loc 1 355 0
 549 016e 44F2A033 		movw	r3, #:lower16:1073759136
 550 0172 C4F20003 		movt	r3, #:upper16:1073759136
 551 0176 1B78     		ldrb	r3, [r3, #0]
 552 0178 DBB2     		uxtb	r3, r3
 553 017a 03F01003 		and	r3, r3, #16
 554              		.loc 1 354 0
 555 017e 002B     		cmp	r3, #0
 556 0180 03D1     		bne	.L28
 356:.\Generated_Source\PSoC5/cyPm.c ****     {
 357:.\Generated_Source\PSoC5/cyPm.c ****         /* IMO - restore enabled state */
 358:.\Generated_Source\PSoC5/cyPm.c ****         CyIMO_Start(CY_PM_IMO_NO_WAIT_TO_SETTLE);
 557              		.loc 1 358 0
 558 0182 4FF00000 		mov	r0, #0
 559 0186 FFF7FEFF 		bl	CyIMO_Start
 560              	.L28:
 359:.\Generated_Source\PSoC5/cyPm.c ****     }
 360:.\Generated_Source\PSoC5/cyPm.c **** 
 361:.\Generated_Source\PSoC5/cyPm.c ****     /* IMO - restore disable state if needed */
 362:.\Generated_Source\PSoC5/cyPm.c ****     if((CY_PM_DISABLED == cyPmClockBackup.imoEnable) &&
 561              		.loc 1 362 0
 562 018a 40F20003 		movw	r3, #:lower16:cyPmClockBackup
 563 018e C0F20003 		movt	r3, #:upper16:cyPmClockBackup
 564 0192 9B79     		ldrb	r3, [r3, #6]	@ zero_extendqisi2
 565 0194 002B     		cmp	r3, #0
 566 0196 0BD1     		bne	.L29
 363:.\Generated_Source\PSoC5/cyPm.c ****        (0u != (CY_PM_ACT_CFG0_IMO & CY_PM_ACT_CFG0_REG)))
 567              		.loc 1 363 0
 568 0198 44F2A033 		movw	r3, #:lower16:1073759136
 569 019c C4F20003 		movt	r3, #:upper16:1073759136
 570 01a0 1B78     		ldrb	r3, [r3, #0]
 571 01a2 DBB2     		uxtb	r3, r3
 572 01a4 03F01003 		and	r3, r3, #16
 573              		.loc 1 362 0
 574 01a8 002B     		cmp	r3, #0
 575 01aa 01D0     		beq	.L29
 364:.\Generated_Source\PSoC5/cyPm.c ****     {
 365:.\Generated_Source\PSoC5/cyPm.c ****         CyIMO_Stop();
 576              		.loc 1 365 0
 577 01ac FFF7FEFF 		bl	CyIMO_Stop
 578              	.L29:
 366:.\Generated_Source\PSoC5/cyPm.c ****     }
 367:.\Generated_Source\PSoC5/cyPm.c **** 
 368:.\Generated_Source\PSoC5/cyPm.c ****     /* IMO - restore IMOCLK source */
 369:.\Generated_Source\PSoC5/cyPm.c ****     CyIMO_SetSource(cyPmClockBackup.imoClkSrc);
 579              		.loc 1 369 0
 580 01b0 40F20003 		movw	r3, #:lower16:cyPmClockBackup
 581 01b4 C0F20003 		movt	r3, #:upper16:cyPmClockBackup
 582 01b8 DB79     		ldrb	r3, [r3, #7]	@ zero_extendqisi2
 583 01ba 1846     		mov	r0, r3
 584 01bc FFF7FEFF 		bl	CyIMO_SetSource
 370:.\Generated_Source\PSoC5/cyPm.c **** 
 371:.\Generated_Source\PSoC5/cyPm.c ****     /* Restore IMO doubler enable state (turned off by CyPmSaveClocks()) */
 372:.\Generated_Source\PSoC5/cyPm.c ****     if(CY_PM_ENABLED == cyPmClockBackup.imo2x)
 585              		.loc 1 372 0
 586 01c0 40F20003 		movw	r3, #:lower16:cyPmClockBackup
ARM GAS  C:\Users\Heiwa\AppData\Local\Temp\cc88StSU.s 			page 18


 587 01c4 C0F20003 		movt	r3, #:upper16:cyPmClockBackup
 588 01c8 5B7A     		ldrb	r3, [r3, #9]	@ zero_extendqisi2
 589 01ca 012B     		cmp	r3, #1
 590 01cc 01D1     		bne	.L30
 373:.\Generated_Source\PSoC5/cyPm.c ****     {
 374:.\Generated_Source\PSoC5/cyPm.c ****         CyIMO_EnableDoubler();
 591              		.loc 1 374 0
 592 01ce FFF7FEFF 		bl	CyIMO_EnableDoubler
 593              	.L30:
 375:.\Generated_Source\PSoC5/cyPm.c ****     }
 376:.\Generated_Source\PSoC5/cyPm.c **** 
 377:.\Generated_Source\PSoC5/cyPm.c ****     /* IMO - restore clk_imo source, if needed */
 378:.\Generated_Source\PSoC5/cyPm.c ****     if(cyPmClockBackup.clkImoSrc != (CY_PM_CLKDIST_CR_REG & CY_PM_CLKDIST_IMO_OUT_MASK))
 594              		.loc 1 378 0
 595 01d2 40F20003 		movw	r3, #:lower16:cyPmClockBackup
 596 01d6 C0F20003 		movt	r3, #:upper16:cyPmClockBackup
 597 01da 1B7A     		ldrb	r3, [r3, #8]	@ zero_extendqisi2
 598 01dc 1A46     		mov	r2, r3
 599 01de 44F20003 		movw	r3, #:lower16:1073758208
 600 01e2 C4F20003 		movt	r3, #:upper16:1073758208
 601 01e6 1B78     		ldrb	r3, [r3, #0]
 602 01e8 DBB2     		uxtb	r3, r3
 603 01ea 03F03003 		and	r3, r3, #48
 604 01ee 9A42     		cmp	r2, r3
 605 01f0 14D0     		beq	.L31
 379:.\Generated_Source\PSoC5/cyPm.c ****     {
 380:.\Generated_Source\PSoC5/cyPm.c ****         CY_PM_CLKDIST_CR_REG = (CY_PM_CLKDIST_CR_REG & ~CY_PM_CLKDIST_IMO_OUT_MASK) |
 606              		.loc 1 380 0
 607 01f2 44F20003 		movw	r3, #:lower16:1073758208
 608 01f6 C4F20003 		movt	r3, #:upper16:1073758208
 609 01fa 44F20002 		movw	r2, #:lower16:1073758208
 610 01fe C4F20002 		movt	r2, #:upper16:1073758208
 611 0202 1278     		ldrb	r2, [r2, #0]
 612 0204 D2B2     		uxtb	r2, r2
 613 0206 02F0CF02 		and	r2, r2, #207
 614 020a 40F20001 		movw	r1, #:lower16:cyPmClockBackup
 615 020e C0F20001 		movt	r1, #:upper16:cyPmClockBackup
 616 0212 097A     		ldrb	r1, [r1, #8]	@ zero_extendqisi2
 617 0214 42EA0102 		orr	r2, r2, r1
 618 0218 D2B2     		uxtb	r2, r2
 619 021a 1A70     		strb	r2, [r3, #0]
 620              	.L31:
 381:.\Generated_Source\PSoC5/cyPm.c ****                                 cyPmClockBackup.clkImoSrc;
 382:.\Generated_Source\PSoC5/cyPm.c ****     }
 383:.\Generated_Source\PSoC5/cyPm.c **** 
 384:.\Generated_Source\PSoC5/cyPm.c ****     /* PLL restore state */
 385:.\Generated_Source\PSoC5/cyPm.c ****     if(CY_PM_ENABLED == cyPmClockBackup.pllEnableState)
 621              		.loc 1 385 0
 622 021c 40F20003 		movw	r3, #:lower16:cyPmClockBackup
 623 0220 C0F20003 		movt	r3, #:upper16:cyPmClockBackup
 624 0224 9B7B     		ldrb	r3, [r3, #14]	@ zero_extendqisi2
 625 0226 012B     		cmp	r3, #1
 626 0228 17D1     		bne	.L32
 386:.\Generated_Source\PSoC5/cyPm.c ****     {
 387:.\Generated_Source\PSoC5/cyPm.c ****         /***********************************************************************
 388:.\Generated_Source\PSoC5/cyPm.c ****         * Enable PLL. The actual CyPLL_OUT_Start() without wait period uses FTW
 389:.\Generated_Source\PSoC5/cyPm.c ****         * for period measurement. This could cause a problem if CTW/FTW is used
ARM GAS  C:\Users\Heiwa\AppData\Local\Temp\cc88StSU.s 			page 19


 390:.\Generated_Source\PSoC5/cyPm.c ****         * as a wakeup time in the low power modes APIs. To omit this issue PLL
 391:.\Generated_Source\PSoC5/cyPm.c ****         * wait procedure is implemented with a software delay.
 392:.\Generated_Source\PSoC5/cyPm.c ****         ***********************************************************************/
 393:.\Generated_Source\PSoC5/cyPm.c **** 
 394:.\Generated_Source\PSoC5/cyPm.c ****         /* Enable PLL */
 395:.\Generated_Source\PSoC5/cyPm.c ****         (void) CyPLL_OUT_Start(CY_PM_PLL_OUT_NO_WAIT);
 627              		.loc 1 395 0
 628 022a 4FF00000 		mov	r0, #0
 629 022e FFF7FEFF 		bl	CyPLL_OUT_Start
 396:.\Generated_Source\PSoC5/cyPm.c **** 
 397:.\Generated_Source\PSoC5/cyPm.c ****         /* Make a 250 us delay */
 398:.\Generated_Source\PSoC5/cyPm.c ****         CyDelayCycles(CY_PM_WAIT_250_US * CY_PM_GET_CPU_FREQ_MHZ);
 630              		.loc 1 398 0
 631 0232 44F20023 		movw	r3, #:lower16:1073758720
 632 0236 C4F20003 		movt	r3, #:upper16:1073758720
 633 023a 1B78     		ldrb	r3, [r3, #0]
 634 023c DBB2     		uxtb	r3, r3
 635 023e 03F00702 		and	r2, r3, #7
 636 0242 40F20003 		movw	r3, #:lower16:cyPmImoFreqReg2Mhz
 637 0246 C0F20003 		movt	r3, #:upper16:cyPmImoFreqReg2Mhz
 638 024a 9B5C     		ldrb	r3, [r3, r2]	@ zero_extendqisi2
 639 024c 4FF0FA02 		mov	r2, #250
 640 0250 02FB03F3 		mul	r3, r2, r3
 641 0254 1846     		mov	r0, r3
 642 0256 FFF7FEFF 		bl	CyDelayCycles
 643              	.L32:
 399:.\Generated_Source\PSoC5/cyPm.c ****     }   /* (CY_PM_ENABLED == cyPmClockBackup.pllEnableState) */
 400:.\Generated_Source\PSoC5/cyPm.c **** 
 401:.\Generated_Source\PSoC5/cyPm.c **** 
 402:.\Generated_Source\PSoC5/cyPm.c ****     /* PLL and IMO is ready to be source for Master clock */
 403:.\Generated_Source\PSoC5/cyPm.c ****     if((CY_PM_MASTER_CLK_SRC_IMO == cyPmClockBackup.masterClkSrc) ||
 644              		.loc 1 403 0
 645 025a 40F20003 		movw	r3, #:lower16:cyPmClockBackup
 646 025e C0F20003 		movt	r3, #:upper16:cyPmClockBackup
 647 0262 9B78     		ldrb	r3, [r3, #2]	@ zero_extendqisi2
 648 0264 002B     		cmp	r3, #0
 649 0266 06D0     		beq	.L33
 404:.\Generated_Source\PSoC5/cyPm.c ****        (CY_PM_MASTER_CLK_SRC_PLL == cyPmClockBackup.masterClkSrc))
 650              		.loc 1 404 0
 651 0268 40F20003 		movw	r3, #:lower16:cyPmClockBackup
 652 026c C0F20003 		movt	r3, #:upper16:cyPmClockBackup
 653 0270 9B78     		ldrb	r3, [r3, #2]	@ zero_extendqisi2
 654              		.loc 1 403 0
 655 0272 012B     		cmp	r3, #1
 656 0274 1CD1     		bne	.L34
 657              	.L33:
 405:.\Generated_Source\PSoC5/cyPm.c ****     {
 406:.\Generated_Source\PSoC5/cyPm.c ****         /* Restore Master clock divider */
 407:.\Generated_Source\PSoC5/cyPm.c ****         if(CY_PM_CLKDIST_MSTR0_REG != cyPmClockBackup.clkSyncDiv)
 658              		.loc 1 407 0
 659 0276 44F20403 		movw	r3, #:lower16:1073758212
 660 027a C4F20003 		movt	r3, #:upper16:1073758212
 661 027e 1B78     		ldrb	r3, [r3, #0]
 662 0280 DAB2     		uxtb	r2, r3
 663 0282 40F20003 		movw	r3, #:lower16:cyPmClockBackup
 664 0286 C0F20003 		movt	r3, #:upper16:cyPmClockBackup
 665 028a 9B7A     		ldrb	r3, [r3, #10]	@ zero_extendqisi2
ARM GAS  C:\Users\Heiwa\AppData\Local\Temp\cc88StSU.s 			page 20


 666 028c 9A42     		cmp	r2, r3
 667 028e 07D0     		beq	.L35
 408:.\Generated_Source\PSoC5/cyPm.c ****         {
 409:.\Generated_Source\PSoC5/cyPm.c ****             CyMasterClk_SetDivider(cyPmClockBackup.clkSyncDiv);
 668              		.loc 1 409 0
 669 0290 40F20003 		movw	r3, #:lower16:cyPmClockBackup
 670 0294 C0F20003 		movt	r3, #:upper16:cyPmClockBackup
 671 0298 9B7A     		ldrb	r3, [r3, #10]	@ zero_extendqisi2
 672 029a 1846     		mov	r0, r3
 673 029c FFF7FEFF 		bl	CyMasterClk_SetDivider
 674              	.L35:
 410:.\Generated_Source\PSoC5/cyPm.c ****         }
 411:.\Generated_Source\PSoC5/cyPm.c **** 
 412:.\Generated_Source\PSoC5/cyPm.c ****         /* Restore Master clock source */
 413:.\Generated_Source\PSoC5/cyPm.c ****         CyMasterClk_SetSource(cyPmClockBackup.masterClkSrc);
 675              		.loc 1 413 0
 676 02a0 40F20003 		movw	r3, #:lower16:cyPmClockBackup
 677 02a4 C0F20003 		movt	r3, #:upper16:cyPmClockBackup
 678 02a8 9B78     		ldrb	r3, [r3, #2]	@ zero_extendqisi2
 679 02aa 1846     		mov	r0, r3
 680 02ac FFF7FEFF 		bl	CyMasterClk_SetSource
 681              	.L34:
 414:.\Generated_Source\PSoC5/cyPm.c ****     }
 415:.\Generated_Source\PSoC5/cyPm.c **** 
 416:.\Generated_Source\PSoC5/cyPm.c ****     /* Bus clock - restore divider, if needed */
 417:.\Generated_Source\PSoC5/cyPm.c ****     if(cyPmClockBackup.clkBusDiv != (((uint16) CY_PM_CLK_BUS_MSB_DIV_REG << 8u) | CY_PM_CLK_BUS_LSB
 682              		.loc 1 417 0
 683 02b0 40F20003 		movw	r3, #:lower16:cyPmClockBackup
 684 02b4 C0F20003 		movt	r3, #:upper16:cyPmClockBackup
 685 02b8 9B89     		ldrh	r3, [r3, #12]
 686 02ba 1A46     		mov	r2, r3
 687 02bc 44F20703 		movw	r3, #:lower16:1073758215
 688 02c0 C4F20003 		movt	r3, #:upper16:1073758215
 689 02c4 1B78     		ldrb	r3, [r3, #0]
 690 02c6 DBB2     		uxtb	r3, r3
 691 02c8 4FEA0321 		lsl	r1, r3, #8
 692 02cc 44F20603 		movw	r3, #:lower16:1073758214
 693 02d0 C4F20003 		movt	r3, #:upper16:1073758214
 694 02d4 1B78     		ldrb	r3, [r3, #0]
 695 02d6 DBB2     		uxtb	r3, r3
 696 02d8 41EA0303 		orr	r3, r1, r3
 697 02dc 9A42     		cmp	r2, r3
 698 02de 07D0     		beq	.L36
 418:.\Generated_Source\PSoC5/cyPm.c ****     {
 419:.\Generated_Source\PSoC5/cyPm.c ****         CyBusClk_SetDivider(cyPmClockBackup.clkBusDiv);
 699              		.loc 1 419 0
 700 02e0 40F20003 		movw	r3, #:lower16:cyPmClockBackup
 701 02e4 C0F20003 		movt	r3, #:upper16:cyPmClockBackup
 702 02e8 9B89     		ldrh	r3, [r3, #12]
 703 02ea 1846     		mov	r0, r3
 704 02ec FFF7FEFF 		bl	CyBusClk_SetDivider
 705              	.L36:
 420:.\Generated_Source\PSoC5/cyPm.c ****     }
 421:.\Generated_Source\PSoC5/cyPm.c **** 
 422:.\Generated_Source\PSoC5/cyPm.c ****     /* Restore flash wait cycles */
 423:.\Generated_Source\PSoC5/cyPm.c ****     CY_PM_CACHE_CR_REG = ((CY_PM_CACHE_CR_REG & ~CY_PM_CACHE_CR_CYCLES_MASK) |
 706              		.loc 1 423 0
ARM GAS  C:\Users\Heiwa\AppData\Local\Temp\cc88StSU.s 			page 21


 707 02f0 44F60003 		movw	r3, #:lower16:1073760256
 708 02f4 C4F20003 		movt	r3, #:upper16:1073760256
 709 02f8 44F60002 		movw	r2, #:lower16:1073760256
 710 02fc C4F20002 		movt	r2, #:upper16:1073760256
 711 0300 1278     		ldrb	r2, [r2, #0]
 712 0302 D2B2     		uxtb	r2, r2
 713 0304 02F03F02 		and	r2, r2, #63
 714 0308 40F20001 		movw	r1, #:lower16:cyPmClockBackup
 715 030c C0F20001 		movt	r1, #:upper16:cyPmClockBackup
 716 0310 4979     		ldrb	r1, [r1, #5]	@ zero_extendqisi2
 717 0312 42EA0102 		orr	r2, r2, r1
 718 0316 D2B2     		uxtb	r2, r2
 719 0318 1A70     		strb	r2, [r3, #0]
 424:.\Generated_Source\PSoC5/cyPm.c ****                            cyPmClockBackup.flashWaitCycles);
 425:.\Generated_Source\PSoC5/cyPm.c **** 
 426:.\Generated_Source\PSoC5/cyPm.c ****     /* Digital and analog clocks - restore state */
 427:.\Generated_Source\PSoC5/cyPm.c ****     CY_PM_ACT_CFG1_REG = cyPmClockBackup.enClkA;
 720              		.loc 1 427 0
 721 031a 44F2A133 		movw	r3, #:lower16:1073759137
 722 031e C4F20003 		movt	r3, #:upper16:1073759137
 723 0322 40F20002 		movw	r2, #:lower16:cyPmClockBackup
 724 0326 C0F20002 		movt	r2, #:upper16:cyPmClockBackup
 725 032a 1278     		ldrb	r2, [r2, #0]	@ zero_extendqisi2
 726 032c 1A70     		strb	r2, [r3, #0]
 428:.\Generated_Source\PSoC5/cyPm.c ****     CY_PM_ACT_CFG2_REG = cyPmClockBackup.enClkD;
 727              		.loc 1 428 0
 728 032e 44F2A233 		movw	r3, #:lower16:1073759138
 729 0332 C4F20003 		movt	r3, #:upper16:1073759138
 730 0336 40F20002 		movw	r2, #:lower16:cyPmClockBackup
 731 033a C0F20002 		movt	r2, #:upper16:cyPmClockBackup
 732 033e 5278     		ldrb	r2, [r2, #1]	@ zero_extendqisi2
 733 0340 1A70     		strb	r2, [r3, #0]
 429:.\Generated_Source\PSoC5/cyPm.c **** }
 734              		.loc 1 429 0
 735 0342 07F10807 		add	r7, r7, #8
 736 0346 BD46     		mov	sp, r7
 737 0348 80BD     		pop	{r7, pc}
 738              		.cfi_endproc
 739              	.LFE1:
 740              		.size	CyPmRestoreClocks, .-CyPmRestoreClocks
 741 034a 00BF     		.section	.text.CyPmAltAct,"ax",%progbits
 742              		.align	2
 743              		.global	CyPmAltAct
 744              		.thumb
 745              		.thumb_func
 746              		.type	CyPmAltAct, %function
 747              	CyPmAltAct:
 748              	.LFB2:
 430:.\Generated_Source\PSoC5/cyPm.c **** 
 431:.\Generated_Source\PSoC5/cyPm.c **** 
 432:.\Generated_Source\PSoC5/cyPm.c **** /*******************************************************************************
 433:.\Generated_Source\PSoC5/cyPm.c **** * Function Name: CyPmAltAct
 434:.\Generated_Source\PSoC5/cyPm.c **** ********************************************************************************
 435:.\Generated_Source\PSoC5/cyPm.c **** *
 436:.\Generated_Source\PSoC5/cyPm.c **** * Summary:
 437:.\Generated_Source\PSoC5/cyPm.c **** *  Puts the part into the Alternate Active (Standby) state. The Alternate Active
 438:.\Generated_Source\PSoC5/cyPm.c **** *  state can allow for any of the capabilities of the device to be active, but
ARM GAS  C:\Users\Heiwa\AppData\Local\Temp\cc88StSU.s 			page 22


 439:.\Generated_Source\PSoC5/cyPm.c **** *  the operation of this function is dependent on the CPU being disabled during
 440:.\Generated_Source\PSoC5/cyPm.c **** *  the Alternate Active state. The configuration code and the component APIs
 441:.\Generated_Source\PSoC5/cyPm.c **** *  will configure the template for the Alternate Active state to be the same as
 442:.\Generated_Source\PSoC5/cyPm.c **** *  the Active state with the exception that the CPU will be disabled during
 443:.\Generated_Source\PSoC5/cyPm.c **** *  Alternate Active.
 444:.\Generated_Source\PSoC5/cyPm.c **** *
 445:.\Generated_Source\PSoC5/cyPm.c **** *  Note Before calling this function, you must manually configure the power mode
 446:.\Generated_Source\PSoC5/cyPm.c **** *  of the source clocks for the timer that is used as the wakeup timer.
 447:.\Generated_Source\PSoC5/cyPm.c **** *
 448:.\Generated_Source\PSoC5/cyPm.c **** *  PSoC3:
 449:.\Generated_Source\PSoC5/cyPm.c **** *  Before switching to Alternate Active, if a wakeupTime other than NONE is
 450:.\Generated_Source\PSoC5/cyPm.c **** *  specified, then the appropriate timer state is configured as specified with
 451:.\Generated_Source\PSoC5/cyPm.c **** *  the interrupt for that timer disabled.  The wakeup source will be the
 452:.\Generated_Source\PSoC5/cyPm.c **** *  combination of the values specified in the wakeupSource and any timer
 453:.\Generated_Source\PSoC5/cyPm.c **** *  specified in the wakeupTime argument.  Once the wakeup condition is
 454:.\Generated_Source\PSoC5/cyPm.c **** *  satisfied, then all saved state is restored and the function returns in the
 455:.\Generated_Source\PSoC5/cyPm.c **** *  Active state.
 456:.\Generated_Source\PSoC5/cyPm.c **** *
 457:.\Generated_Source\PSoC5/cyPm.c **** *  Note that if the wakeupTime is made with a different value, the period before
 458:.\Generated_Source\PSoC5/cyPm.c **** *  the wakeup occurs can be significantly shorter than the specified time.  If
 459:.\Generated_Source\PSoC5/cyPm.c **** *  the next call is made with the same wakeupTime value, then the wakeup will
 460:.\Generated_Source\PSoC5/cyPm.c **** *  occur the specified period after the previous wakeup occurred.
 461:.\Generated_Source\PSoC5/cyPm.c **** *
 462:.\Generated_Source\PSoC5/cyPm.c **** *  If a wakeupTime other than NONE is specified, then upon exit the state of the
 463:.\Generated_Source\PSoC5/cyPm.c **** *  specified timer will be left as specified by wakeupTime with the timer
 464:.\Generated_Source\PSoC5/cyPm.c **** *  enabled and the interrupt disabled.  If the CTW, FTW or One PPS is already
 465:.\Generated_Source\PSoC5/cyPm.c **** *  configured for wakeup, for example with the SleepTimer or RTC components,
 466:.\Generated_Source\PSoC5/cyPm.c **** *  then specify NONE for the wakeupTime and include the appropriate source for
 467:.\Generated_Source\PSoC5/cyPm.c **** *  wakeupSource.
 468:.\Generated_Source\PSoC5/cyPm.c **** *
 469:.\Generated_Source\PSoC5/cyPm.c **** *  PSoC 5:
 470:.\Generated_Source\PSoC5/cyPm.c **** *  Neither of the parameters to this function are used for PSoC 5. The device
 471:.\Generated_Source\PSoC5/cyPm.c **** *  will go into Alternate Active mode until an enabled interrupt occurs.
 472:.\Generated_Source\PSoC5/cyPm.c **** *
 473:.\Generated_Source\PSoC5/cyPm.c **** * Parameters:
 474:.\Generated_Source\PSoC5/cyPm.c **** *  wakeupTime: Specifies a timer wakeup source and the frequency of that
 475:.\Generated_Source\PSoC5/cyPm.c **** *              source. For PSoC 5 this parameter is ignored.
 476:.\Generated_Source\PSoC5/cyPm.c **** *
 477:.\Generated_Source\PSoC5/cyPm.c **** *           Define                      Time
 478:.\Generated_Source\PSoC5/cyPm.c **** *  PM_ALT_ACT_TIME_NONE             None
 479:.\Generated_Source\PSoC5/cyPm.c **** *  PM_ALT_ACT_TIME_ONE_PPS          One PPS: 1 second
 480:.\Generated_Source\PSoC5/cyPm.c **** *  PM_ALT_ACT_TIME_CTW_2MS          CTW: 2 ms
 481:.\Generated_Source\PSoC5/cyPm.c **** *  PM_ALT_ACT_TIME_CTW_4MS          CTW: 4 ms
 482:.\Generated_Source\PSoC5/cyPm.c **** *  PM_ALT_ACT_TIME_CTW_8MS          CTW: 8 ms
 483:.\Generated_Source\PSoC5/cyPm.c **** *  PM_ALT_ACT_TIME_CTW_16MS         CTW: 16 ms
 484:.\Generated_Source\PSoC5/cyPm.c **** *  PM_ALT_ACT_TIME_CTW_32MS         CTW: 32 ms
 485:.\Generated_Source\PSoC5/cyPm.c **** *  PM_ALT_ACT_TIME_CTW_64MS         CTW: 64 ms
 486:.\Generated_Source\PSoC5/cyPm.c **** *  PM_ALT_ACT_TIME_CTW_128MS        CTW: 128 ms
 487:.\Generated_Source\PSoC5/cyPm.c **** *  PM_ALT_ACT_TIME_CTW_256MS        CTW: 256 ms
 488:.\Generated_Source\PSoC5/cyPm.c **** *  PM_ALT_ACT_TIME_CTW_512MS        CTW: 512 ms
 489:.\Generated_Source\PSoC5/cyPm.c **** *  PM_ALT_ACT_TIME_CTW_1024MS       CTW: 1024 ms
 490:.\Generated_Source\PSoC5/cyPm.c **** *  PM_ALT_ACT_TIME_CTW_2048MS       CTW: 2048 ms
 491:.\Generated_Source\PSoC5/cyPm.c **** *  PM_ALT_ACT_TIME_CTW_4096MS       CTW: 4096 ms
 492:.\Generated_Source\PSoC5/cyPm.c **** *  PM_ALT_ACT_TIME_FTW(1-256)*       FTW: 10us to 2.56 ms
 493:.\Generated_Source\PSoC5/cyPm.c **** *
 494:.\Generated_Source\PSoC5/cyPm.c **** *  *Note:   PM_ALT_ACT_TIME_FTW() is a macro that takes an argument that
 495:.\Generated_Source\PSoC5/cyPm.c **** *           specifies how many increments of 10 us to delay.
ARM GAS  C:\Users\Heiwa\AppData\Local\Temp\cc88StSU.s 			page 23


 496:.\Generated_Source\PSoC5/cyPm.c ****             For PSoC3 ES3 silicon the valid range of  values is 1 to 256.
 497:.\Generated_Source\PSoC5/cyPm.c **** *
 498:.\Generated_Source\PSoC5/cyPm.c **** *  wakeUpSource:    Specifies a bitwise mask of wakeup sources. In addition, if
 499:.\Generated_Source\PSoC5/cyPm.c **** *                   a wakeupTime has been specified the associated timer will be
 500:.\Generated_Source\PSoC5/cyPm.c **** *                   included as a wakeup source. For PSoC 5 this parameter is
 501:.\Generated_Source\PSoC5/cyPm.c **** *                   ignored.
 502:.\Generated_Source\PSoC5/cyPm.c **** *
 503:.\Generated_Source\PSoC5/cyPm.c **** *           Define                      Source
 504:.\Generated_Source\PSoC5/cyPm.c **** *  PM_ALT_ACT_SRC_NONE              None
 505:.\Generated_Source\PSoC5/cyPm.c **** *  PM_ALT_ACT_SRC_COMPARATOR0       Comparator 0
 506:.\Generated_Source\PSoC5/cyPm.c **** *  PM_ALT_ACT_SRC_COMPARATOR1       Comparator 1
 507:.\Generated_Source\PSoC5/cyPm.c **** *  PM_ALT_ACT_SRC_COMPARATOR2       Comparator 2
 508:.\Generated_Source\PSoC5/cyPm.c **** *  PM_ALT_ACT_SRC_COMPARATOR3       Comparator 3
 509:.\Generated_Source\PSoC5/cyPm.c **** *  PM_ALT_ACT_SRC_INTERRUPT         Interrupt
 510:.\Generated_Source\PSoC5/cyPm.c **** *  PM_ALT_ACT_SRC_PICU              PICU
 511:.\Generated_Source\PSoC5/cyPm.c **** *  PM_ALT_ACT_SRC_I2C               I2C
 512:.\Generated_Source\PSoC5/cyPm.c **** *  PM_ALT_ACT_SRC_BOOSTCONVERTER    Boost Converter
 513:.\Generated_Source\PSoC5/cyPm.c **** *  PM_ALT_ACT_SRC_FTW               Fast Timewheel*
 514:.\Generated_Source\PSoC5/cyPm.c **** *  PM_ALT_ACT_SRC_VD                High and Low Voltage Detection (HVI, LVI)*
 515:.\Generated_Source\PSoC5/cyPm.c **** *  PM_ALT_ACT_SRC_CTW               Central Timewheel**
 516:.\Generated_Source\PSoC5/cyPm.c **** *  PM_ALT_ACT_SRC_ONE_PPS           One PPS**
 517:.\Generated_Source\PSoC5/cyPm.c **** *  PM_ALT_ACT_SRC_LCD               LCD
 518:.\Generated_Source\PSoC5/cyPm.c **** *
 519:.\Generated_Source\PSoC5/cyPm.c **** *  *Note : FTW and HVI/LVI wakeup signals are in the same mask bit.
 520:.\Generated_Source\PSoC5/cyPm.c **** *  **Note: CTW and One PPS wakeup signals are in the same mask bit.
 521:.\Generated_Source\PSoC5/cyPm.c **** *
 522:.\Generated_Source\PSoC5/cyPm.c **** *  When specifying a Comparator as the wakeupSource an instance specific define
 523:.\Generated_Source\PSoC5/cyPm.c **** *  should be used that will track with the specific comparator that the instance
 524:.\Generated_Source\PSoC5/cyPm.c **** *  is placed into. As an example, for a Comparator instance named MyComp the
 525:.\Generated_Source\PSoC5/cyPm.c **** *  value to OR into the mask is: MyComp_ctComp__CMP_MASK.
 526:.\Generated_Source\PSoC5/cyPm.c **** *
 527:.\Generated_Source\PSoC5/cyPm.c **** *  When CTW, FTW or One PPS is used as a wakeup source, the CyPmReadStatus()
 528:.\Generated_Source\PSoC5/cyPm.c **** *  function must be called upon wakeup with corresponding parameter. Please
 529:.\Generated_Source\PSoC5/cyPm.c **** *  refer to the CyPmReadStatus() API in the System Reference Guide for more
 530:.\Generated_Source\PSoC5/cyPm.c **** *  information.
 531:.\Generated_Source\PSoC5/cyPm.c **** *
 532:.\Generated_Source\PSoC5/cyPm.c **** * Return:
 533:.\Generated_Source\PSoC5/cyPm.c **** *  None
 534:.\Generated_Source\PSoC5/cyPm.c **** *
 535:.\Generated_Source\PSoC5/cyPm.c **** * Reentrant:
 536:.\Generated_Source\PSoC5/cyPm.c **** *  No
 537:.\Generated_Source\PSoC5/cyPm.c **** *
 538:.\Generated_Source\PSoC5/cyPm.c **** * Side Effects:
 539:.\Generated_Source\PSoC5/cyPm.c **** *  For PSoC5 silicon, the wakeup source is not selectable. In this case the
 540:.\Generated_Source\PSoC5/cyPm.c **** *  wakeupSource argument is ignored and any of the available wakeup sources will
 541:.\Generated_Source\PSoC5/cyPm.c **** *  wake the device.
 542:.\Generated_Source\PSoC5/cyPm.c **** *
 543:.\Generated_Source\PSoC5/cyPm.c **** *  If a wakeupTime other than NONE is specified, then upon exit the state of the
 544:.\Generated_Source\PSoC5/cyPm.c **** *  specified timer will be left as specified by wakeupTime with the timer
 545:.\Generated_Source\PSoC5/cyPm.c **** *  enabled and the interrupt disabled.  Also, the ILO 1 KHz (if CTW timer is
 546:.\Generated_Source\PSoC5/cyPm.c **** *  used as wakeup time) or ILO 100 KHz (if FTW timer is used as wakeup time)
 547:.\Generated_Source\PSoC5/cyPm.c **** *  will be left started.
 548:.\Generated_Source\PSoC5/cyPm.c **** *
 549:.\Generated_Source\PSoC5/cyPm.c **** *******************************************************************************/
 550:.\Generated_Source\PSoC5/cyPm.c **** void CyPmAltAct(uint16 wakeupTime, uint16 wakeupSource) 
 551:.\Generated_Source\PSoC5/cyPm.c **** {
 749              		.loc 1 551 0
ARM GAS  C:\Users\Heiwa\AppData\Local\Temp\cc88StSU.s 			page 24


 750              		.cfi_startproc
 751              		@ args = 0, pretend = 0, frame = 8
 752              		@ frame_needed = 1, uses_anonymous_args = 0
 753 0000 80B5     		push	{r7, lr}
 754              	.LCFI5:
 755              		.cfi_def_cfa_offset 8
 756 0002 82B0     		sub	sp, sp, #8
 757              	.LCFI6:
 758              		.cfi_def_cfa_offset 16
 759 0004 00AF     		add	r7, sp, #0
 760              		.cfi_offset 14, -4
 761              		.cfi_offset 7, -8
 762              	.LCFI7:
 763              		.cfi_def_cfa_register 7
 764 0006 0246     		mov	r2, r0
 765 0008 0B46     		mov	r3, r1
 766 000a FA80     		strh	r2, [r7, #6]	@ movhi
 767 000c BB80     		strh	r3, [r7, #4]	@ movhi
 552:.\Generated_Source\PSoC5/cyPm.c ****     #if(CY_PSOC5A)
 553:.\Generated_Source\PSoC5/cyPm.c **** 
 554:.\Generated_Source\PSoC5/cyPm.c ****         /* Arguments expected to be 0 */
 555:.\Generated_Source\PSoC5/cyPm.c ****         CYASSERT((PM_ALT_ACT_TIME_NONE == wakeupTime) &&
 768              		.loc 1 555 0
 769 000e FB88     		ldrh	r3, [r7, #6]
 770 0010 002B     		cmp	r3, #0
 771 0012 02D1     		bne	.L39
 772 0014 BB88     		ldrh	r3, [r7, #4]
 773 0016 002B     		cmp	r3, #0
 774 0018 0ED0     		beq	.L40
 775              	.L39:
 776 001a FB88     		ldrh	r3, [r7, #6]
 777 001c 002B     		cmp	r3, #0
 778 001e 05D1     		bne	.L41
 779 0020 BB88     		ldrh	r3, [r7, #4]
 780 0022 002B     		cmp	r3, #0
 781 0024 02D1     		bne	.L41
 782 0026 4FF00103 		mov	r3, #1
 783 002a 01E0     		b	.L42
 784              	.L41:
 785 002c 4FF00003 		mov	r3, #0
 786              	.L42:
 787 0030 DBB2     		uxtb	r3, r3
 788 0032 1846     		mov	r0, r3
 789 0034 FFF7FEFF 		bl	CyHalt
 790              	.L40:
 556:.\Generated_Source\PSoC5/cyPm.c ****                  (PM_ALT_ACT_SRC_NONE  == wakeupSource));
 557:.\Generated_Source\PSoC5/cyPm.c **** 
 558:.\Generated_Source\PSoC5/cyPm.c ****         /* To remove unreferenced local variable warning */
 559:.\Generated_Source\PSoC5/cyPm.c ****         wakeupTime = wakeupTime;
 560:.\Generated_Source\PSoC5/cyPm.c ****         wakeupSource = wakeupSource;
 561:.\Generated_Source\PSoC5/cyPm.c **** 
 562:.\Generated_Source\PSoC5/cyPm.c ****     #endif /* (CY_PSOC5A) */
 563:.\Generated_Source\PSoC5/cyPm.c **** 
 564:.\Generated_Source\PSoC5/cyPm.c **** 
 565:.\Generated_Source\PSoC5/cyPm.c ****     #if(CY_PSOC3)
 566:.\Generated_Source\PSoC5/cyPm.c **** 
 567:.\Generated_Source\PSoC5/cyPm.c ****         /* FTW - save current and set new configuration */
ARM GAS  C:\Users\Heiwa\AppData\Local\Temp\cc88StSU.s 			page 25


 568:.\Generated_Source\PSoC5/cyPm.c ****         if((wakeupTime >= PM_ALT_ACT_TIME_FTW(1u)) && (wakeupTime <= PM_ALT_ACT_TIME_FTW(256u)))
 569:.\Generated_Source\PSoC5/cyPm.c ****         {
 570:.\Generated_Source\PSoC5/cyPm.c ****             CyPmFtwSetInterval(PM_ALT_ACT_FTW_INTERVAL(wakeupTime));
 571:.\Generated_Source\PSoC5/cyPm.c **** 
 572:.\Generated_Source\PSoC5/cyPm.c ****             /* Include associated timer to the wakeupSource */
 573:.\Generated_Source\PSoC5/cyPm.c ****             wakeupSource |= PM_ALT_ACT_SRC_FTW;
 574:.\Generated_Source\PSoC5/cyPm.c ****         }
 575:.\Generated_Source\PSoC5/cyPm.c **** 
 576:.\Generated_Source\PSoC5/cyPm.c ****         /* CTW - save current and set new configuration */
 577:.\Generated_Source\PSoC5/cyPm.c ****         if((wakeupTime >= PM_ALT_ACT_TIME_CTW_2MS) && (wakeupTime <= PM_ALT_ACT_TIME_CTW_4096MS))
 578:.\Generated_Source\PSoC5/cyPm.c ****         {
 579:.\Generated_Source\PSoC5/cyPm.c ****             /* Save current CTW configuration and set new one */
 580:.\Generated_Source\PSoC5/cyPm.c ****             CyPmCtwSetInterval((wakeupTime - 1u) & CY_PM_CTW_INTERVAL_MASK);
 581:.\Generated_Source\PSoC5/cyPm.c **** 
 582:.\Generated_Source\PSoC5/cyPm.c ****             /* Include associated timer to the wakeupSource */
 583:.\Generated_Source\PSoC5/cyPm.c ****             wakeupSource |= PM_ALT_ACT_SRC_CTW;
 584:.\Generated_Source\PSoC5/cyPm.c ****         }
 585:.\Generated_Source\PSoC5/cyPm.c **** 
 586:.\Generated_Source\PSoC5/cyPm.c ****         /* 1PPS - save current and set new configuration */
 587:.\Generated_Source\PSoC5/cyPm.c ****         if(PM_ALT_ACT_TIME_ONE_PPS == wakeupTime)
 588:.\Generated_Source\PSoC5/cyPm.c ****         {
 589:.\Generated_Source\PSoC5/cyPm.c ****             /* Save current 1PPS configuration and set new one */
 590:.\Generated_Source\PSoC5/cyPm.c ****             CyPmOppsSet();
 591:.\Generated_Source\PSoC5/cyPm.c **** 
 592:.\Generated_Source\PSoC5/cyPm.c ****             /* Include associated timer to the wakeupSource */
 593:.\Generated_Source\PSoC5/cyPm.c ****             wakeupSource |= PM_ALT_ACT_SRC_ONE_PPS;
 594:.\Generated_Source\PSoC5/cyPm.c ****         }
 595:.\Generated_Source\PSoC5/cyPm.c **** 
 596:.\Generated_Source\PSoC5/cyPm.c ****     #endif /* (CY_PSOC3) */
 597:.\Generated_Source\PSoC5/cyPm.c **** 
 598:.\Generated_Source\PSoC5/cyPm.c ****     #if(CY_PSOC3 || CY_PSOC5LP)
 599:.\Generated_Source\PSoC5/cyPm.c **** 
 600:.\Generated_Source\PSoC5/cyPm.c ****         /* Save and set new wake up configuration */
 601:.\Generated_Source\PSoC5/cyPm.c **** 
 602:.\Generated_Source\PSoC5/cyPm.c ****         /* Interrupt, PICU, I2C, Boost converter, CTW/1PPS */
 603:.\Generated_Source\PSoC5/cyPm.c ****         cyPmBackup.wakeupCfg0 = CY_PM_WAKEUP_CFG0_REG;
 604:.\Generated_Source\PSoC5/cyPm.c ****         CY_PM_WAKEUP_CFG0_REG = (uint8) (wakeupSource >> 4u);
 605:.\Generated_Source\PSoC5/cyPm.c **** 
 606:.\Generated_Source\PSoC5/cyPm.c ****         /* Comparators */
 607:.\Generated_Source\PSoC5/cyPm.c ****         cyPmBackup.wakeupCfg1 = CY_PM_WAKEUP_CFG1_REG;
 608:.\Generated_Source\PSoC5/cyPm.c ****         CY_PM_WAKEUP_CFG1_REG = (((uint8) wakeupSource) & CY_PM_WAKEUP_SRC_CMPS_MASK);
 609:.\Generated_Source\PSoC5/cyPm.c **** 
 610:.\Generated_Source\PSoC5/cyPm.c ****         /* LCD */
 611:.\Generated_Source\PSoC5/cyPm.c ****         cyPmBackup.wakeupCfg2 = CY_PM_WAKEUP_CFG2_REG;
 612:.\Generated_Source\PSoC5/cyPm.c ****         CY_PM_WAKEUP_CFG2_REG = ((uint8) ((wakeupSource >> 12u) & 0x01u));
 613:.\Generated_Source\PSoC5/cyPm.c **** 
 614:.\Generated_Source\PSoC5/cyPm.c ****     #endif  /* (CY_PSOC3 || CY_PSOC5LP) */
 615:.\Generated_Source\PSoC5/cyPm.c **** 
 616:.\Generated_Source\PSoC5/cyPm.c ****     /* Switch to the Alternate Active mode */
 617:.\Generated_Source\PSoC5/cyPm.c ****     CY_PM_MODE_CSR_REG = ((CY_PM_MODE_CSR_REG & ~CY_PM_MODE_CSR_MASK) | CY_PM_MODE_CSR_ALT_ACT);
 791              		.loc 1 617 0
 792 0038 44F29333 		movw	r3, #:lower16:1073759123
 793 003c C4F20003 		movt	r3, #:upper16:1073759123
 794 0040 44F29332 		movw	r2, #:lower16:1073759123
 795 0044 C4F20002 		movt	r2, #:upper16:1073759123
 796 0048 1278     		ldrb	r2, [r2, #0]
 797 004a D2B2     		uxtb	r2, r2
ARM GAS  C:\Users\Heiwa\AppData\Local\Temp\cc88StSU.s 			page 26


 798 004c 02F0F802 		and	r2, r2, #248
 799 0050 42F00102 		orr	r2, r2, #1
 800 0054 D2B2     		uxtb	r2, r2
 801 0056 1A70     		strb	r2, [r3, #0]
 618:.\Generated_Source\PSoC5/cyPm.c **** 
 619:.\Generated_Source\PSoC5/cyPm.c ****     /* Recommended readback. */
 620:.\Generated_Source\PSoC5/cyPm.c ****     (void) CY_PM_MODE_CSR_REG;
 802              		.loc 1 620 0
 803 0058 44F29333 		movw	r3, #:lower16:1073759123
 804 005c C4F20003 		movt	r3, #:upper16:1073759123
 805 0060 1B78     		ldrb	r3, [r3, #0]
 621:.\Generated_Source\PSoC5/cyPm.c **** 
 622:.\Generated_Source\PSoC5/cyPm.c ****     /* Two recommended NOPs to get into the mode. */
 623:.\Generated_Source\PSoC5/cyPm.c ****     CY_NOP;
 806              		.loc 1 623 0
 807              	@ 623 ".\Generated_Source\PSoC5\cyPm.c" 1
 808 0062 00BF     		NOP
 809              	
 810              	@ 0 "" 2
 624:.\Generated_Source\PSoC5/cyPm.c ****     CY_NOP;
 811              		.loc 1 624 0
 812              	@ 624 ".\Generated_Source\PSoC5\cyPm.c" 1
 813 0064 00BF     		NOP
 814              	
 815              	@ 0 "" 2
 625:.\Generated_Source\PSoC5/cyPm.c **** 
 626:.\Generated_Source\PSoC5/cyPm.c ****     /* Execute WFI instruction (for PSoC5 devices only) */
 627:.\Generated_Source\PSoC5/cyPm.c ****     CY_PM_WFI;
 816              		.loc 1 627 0
 817              	@ 627 ".\Generated_Source\PSoC5\cyPm.c" 1
 818 0066 30BF     		WFI 
 819              	
 820              	@ 0 "" 2
 628:.\Generated_Source\PSoC5/cyPm.c **** 
 629:.\Generated_Source\PSoC5/cyPm.c ****     /* Point of return from Alternate Active Mode */
 630:.\Generated_Source\PSoC5/cyPm.c **** 
 631:.\Generated_Source\PSoC5/cyPm.c ****     /* Device is PSoC 3 and the revision is ES3 or later. */
 632:.\Generated_Source\PSoC5/cyPm.c ****     #if(CY_PSOC3 || CY_PSOC5LP)
 633:.\Generated_Source\PSoC5/cyPm.c **** 
 634:.\Generated_Source\PSoC5/cyPm.c ****         /* Restore wake up configuration */
 635:.\Generated_Source\PSoC5/cyPm.c ****         CY_PM_WAKEUP_CFG0_REG = cyPmBackup.wakeupCfg0;
 636:.\Generated_Source\PSoC5/cyPm.c ****         CY_PM_WAKEUP_CFG1_REG = cyPmBackup.wakeupCfg1;
 637:.\Generated_Source\PSoC5/cyPm.c ****         CY_PM_WAKEUP_CFG2_REG = cyPmBackup.wakeupCfg2;
 638:.\Generated_Source\PSoC5/cyPm.c **** 
 639:.\Generated_Source\PSoC5/cyPm.c ****     #endif  /* (CY_PSOC3 || CY_PSOC5LP) */
 640:.\Generated_Source\PSoC5/cyPm.c **** }
 821              		.loc 1 640 0
 822              		.thumb
 823 0068 07F10807 		add	r7, r7, #8
 824 006c BD46     		mov	sp, r7
 825 006e 80BD     		pop	{r7, pc}
 826              		.cfi_endproc
 827              	.LFE2:
 828              		.size	CyPmAltAct, .-CyPmAltAct
 829              		.section	.text.CyPmSleep,"ax",%progbits
 830              		.align	2
 831              		.global	CyPmSleep
ARM GAS  C:\Users\Heiwa\AppData\Local\Temp\cc88StSU.s 			page 27


 832              		.thumb
 833              		.thumb_func
 834              		.type	CyPmSleep, %function
 835              	CyPmSleep:
 836              	.LFB3:
 641:.\Generated_Source\PSoC5/cyPm.c **** 
 642:.\Generated_Source\PSoC5/cyPm.c **** 
 643:.\Generated_Source\PSoC5/cyPm.c **** /*******************************************************************************
 644:.\Generated_Source\PSoC5/cyPm.c **** * Function Name: CyPmSleep
 645:.\Generated_Source\PSoC5/cyPm.c **** ********************************************************************************
 646:.\Generated_Source\PSoC5/cyPm.c **** *
 647:.\Generated_Source\PSoC5/cyPm.c **** * Summary:
 648:.\Generated_Source\PSoC5/cyPm.c **** *  Puts the part into the Sleep state.
 649:.\Generated_Source\PSoC5/cyPm.c **** *
 650:.\Generated_Source\PSoC5/cyPm.c **** *  Note Before calling this function, you must manually configure the power
 651:.\Generated_Source\PSoC5/cyPm.c **** *  mode of the source clocks for the timer that is used as wakeup timer.
 652:.\Generated_Source\PSoC5/cyPm.c **** *
 653:.\Generated_Source\PSoC5/cyPm.c **** *  PSoC3:
 654:.\Generated_Source\PSoC5/cyPm.c **** *  Before switching to Sleep, if a wakeupTime other than NONE is specified,
 655:.\Generated_Source\PSoC5/cyPm.c **** *  then the appropriate timer state is configured as specified with the
 656:.\Generated_Source\PSoC5/cyPm.c **** *  interrupt for that timer disabled.  The wakeup source will be the combination
 657:.\Generated_Source\PSoC5/cyPm.c **** *  of the values specified in the wakeupSource and any timer specified in the
 658:.\Generated_Source\PSoC5/cyPm.c **** *  wakeupTime argument.  Once the wakeup condition is satisfied, then all saved
 659:.\Generated_Source\PSoC5/cyPm.c **** *  state is restored and the function returns in the Active state.
 660:.\Generated_Source\PSoC5/cyPm.c **** *
 661:.\Generated_Source\PSoC5/cyPm.c **** *  Note that if the wakeupTime is made with a different value, the period before
 662:.\Generated_Source\PSoC5/cyPm.c **** *  the wakeup occurs can be significantly shorter than the specified time.  If
 663:.\Generated_Source\PSoC5/cyPm.c **** *  the next call is made with the same wakeupTime value, then the wakeup will
 664:.\Generated_Source\PSoC5/cyPm.c **** *  occur the specified period after the previous wakeup occurred.
 665:.\Generated_Source\PSoC5/cyPm.c **** *
 666:.\Generated_Source\PSoC5/cyPm.c **** *  If a wakeupTime other than NONE is specified, then upon exit the state of the
 667:.\Generated_Source\PSoC5/cyPm.c **** *  specified timer will be left as specified by wakeupTime with the timer
 668:.\Generated_Source\PSoC5/cyPm.c **** *  enabled and the interrupt disabled.  If the CTW or One PPS is already
 669:.\Generated_Source\PSoC5/cyPm.c **** *  configured for wakeup, for example with the SleepTimer or RTC components,
 670:.\Generated_Source\PSoC5/cyPm.c **** *  then specify NONE for the wakeupTime and include the appropriate source for
 671:.\Generated_Source\PSoC5/cyPm.c **** *  wakeupSource.
 672:.\Generated_Source\PSoC5/cyPm.c **** *
 673:.\Generated_Source\PSoC5/cyPm.c **** *  PSoC 5:
 674:.\Generated_Source\PSoC5/cyPm.c **** *  Neither parameter to this function is used for PSoC 5. The device will go
 675:.\Generated_Source\PSoC5/cyPm.c **** *  into Sleep mode until it is woken by an interrupt from the Central Time Wheel
 676:.\Generated_Source\PSoC5/cyPm.c **** *  (CTW). The CTW must already be configured to generate an interrupt. It is
 677:.\Generated_Source\PSoC5/cyPm.c **** *  configured using the SleepTimer component.  Only the CTW can be used to wake
 678:.\Generated_Source\PSoC5/cyPm.c **** *  the device from sleep mode.  The other wakeup sources, Once per second or
 679:.\Generated_Source\PSoC5/cyPm.c **** *  Port Interrupt Controller (PICU), cannot be used reliably with PSoC 5. This
 680:.\Generated_Source\PSoC5/cyPm.c **** *  function automatically disables these interrupt sources and then restores
 681:.\Generated_Source\PSoC5/cyPm.c **** *  them after the devices is woken by the CTW.
 682:.\Generated_Source\PSoC5/cyPm.c **** *
 683:.\Generated_Source\PSoC5/cyPm.c **** *  The duration of sleep needs to be controlled so that the device doesn't wake
 684:.\Generated_Source\PSoC5/cyPm.c **** *  up too soon after going to sleep or remain asleep for too long.  Reliable
 685:.\Generated_Source\PSoC5/cyPm.c **** *  sleep times of between 1ms and 8ms can be supported.  This requirement is
 686:.\Generated_Source\PSoC5/cyPm.c **** *  satisfied with CTW settings of 4, 8 or 16 ms.  To control the sleep time the
 687:.\Generated_Source\PSoC5/cyPm.c **** *  CTW is reset automatically just before putting the device to sleep.  The
 688:.\Generated_Source\PSoC5/cyPm.c **** *  resulting wakeup time is half the duration programmed into the CTW with an
 689:.\Generated_Source\PSoC5/cyPm.c **** *  uncertainty of 1 ms due to the arrival time of the first ILO clock edge.
 690:.\Generated_Source\PSoC5/cyPm.c **** *  For example, the setting of 4 ms will result in a sleep time between 1 ms and
 691:.\Generated_Source\PSoC5/cyPm.c **** *  2 ms.
 692:.\Generated_Source\PSoC5/cyPm.c **** *
ARM GAS  C:\Users\Heiwa\AppData\Local\Temp\cc88StSU.s 			page 28


 693:.\Generated_Source\PSoC5/cyPm.c **** * Parameters:
 694:.\Generated_Source\PSoC5/cyPm.c **** *  wakeupTime:      Specifies a timer wakeup source and the frequency of that
 695:.\Generated_Source\PSoC5/cyPm.c **** *                   source. For PSoC 5, this parameter is ignored.
 696:.\Generated_Source\PSoC5/cyPm.c **** *
 697:.\Generated_Source\PSoC5/cyPm.c **** *           Define                      Time
 698:.\Generated_Source\PSoC5/cyPm.c **** *  PM_SLEEP_TIME_NONE               None
 699:.\Generated_Source\PSoC5/cyPm.c **** *  PM_SLEEP_TIME_ONE_PPS            One PPS: 1 second
 700:.\Generated_Source\PSoC5/cyPm.c **** *  PM_SLEEP_TIME_CTW_2MS            CTW: 2 ms
 701:.\Generated_Source\PSoC5/cyPm.c **** *  PM_SLEEP_TIME_CTW_4MS            CTW: 4 ms
 702:.\Generated_Source\PSoC5/cyPm.c **** *  PM_SLEEP_TIME_CTW_8MS            CTW: 8 ms
 703:.\Generated_Source\PSoC5/cyPm.c **** *  PM_SLEEP_TIME_CTW_16MS           CTW: 16 ms
 704:.\Generated_Source\PSoC5/cyPm.c **** *  PM_SLEEP_TIME_CTW_32MS           CTW: 32 ms
 705:.\Generated_Source\PSoC5/cyPm.c **** *  PM_SLEEP_TIME_CTW_64MS           CTW: 64 ms
 706:.\Generated_Source\PSoC5/cyPm.c **** *  PM_SLEEP_TIME_CTW_128MS          CTW: 128 ms
 707:.\Generated_Source\PSoC5/cyPm.c **** *  PM_SLEEP_TIME_CTW_256MS          CTW: 256 ms
 708:.\Generated_Source\PSoC5/cyPm.c **** *  PM_SLEEP_TIME_CTW_512MS          CTW: 512 ms
 709:.\Generated_Source\PSoC5/cyPm.c **** *  PM_SLEEP_TIME_CTW_1024MS         CTW: 1024 ms
 710:.\Generated_Source\PSoC5/cyPm.c **** *  PM_SLEEP_TIME_CTW_2048MS         CTW: 2048 ms
 711:.\Generated_Source\PSoC5/cyPm.c **** *  PM_SLEEP_TIME_CTW_4096MS         CTW: 4096 ms
 712:.\Generated_Source\PSoC5/cyPm.c **** *
 713:.\Generated_Source\PSoC5/cyPm.c **** *  wakeUpSource:    Specifies a bitwise mask of wakeup sources. In addition, if
 714:.\Generated_Source\PSoC5/cyPm.c **** *                   a wakeupTime has been specified the associated timer will be
 715:.\Generated_Source\PSoC5/cyPm.c **** *                   included as a wakeup source. For PSoC 5 this parameter is
 716:.\Generated_Source\PSoC5/cyPm.c **** *                   ignored.
 717:.\Generated_Source\PSoC5/cyPm.c **** *
 718:.\Generated_Source\PSoC5/cyPm.c **** *           Define                      Source
 719:.\Generated_Source\PSoC5/cyPm.c **** *  PM_SLEEP_SRC_NONE                None
 720:.\Generated_Source\PSoC5/cyPm.c **** *  PM_SLEEP_SRC_COMPARATOR0         Comparator 0
 721:.\Generated_Source\PSoC5/cyPm.c **** *  PM_SLEEP_SRC_COMPARATOR1         Comparator 1
 722:.\Generated_Source\PSoC5/cyPm.c **** *  PM_SLEEP_SRC_COMPARATOR2         Comparator 2
 723:.\Generated_Source\PSoC5/cyPm.c **** *  PM_SLEEP_SRC_COMPARATOR3         Comparator 3
 724:.\Generated_Source\PSoC5/cyPm.c **** *  PM_SLEEP_SRC_PICU                PICU
 725:.\Generated_Source\PSoC5/cyPm.c **** *  PM_SLEEP_SRC_I2C                 I2C
 726:.\Generated_Source\PSoC5/cyPm.c **** *  PM_SLEEP_SRC_BOOSTCONVERTER      Boost Converter
 727:.\Generated_Source\PSoC5/cyPm.c **** *  PM_SLEEP_SRC_VD                  High and Low Voltage Detection (HVI, LVI)
 728:.\Generated_Source\PSoC5/cyPm.c **** *  PM_SLEEP_SRC_CTW                 Central Timewheel*
 729:.\Generated_Source\PSoC5/cyPm.c **** *  PM_SLEEP_SRC_ONE_PPS             One PPS*
 730:.\Generated_Source\PSoC5/cyPm.c **** *  PM_SLEEP_SRC_LCD                 LCD
 731:.\Generated_Source\PSoC5/cyPm.c **** *
 732:.\Generated_Source\PSoC5/cyPm.c **** *  *Note:   CTW and One PPS wakeup signals are in the same mask bit.
 733:.\Generated_Source\PSoC5/cyPm.c **** *           For PSoC 5, these are in a different bit (value 1024).
 734:.\Generated_Source\PSoC5/cyPm.c **** *
 735:.\Generated_Source\PSoC5/cyPm.c **** *  When specifying a Comparator as the wakeupSource an instance specific define
 736:.\Generated_Source\PSoC5/cyPm.c **** *  should be used that will track with the specific comparator that the instance
 737:.\Generated_Source\PSoC5/cyPm.c **** *  is placed into. As an example for a Comparator instance named MyComp the
 738:.\Generated_Source\PSoC5/cyPm.c **** *  value to OR into the mask is: MyComp_ctComp__CMP_MASK.
 739:.\Generated_Source\PSoC5/cyPm.c **** *
 740:.\Generated_Source\PSoC5/cyPm.c **** *  When CTW or One PPS is used as a wakeup source, the CyPmReadStatus()
 741:.\Generated_Source\PSoC5/cyPm.c **** *  function must be called upon wakeup with corresponding parameter. Please
 742:.\Generated_Source\PSoC5/cyPm.c **** *  refer to the CyPmReadStatus() API in the System Reference Guide for more
 743:.\Generated_Source\PSoC5/cyPm.c **** *  information.
 744:.\Generated_Source\PSoC5/cyPm.c **** *
 745:.\Generated_Source\PSoC5/cyPm.c **** * Return:
 746:.\Generated_Source\PSoC5/cyPm.c **** *  None
 747:.\Generated_Source\PSoC5/cyPm.c **** *
 748:.\Generated_Source\PSoC5/cyPm.c **** * Reentrant:
 749:.\Generated_Source\PSoC5/cyPm.c **** *  No
ARM GAS  C:\Users\Heiwa\AppData\Local\Temp\cc88StSU.s 			page 29


 750:.\Generated_Source\PSoC5/cyPm.c **** *
 751:.\Generated_Source\PSoC5/cyPm.c **** * Side Effects:
 752:.\Generated_Source\PSoC5/cyPm.c **** *  For PSoC 5 silicon the wakeup source is not selectable. In this case the
 753:.\Generated_Source\PSoC5/cyPm.c **** *  wakeupSource argument is ignored and any of the available wakeup sources will
 754:.\Generated_Source\PSoC5/cyPm.c **** *  wake the device.
 755:.\Generated_Source\PSoC5/cyPm.c **** *
 756:.\Generated_Source\PSoC5/cyPm.c **** *  If a wakeupTime other than NONE is specified, then upon exit the state of the
 757:.\Generated_Source\PSoC5/cyPm.c **** *  specified timer will be left as specified by wakeupTime with the timer
 758:.\Generated_Source\PSoC5/cyPm.c **** *  enabled and the interrupt disabled. Also, the ILO 1 KHz (if CTW timer is
 759:.\Generated_Source\PSoC5/cyPm.c **** *  used as wake up time) will be left started.
 760:.\Generated_Source\PSoC5/cyPm.c **** *
 761:.\Generated_Source\PSoC5/cyPm.c **** *  The 1 kHz ILO clock is expected to be enabled for PSoC3 silicon to
 762:.\Generated_Source\PSoC5/cyPm.c **** *  measure Hibernate/Sleep regulator settling time after a reset. The holdoff
 763:.\Generated_Source\PSoC5/cyPm.c **** *  delay is measured using rising edges of the 1 kHz ILO.
 764:.\Generated_Source\PSoC5/cyPm.c **** *
 765:.\Generated_Source\PSoC5/cyPm.c **** *******************************************************************************/
 766:.\Generated_Source\PSoC5/cyPm.c **** void CyPmSleep(uint8 wakeupTime, uint16 wakeupSource) 
 767:.\Generated_Source\PSoC5/cyPm.c **** {
 837              		.loc 1 767 0
 838              		.cfi_startproc
 839              		@ args = 0, pretend = 0, frame = 16
 840              		@ frame_needed = 1, uses_anonymous_args = 0
 841 0000 80B5     		push	{r7, lr}
 842              	.LCFI8:
 843              		.cfi_def_cfa_offset 8
 844 0002 84B0     		sub	sp, sp, #16
 845              	.LCFI9:
 846              		.cfi_def_cfa_offset 24
 847 0004 00AF     		add	r7, sp, #0
 848              		.cfi_offset 14, -4
 849              		.cfi_offset 7, -8
 850              	.LCFI10:
 851              		.cfi_def_cfa_register 7
 852 0006 0246     		mov	r2, r0
 853 0008 0B46     		mov	r3, r1
 854 000a FA71     		strb	r2, [r7, #7]
 855 000c BB80     		strh	r3, [r7, #4]	@ movhi
 768:.\Generated_Source\PSoC5/cyPm.c ****     uint8 interruptState;
 769:.\Generated_Source\PSoC5/cyPm.c **** 
 770:.\Generated_Source\PSoC5/cyPm.c ****     /* Save current global interrupt enable and disable it */
 771:.\Generated_Source\PSoC5/cyPm.c ****     interruptState = CyEnterCriticalSection();
 856              		.loc 1 771 0
 857 000e FFF7FEFF 		bl	CyEnterCriticalSection
 858 0012 0346     		mov	r3, r0
 859 0014 FB73     		strb	r3, [r7, #15]
 772:.\Generated_Source\PSoC5/cyPm.c **** 
 773:.\Generated_Source\PSoC5/cyPm.c ****     /* Device is PSoC 3 and the revision is ES3 or later */
 774:.\Generated_Source\PSoC5/cyPm.c ****     #if(CY_PSOC3)
 775:.\Generated_Source\PSoC5/cyPm.c **** 
 776:.\Generated_Source\PSoC5/cyPm.c ****         /* Hardware buzz expected to be disabled below for TO6 */
 777:.\Generated_Source\PSoC5/cyPm.c ****         if(CYDEV_CHIP_REV_ACTUAL < 5u)
 778:.\Generated_Source\PSoC5/cyPm.c ****         {
 779:.\Generated_Source\PSoC5/cyPm.c ****             CYASSERT(0u == (CY_PM_PWRSYS_WAKE_TR2_REG & CY_PM_PWRSYS_WAKE_TR2_EN_BUZZ));
 780:.\Generated_Source\PSoC5/cyPm.c ****         }
 781:.\Generated_Source\PSoC5/cyPm.c **** 
 782:.\Generated_Source\PSoC5/cyPm.c ****         /***********************************************************************
 783:.\Generated_Source\PSoC5/cyPm.c ****         * The Hibernate/Sleep regulator has a settling time after a reset.
ARM GAS  C:\Users\Heiwa\AppData\Local\Temp\cc88StSU.s 			page 30


 784:.\Generated_Source\PSoC5/cyPm.c ****         * During this time, the system ignores requests to enter Sleep and
 785:.\Generated_Source\PSoC5/cyPm.c ****         * Hibernate modes. The holdoff delay is measured using rising edges of
 786:.\Generated_Source\PSoC5/cyPm.c ****         * the 1 kHz ILO.
 787:.\Generated_Source\PSoC5/cyPm.c ****         ***********************************************************************/
 788:.\Generated_Source\PSoC5/cyPm.c ****         if(0u == (CY_PM_MODE_CSR_REG & CY_PM_MODE_CSR_PWRUP_PULSE_Q))
 789:.\Generated_Source\PSoC5/cyPm.c ****         {
 790:.\Generated_Source\PSoC5/cyPm.c ****             /* Disable hold off - no action on restore */
 791:.\Generated_Source\PSoC5/cyPm.c ****             CY_PM_PWRSYS_SLP_TR_REG &= CY_PM_PWRSYS_SLP_TR_HIBSLP_HOLDOFF_MASK;
 792:.\Generated_Source\PSoC5/cyPm.c ****         }
 793:.\Generated_Source\PSoC5/cyPm.c ****         else
 794:.\Generated_Source\PSoC5/cyPm.c ****         {
 795:.\Generated_Source\PSoC5/cyPm.c ****             /* Abort, device is not ready for low power mode entry */
 796:.\Generated_Source\PSoC5/cyPm.c ****             return;
 797:.\Generated_Source\PSoC5/cyPm.c ****         }
 798:.\Generated_Source\PSoC5/cyPm.c **** 
 799:.\Generated_Source\PSoC5/cyPm.c ****     #endif /* (CY_PSOC3) */
 800:.\Generated_Source\PSoC5/cyPm.c **** 
 801:.\Generated_Source\PSoC5/cyPm.c **** 
 802:.\Generated_Source\PSoC5/cyPm.c ****     /* Verify correctness of the parameters */
 803:.\Generated_Source\PSoC5/cyPm.c ****     #if(CY_PSOC5A)
 804:.\Generated_Source\PSoC5/cyPm.c **** 
 805:.\Generated_Source\PSoC5/cyPm.c ****         /* Arguments expected to be 0 */
 806:.\Generated_Source\PSoC5/cyPm.c ****         CYASSERT((PM_SLEEP_TIME_NONE == wakeupTime) &&
 860              		.loc 1 806 0
 861 0016 FB79     		ldrb	r3, [r7, #7]	@ zero_extendqisi2
 862 0018 002B     		cmp	r3, #0
 863 001a 02D1     		bne	.L45
 864 001c BB88     		ldrh	r3, [r7, #4]
 865 001e 002B     		cmp	r3, #0
 866 0020 0ED0     		beq	.L46
 867              	.L45:
 868 0022 FB79     		ldrb	r3, [r7, #7]	@ zero_extendqisi2
 869 0024 002B     		cmp	r3, #0
 870 0026 05D1     		bne	.L47
 871 0028 BB88     		ldrh	r3, [r7, #4]
 872 002a 002B     		cmp	r3, #0
 873 002c 02D1     		bne	.L47
 874 002e 4FF00103 		mov	r3, #1
 875 0032 01E0     		b	.L48
 876              	.L47:
 877 0034 4FF00003 		mov	r3, #0
 878              	.L48:
 879 0038 DBB2     		uxtb	r3, r3
 880 003a 1846     		mov	r0, r3
 881 003c FFF7FEFF 		bl	CyHalt
 882              	.L46:
 807:.\Generated_Source\PSoC5/cyPm.c ****                  (PM_SLEEP_SRC_NONE  == wakeupSource));
 808:.\Generated_Source\PSoC5/cyPm.c **** 
 809:.\Generated_Source\PSoC5/cyPm.c ****         /* To remove unreferenced local variable warning */
 810:.\Generated_Source\PSoC5/cyPm.c ****         wakeupTime = wakeupTime;
 811:.\Generated_Source\PSoC5/cyPm.c ****         wakeupSource = wakeupSource;
 812:.\Generated_Source\PSoC5/cyPm.c **** 
 813:.\Generated_Source\PSoC5/cyPm.c ****     #endif /* (CY_PSOC5A) */
 814:.\Generated_Source\PSoC5/cyPm.c **** 
 815:.\Generated_Source\PSoC5/cyPm.c **** 
 816:.\Generated_Source\PSoC5/cyPm.c ****     /* Prepare hardware for Sleep mode */
 817:.\Generated_Source\PSoC5/cyPm.c ****     CyPmSlpSaveSet();
ARM GAS  C:\Users\Heiwa\AppData\Local\Temp\cc88StSU.s 			page 31


 883              		.loc 1 817 0
 884 0040 FFF7FEFF 		bl	CyPmSlpSaveSet
 818:.\Generated_Source\PSoC5/cyPm.c **** 
 819:.\Generated_Source\PSoC5/cyPm.c **** 
 820:.\Generated_Source\PSoC5/cyPm.c ****     #if(CY_PSOC3)
 821:.\Generated_Source\PSoC5/cyPm.c **** 
 822:.\Generated_Source\PSoC5/cyPm.c ****         /* CTW - save current and set new configuration */
 823:.\Generated_Source\PSoC5/cyPm.c ****         if((wakeupTime >= PM_SLEEP_TIME_CTW_2MS) && (wakeupTime <= PM_SLEEP_TIME_CTW_4096MS))
 824:.\Generated_Source\PSoC5/cyPm.c ****         {
 825:.\Generated_Source\PSoC5/cyPm.c ****             /* Save current and set new configuration of the CTW */
 826:.\Generated_Source\PSoC5/cyPm.c ****             CyPmCtwSetInterval((wakeupTime - 1u) & CY_PM_CTW_INTERVAL_MASK);
 827:.\Generated_Source\PSoC5/cyPm.c **** 
 828:.\Generated_Source\PSoC5/cyPm.c ****             /* Include associated timer to the wakeupSource */
 829:.\Generated_Source\PSoC5/cyPm.c ****             wakeupSource |= PM_SLEEP_SRC_CTW;
 830:.\Generated_Source\PSoC5/cyPm.c ****         }
 831:.\Generated_Source\PSoC5/cyPm.c **** 
 832:.\Generated_Source\PSoC5/cyPm.c ****         /* 1PPS - save current and set new configuration */
 833:.\Generated_Source\PSoC5/cyPm.c ****         if(PM_SLEEP_TIME_ONE_PPS == wakeupTime)
 834:.\Generated_Source\PSoC5/cyPm.c ****         {
 835:.\Generated_Source\PSoC5/cyPm.c ****             /* Save current and set new configuration of the 1PPS */
 836:.\Generated_Source\PSoC5/cyPm.c ****             CyPmOppsSet();
 837:.\Generated_Source\PSoC5/cyPm.c **** 
 838:.\Generated_Source\PSoC5/cyPm.c ****             /* Include associated timer to the wakeupSource */
 839:.\Generated_Source\PSoC5/cyPm.c ****             wakeupSource |= PM_SLEEP_SRC_ONE_PPS;
 840:.\Generated_Source\PSoC5/cyPm.c ****         }
 841:.\Generated_Source\PSoC5/cyPm.c **** 
 842:.\Generated_Source\PSoC5/cyPm.c ****     #endif /* (CY_PSOC3) */
 843:.\Generated_Source\PSoC5/cyPm.c **** 
 844:.\Generated_Source\PSoC5/cyPm.c **** 
 845:.\Generated_Source\PSoC5/cyPm.c ****     #if(CY_PSOC3 || CY_PSOC5LP)
 846:.\Generated_Source\PSoC5/cyPm.c **** 
 847:.\Generated_Source\PSoC5/cyPm.c ****         /* Save and set new wake up configuration */
 848:.\Generated_Source\PSoC5/cyPm.c **** 
 849:.\Generated_Source\PSoC5/cyPm.c ****         /* Interrupt, PICU, I2C, Boost converter, CTW/1PPS */
 850:.\Generated_Source\PSoC5/cyPm.c ****         cyPmBackup.wakeupCfg0 = CY_PM_WAKEUP_CFG0_REG;
 851:.\Generated_Source\PSoC5/cyPm.c ****         CY_PM_WAKEUP_CFG0_REG = (uint8) (wakeupSource >> 4u);
 852:.\Generated_Source\PSoC5/cyPm.c **** 
 853:.\Generated_Source\PSoC5/cyPm.c ****         /* Comparators */
 854:.\Generated_Source\PSoC5/cyPm.c ****         cyPmBackup.wakeupCfg1 = CY_PM_WAKEUP_CFG1_REG;
 855:.\Generated_Source\PSoC5/cyPm.c ****         CY_PM_WAKEUP_CFG1_REG = (((uint8) wakeupSource) & CY_PM_WAKEUP_SRC_CMPS_MASK);
 856:.\Generated_Source\PSoC5/cyPm.c **** 
 857:.\Generated_Source\PSoC5/cyPm.c ****         /* LCD */
 858:.\Generated_Source\PSoC5/cyPm.c ****         cyPmBackup.wakeupCfg2 = CY_PM_WAKEUP_CFG2_REG;
 859:.\Generated_Source\PSoC5/cyPm.c ****         CY_PM_WAKEUP_CFG2_REG = ((uint8) ((wakeupSource >> 12u) & 0x01u));
 860:.\Generated_Source\PSoC5/cyPm.c **** 
 861:.\Generated_Source\PSoC5/cyPm.c ****     #endif /* (CY_PSOC3 || CY_PSOC5LP) */
 862:.\Generated_Source\PSoC5/cyPm.c **** 
 863:.\Generated_Source\PSoC5/cyPm.c **** 
 864:.\Generated_Source\PSoC5/cyPm.c ****     /* Last moment IMO frequency change */
 865:.\Generated_Source\PSoC5/cyPm.c ****     if(0u == (CY_PM_FASTCLK_IMO_CR_REG & CY_PM_FASTCLK_IMO_CR_FREQ_MASK))
 885              		.loc 1 865 0
 886 0044 44F20023 		movw	r3, #:lower16:1073758720
 887 0048 C4F20003 		movt	r3, #:upper16:1073758720
 888 004c 1B78     		ldrb	r3, [r3, #0]
 889 004e DBB2     		uxtb	r3, r3
 890 0050 03F00703 		and	r3, r3, #7
 891 0054 002B     		cmp	r3, #0
ARM GAS  C:\Users\Heiwa\AppData\Local\Temp\cc88StSU.s 			page 32


 892 0056 08D1     		bne	.L49
 866:.\Generated_Source\PSoC5/cyPm.c ****     {
 867:.\Generated_Source\PSoC5/cyPm.c ****         /* IMO frequency is 12 MHz */
 868:.\Generated_Source\PSoC5/cyPm.c ****         cyPmBackup.imoActFreq12Mhz = CY_PM_ENABLED;
 893              		.loc 1 868 0
 894 0058 40F20003 		movw	r3, #:lower16:cyPmBackup
 895 005c C0F20003 		movt	r3, #:upper16:cyPmBackup
 896 0060 4FF00102 		mov	r2, #1
 897 0064 83F8A120 		strb	r2, [r3, #161]
 898 0068 23E0     		b	.L50
 899              	.L49:
 869:.\Generated_Source\PSoC5/cyPm.c ****     }
 870:.\Generated_Source\PSoC5/cyPm.c ****     else
 871:.\Generated_Source\PSoC5/cyPm.c ****     {
 872:.\Generated_Source\PSoC5/cyPm.c ****         /* IMO frequency is not 12 MHz */
 873:.\Generated_Source\PSoC5/cyPm.c ****         cyPmBackup.imoActFreq12Mhz = CY_PM_DISABLED;
 900              		.loc 1 873 0
 901 006a 40F20003 		movw	r3, #:lower16:cyPmBackup
 902 006e C0F20003 		movt	r3, #:upper16:cyPmBackup
 903 0072 4FF00002 		mov	r2, #0
 904 0076 83F8A120 		strb	r2, [r3, #161]
 874:.\Generated_Source\PSoC5/cyPm.c **** 
 875:.\Generated_Source\PSoC5/cyPm.c ****         /* Save IMO frequency */
 876:.\Generated_Source\PSoC5/cyPm.c ****         cyPmBackup.imoActFreq = CY_PM_FASTCLK_IMO_CR_REG & CY_PM_FASTCLK_IMO_CR_FREQ_MASK;
 905              		.loc 1 876 0
 906 007a 44F20023 		movw	r3, #:lower16:1073758720
 907 007e C4F20003 		movt	r3, #:upper16:1073758720
 908 0082 1B78     		ldrb	r3, [r3, #0]
 909 0084 DBB2     		uxtb	r3, r3
 910 0086 1A46     		mov	r2, r3
 911 0088 02F00702 		and	r2, r2, #7
 912 008c 40F20003 		movw	r3, #:lower16:cyPmBackup
 913 0090 C0F20003 		movt	r3, #:upper16:cyPmBackup
 914 0094 83F8A020 		strb	r2, [r3, #160]
 877:.\Generated_Source\PSoC5/cyPm.c **** 
 878:.\Generated_Source\PSoC5/cyPm.c ****         /* Set IMO frequency to 12 MHz */
 879:.\Generated_Source\PSoC5/cyPm.c ****         CY_PM_FASTCLK_IMO_CR_REG &= ~CY_PM_FASTCLK_IMO_CR_FREQ_MASK;
 915              		.loc 1 879 0
 916 0098 44F20023 		movw	r3, #:lower16:1073758720
 917 009c C4F20003 		movt	r3, #:upper16:1073758720
 918 00a0 44F20022 		movw	r2, #:lower16:1073758720
 919 00a4 C4F20002 		movt	r2, #:upper16:1073758720
 920 00a8 1278     		ldrb	r2, [r2, #0]
 921 00aa D2B2     		uxtb	r2, r2
 922 00ac 02F0F802 		and	r2, r2, #248
 923 00b0 1A70     		strb	r2, [r3, #0]
 924              	.L50:
 880:.\Generated_Source\PSoC5/cyPm.c ****     }
 881:.\Generated_Source\PSoC5/cyPm.c **** 
 882:.\Generated_Source\PSoC5/cyPm.c ****     /* Switch to the Sleep mode */
 883:.\Generated_Source\PSoC5/cyPm.c ****     CY_PM_MODE_CSR_REG = ((CY_PM_MODE_CSR_REG & ~CY_PM_MODE_CSR_MASK) | CY_PM_MODE_CSR_SLEEP);
 925              		.loc 1 883 0
 926 00b2 44F29333 		movw	r3, #:lower16:1073759123
 927 00b6 C4F20003 		movt	r3, #:upper16:1073759123
 928 00ba 44F29332 		movw	r2, #:lower16:1073759123
 929 00be C4F20002 		movt	r2, #:upper16:1073759123
 930 00c2 1278     		ldrb	r2, [r2, #0]
ARM GAS  C:\Users\Heiwa\AppData\Local\Temp\cc88StSU.s 			page 33


 931 00c4 D2B2     		uxtb	r2, r2
 932 00c6 02F0F802 		and	r2, r2, #248
 933 00ca 42F00302 		orr	r2, r2, #3
 934 00ce D2B2     		uxtb	r2, r2
 935 00d0 1A70     		strb	r2, [r3, #0]
 884:.\Generated_Source\PSoC5/cyPm.c **** 
 885:.\Generated_Source\PSoC5/cyPm.c ****     /* Recommended readback. */
 886:.\Generated_Source\PSoC5/cyPm.c ****     (void) CY_PM_MODE_CSR_REG;
 936              		.loc 1 886 0
 937 00d2 44F29333 		movw	r3, #:lower16:1073759123
 938 00d6 C4F20003 		movt	r3, #:upper16:1073759123
 939 00da 1B78     		ldrb	r3, [r3, #0]
 887:.\Generated_Source\PSoC5/cyPm.c **** 
 888:.\Generated_Source\PSoC5/cyPm.c ****     /* Two recommended NOPs to get into the mode. */
 889:.\Generated_Source\PSoC5/cyPm.c ****     CY_NOP;
 940              		.loc 1 889 0
 941              	@ 889 ".\Generated_Source\PSoC5\cyPm.c" 1
 942 00dc 00BF     		NOP
 943              	
 944              	@ 0 "" 2
 890:.\Generated_Source\PSoC5/cyPm.c ****     CY_NOP;
 945              		.loc 1 890 0
 946              	@ 890 ".\Generated_Source\PSoC5\cyPm.c" 1
 947 00de 00BF     		NOP
 948              	
 949              	@ 0 "" 2
 891:.\Generated_Source\PSoC5/cyPm.c **** 
 892:.\Generated_Source\PSoC5/cyPm.c ****     /* Execute WFI instruction (for PSoC5 devices only) */
 893:.\Generated_Source\PSoC5/cyPm.c ****     CY_PM_WFI;
 950              		.loc 1 893 0
 951              	@ 893 ".\Generated_Source\PSoC5\cyPm.c" 1
 952 00e0 30BF     		WFI 
 953              	
 954              	@ 0 "" 2
 894:.\Generated_Source\PSoC5/cyPm.c **** 
 895:.\Generated_Source\PSoC5/cyPm.c ****     /* Point of return from Sleep Mode */
 896:.\Generated_Source\PSoC5/cyPm.c **** 
 897:.\Generated_Source\PSoC5/cyPm.c ****     /* Restore last moment IMO frequency change */
 898:.\Generated_Source\PSoC5/cyPm.c ****     if(CY_PM_ENABLED != cyPmBackup.imoActFreq12Mhz)
 955              		.loc 1 898 0
 956              		.thumb
 957 00e2 40F20003 		movw	r3, #:lower16:cyPmBackup
 958 00e6 C0F20003 		movt	r3, #:upper16:cyPmBackup
 959 00ea 93F8A130 		ldrb	r3, [r3, #161]	@ zero_extendqisi2
 960 00ee 012B     		cmp	r3, #1
 961 00f0 15D0     		beq	.L51
 899:.\Generated_Source\PSoC5/cyPm.c ****     {
 900:.\Generated_Source\PSoC5/cyPm.c ****         CY_PM_FASTCLK_IMO_CR_REG  = (CY_PM_FASTCLK_IMO_CR_REG & ~CY_PM_FASTCLK_IMO_CR_FREQ_MASK) |
 962              		.loc 1 900 0
 963 00f2 44F20023 		movw	r3, #:lower16:1073758720
 964 00f6 C4F20003 		movt	r3, #:upper16:1073758720
 965 00fa 44F20022 		movw	r2, #:lower16:1073758720
 966 00fe C4F20002 		movt	r2, #:upper16:1073758720
 967 0102 1278     		ldrb	r2, [r2, #0]
 968 0104 D2B2     		uxtb	r2, r2
 969 0106 02F0F802 		and	r2, r2, #248
 970 010a 40F20001 		movw	r1, #:lower16:cyPmBackup
ARM GAS  C:\Users\Heiwa\AppData\Local\Temp\cc88StSU.s 			page 34


 971 010e C0F20001 		movt	r1, #:upper16:cyPmBackup
 972 0112 91F8A010 		ldrb	r1, [r1, #160]	@ zero_extendqisi2
 973 0116 42EA0102 		orr	r2, r2, r1
 974 011a D2B2     		uxtb	r2, r2
 975 011c 1A70     		strb	r2, [r3, #0]
 976              	.L51:
 901:.\Generated_Source\PSoC5/cyPm.c ****                                     cyPmBackup.imoActFreq;
 902:.\Generated_Source\PSoC5/cyPm.c ****     }
 903:.\Generated_Source\PSoC5/cyPm.c **** 
 904:.\Generated_Source\PSoC5/cyPm.c **** 
 905:.\Generated_Source\PSoC5/cyPm.c ****     /* Restore hardware configuration */
 906:.\Generated_Source\PSoC5/cyPm.c ****     CyPmSlpRestore();
 977              		.loc 1 906 0
 978 011e FFF7FEFF 		bl	CyPmSlpRestore
 907:.\Generated_Source\PSoC5/cyPm.c **** 
 908:.\Generated_Source\PSoC5/cyPm.c **** 
 909:.\Generated_Source\PSoC5/cyPm.c ****     /* Device is PSoC 3 and the revision is ES3 or later. */
 910:.\Generated_Source\PSoC5/cyPm.c ****     #if(CY_PSOC3 || CY_PSOC5LP)
 911:.\Generated_Source\PSoC5/cyPm.c **** 
 912:.\Generated_Source\PSoC5/cyPm.c ****         /* Restore current wake up configuration */
 913:.\Generated_Source\PSoC5/cyPm.c ****         CY_PM_WAKEUP_CFG0_REG = cyPmBackup.wakeupCfg0;
 914:.\Generated_Source\PSoC5/cyPm.c ****         CY_PM_WAKEUP_CFG1_REG = cyPmBackup.wakeupCfg1;
 915:.\Generated_Source\PSoC5/cyPm.c ****         CY_PM_WAKEUP_CFG2_REG = cyPmBackup.wakeupCfg2;
 916:.\Generated_Source\PSoC5/cyPm.c **** 
 917:.\Generated_Source\PSoC5/cyPm.c ****     #endif /* (CY_PSOC3 || CY_PSOC5LP) */
 918:.\Generated_Source\PSoC5/cyPm.c **** 
 919:.\Generated_Source\PSoC5/cyPm.c ****     /* Restore global interrupt enable state */
 920:.\Generated_Source\PSoC5/cyPm.c ****     CyExitCriticalSection(interruptState);
 979              		.loc 1 920 0
 980 0122 FB7B     		ldrb	r3, [r7, #15]	@ zero_extendqisi2
 981 0124 1846     		mov	r0, r3
 982 0126 FFF7FEFF 		bl	CyExitCriticalSection
 921:.\Generated_Source\PSoC5/cyPm.c **** }
 983              		.loc 1 921 0
 984 012a 07F11007 		add	r7, r7, #16
 985 012e BD46     		mov	sp, r7
 986 0130 80BD     		pop	{r7, pc}
 987              		.cfi_endproc
 988              	.LFE3:
 989              		.size	CyPmSleep, .-CyPmSleep
 990 0132 00BF     		.section	.text.CyPmHibernate,"ax",%progbits
 991              		.align	2
 992              		.global	CyPmHibernate
 993              		.thumb
 994              		.thumb_func
 995              		.type	CyPmHibernate, %function
 996              	CyPmHibernate:
 997              	.LFB4:
 922:.\Generated_Source\PSoC5/cyPm.c **** 
 923:.\Generated_Source\PSoC5/cyPm.c **** 
 924:.\Generated_Source\PSoC5/cyPm.c **** /*******************************************************************************
 925:.\Generated_Source\PSoC5/cyPm.c **** * Function Name: CyPmHibernate
 926:.\Generated_Source\PSoC5/cyPm.c **** ********************************************************************************
 927:.\Generated_Source\PSoC5/cyPm.c **** *
 928:.\Generated_Source\PSoC5/cyPm.c **** * Summary:
 929:.\Generated_Source\PSoC5/cyPm.c **** *  Puts the part into the Hibernate state.
 930:.\Generated_Source\PSoC5/cyPm.c **** *
ARM GAS  C:\Users\Heiwa\AppData\Local\Temp\cc88StSU.s 			page 35


 931:.\Generated_Source\PSoC5/cyPm.c **** *  PSoC3:
 932:.\Generated_Source\PSoC5/cyPm.c **** *  Before switching to Hibernate, the current status of the PICU wakeup source
 933:.\Generated_Source\PSoC5/cyPm.c **** *  bit is saved and then set. This configures the device to wake up from the
 934:.\Generated_Source\PSoC5/cyPm.c **** *  PICU. Make sure you have at least one pin configured to generate a PICU
 935:.\Generated_Source\PSoC5/cyPm.c **** *  interrupt. For pin Px.y, the register "PICU_INTTYPE_PICUx_INTTYPEy" controls
 936:.\Generated_Source\PSoC5/cyPm.c **** *  the PICU behavior. In the TRM, this register is "PICU[0..15]_INTTYPE[0..7]."
 937:.\Generated_Source\PSoC5/cyPm.c **** *  In the Pins component datasheet, this register is referred to as the IRQ
 938:.\Generated_Source\PSoC5/cyPm.c **** *  option. Once the wakeup occurs, the PICU wakeup source bit is restored and
 939:.\Generated_Source\PSoC5/cyPm.c **** *  the PSoC returns to the Active state.
 940:.\Generated_Source\PSoC5/cyPm.c **** *
 941:.\Generated_Source\PSoC5/cyPm.c **** *  PSoC 5:
 942:.\Generated_Source\PSoC5/cyPm.c **** *  The only method supported for waking up from the Hibernate state is a
 943:.\Generated_Source\PSoC5/cyPm.c **** *  hardware reset of the device.  The PICU wakeup source cannot be used
 944:.\Generated_Source\PSoC5/cyPm.c **** *  reliably, so the PICU interrupt sources are automatically disabled by this
 945:.\Generated_Source\PSoC5/cyPm.c **** *  function before putting the device into the Hibernate state.
 946:.\Generated_Source\PSoC5/cyPm.c **** *
 947:.\Generated_Source\PSoC5/cyPm.c **** * Parameters:
 948:.\Generated_Source\PSoC5/cyPm.c **** *  None
 949:.\Generated_Source\PSoC5/cyPm.c **** *
 950:.\Generated_Source\PSoC5/cyPm.c **** * Return:
 951:.\Generated_Source\PSoC5/cyPm.c **** *  None
 952:.\Generated_Source\PSoC5/cyPm.c **** *
 953:.\Generated_Source\PSoC5/cyPm.c **** * Reentrant:
 954:.\Generated_Source\PSoC5/cyPm.c **** *  No
 955:.\Generated_Source\PSoC5/cyPm.c **** *
 956:.\Generated_Source\PSoC5/cyPm.c **** * Side Effects:
 957:.\Generated_Source\PSoC5/cyPm.c **** *  Applications must wait 20 us before re-entering hibernate or sleep after
 958:.\Generated_Source\PSoC5/cyPm.c **** *  waking up from hibernate. The 20 us allows the sleep regulator time to
 959:.\Generated_Source\PSoC5/cyPm.c **** *  stabilize before the next hibernate / sleep event occurs. The 20 us
 960:.\Generated_Source\PSoC5/cyPm.c **** *  requirement begins when the device wakes up. There is no hardware check that
 961:.\Generated_Source\PSoC5/cyPm.c **** *  this requirement is met. The specified delay should be done on ISR entry.
 962:.\Generated_Source\PSoC5/cyPm.c **** *
 963:.\Generated_Source\PSoC5/cyPm.c **** *  After wakeup PICU interrupt occurs, the Pin_ClearInterrupt() (where Pin is
 964:.\Generated_Source\PSoC5/cyPm.c **** *  instance name of the Pins component) function must be called to clear the
 965:.\Generated_Source\PSoC5/cyPm.c **** *  latched pin events to allow proper Hibernate mode entry andd to enable
 966:.\Generated_Source\PSoC5/cyPm.c **** *  detection of future events.
 967:.\Generated_Source\PSoC5/cyPm.c **** *
 968:.\Generated_Source\PSoC5/cyPm.c **** *  The 1 kHz ILO clock is expected to be enabled for PSoC3 ES3 silicon to
 969:.\Generated_Source\PSoC5/cyPm.c **** *  measure Hibernate/Sleep regulator settling time after a reset. The holdoff
 970:.\Generated_Source\PSoC5/cyPm.c **** *  delay is measured using rising edges of the 1 kHz ILO.
 971:.\Generated_Source\PSoC5/cyPm.c **** *
 972:.\Generated_Source\PSoC5/cyPm.c **** *******************************************************************************/
 973:.\Generated_Source\PSoC5/cyPm.c **** void CyPmHibernate(void) 
 974:.\Generated_Source\PSoC5/cyPm.c **** {
 998              		.loc 1 974 0
 999              		.cfi_startproc
 1000              		@ args = 0, pretend = 0, frame = 8
 1001              		@ frame_needed = 1, uses_anonymous_args = 0
 1002 0000 80B5     		push	{r7, lr}
 1003              	.LCFI11:
 1004              		.cfi_def_cfa_offset 8
 1005 0002 82B0     		sub	sp, sp, #8
 1006              	.LCFI12:
 1007              		.cfi_def_cfa_offset 16
 1008 0004 00AF     		add	r7, sp, #0
 1009              		.cfi_offset 14, -4
 1010              		.cfi_offset 7, -8
ARM GAS  C:\Users\Heiwa\AppData\Local\Temp\cc88StSU.s 			page 36


 1011              	.LCFI13:
 1012              		.cfi_def_cfa_register 7
 975:.\Generated_Source\PSoC5/cyPm.c ****     uint8 interruptState;
 976:.\Generated_Source\PSoC5/cyPm.c **** 
 977:.\Generated_Source\PSoC5/cyPm.c ****     /* Save current global interrupt enable and disable it */
 978:.\Generated_Source\PSoC5/cyPm.c ****     interruptState = CyEnterCriticalSection();
 1013              		.loc 1 978 0
 1014 0006 FFF7FEFF 		bl	CyEnterCriticalSection
 1015 000a 0346     		mov	r3, r0
 1016 000c FB71     		strb	r3, [r7, #7]
 979:.\Generated_Source\PSoC5/cyPm.c **** 
 980:.\Generated_Source\PSoC5/cyPm.c ****     /* Device is PSoC 3 and the revision is ES3 or later */
 981:.\Generated_Source\PSoC5/cyPm.c ****     #if(CY_PSOC3)
 982:.\Generated_Source\PSoC5/cyPm.c **** 
 983:.\Generated_Source\PSoC5/cyPm.c ****         /***********************************************************************
 984:.\Generated_Source\PSoC5/cyPm.c ****         * The Hibernate/Sleep regulator has a settling time after a reset.
 985:.\Generated_Source\PSoC5/cyPm.c ****         * During this time, the system ignores requests to enter Sleep and
 986:.\Generated_Source\PSoC5/cyPm.c ****         * Hibernate modes. The holdoff delay is measured using rising edges of
 987:.\Generated_Source\PSoC5/cyPm.c ****         * the 1 kHz ILO.
 988:.\Generated_Source\PSoC5/cyPm.c ****         ***********************************************************************/
 989:.\Generated_Source\PSoC5/cyPm.c ****         if(0u == (CY_PM_MODE_CSR_REG & CY_PM_MODE_CSR_PWRUP_PULSE_Q))
 990:.\Generated_Source\PSoC5/cyPm.c ****         {
 991:.\Generated_Source\PSoC5/cyPm.c ****             /* Disable hold off - no action on restore */
 992:.\Generated_Source\PSoC5/cyPm.c ****             CY_PM_PWRSYS_SLP_TR_REG &= CY_PM_PWRSYS_SLP_TR_HIBSLP_HOLDOFF_MASK;
 993:.\Generated_Source\PSoC5/cyPm.c ****         }
 994:.\Generated_Source\PSoC5/cyPm.c ****         else
 995:.\Generated_Source\PSoC5/cyPm.c ****         {
 996:.\Generated_Source\PSoC5/cyPm.c ****             /* Abort, device is not ready for low power mode entry */
 997:.\Generated_Source\PSoC5/cyPm.c ****             return;
 998:.\Generated_Source\PSoC5/cyPm.c ****         }
 999:.\Generated_Source\PSoC5/cyPm.c **** 
1000:.\Generated_Source\PSoC5/cyPm.c ****     #endif /* (CY_PSOC3) */
1001:.\Generated_Source\PSoC5/cyPm.c **** 
1002:.\Generated_Source\PSoC5/cyPm.c ****     /* Prepare device for proper Hibernate mode entry */
1003:.\Generated_Source\PSoC5/cyPm.c ****     CyPmHibSaveSet();
 1017              		.loc 1 1003 0
 1018 000e FFF7FEFF 		bl	CyPmHibSaveSet
1004:.\Generated_Source\PSoC5/cyPm.c **** 
1005:.\Generated_Source\PSoC5/cyPm.c ****     /* Device is PSoC 3 and the revision is ES3 or later. */
1006:.\Generated_Source\PSoC5/cyPm.c ****     #if(CY_PSOC3 || CY_PSOC5LP)
1007:.\Generated_Source\PSoC5/cyPm.c **** 
1008:.\Generated_Source\PSoC5/cyPm.c ****         /* Save and enable only wakeup on PICU */
1009:.\Generated_Source\PSoC5/cyPm.c ****         cyPmBackup.wakeupCfg0 = CY_PM_WAKEUP_CFG0_REG;
1010:.\Generated_Source\PSoC5/cyPm.c ****         CY_PM_WAKEUP_CFG0_REG = CY_PM_WAKEUP_PICU;
1011:.\Generated_Source\PSoC5/cyPm.c **** 
1012:.\Generated_Source\PSoC5/cyPm.c ****         cyPmBackup.wakeupCfg1 = CY_PM_WAKEUP_CFG1_REG;
1013:.\Generated_Source\PSoC5/cyPm.c ****         CY_PM_WAKEUP_CFG1_REG = 0x00u;
1014:.\Generated_Source\PSoC5/cyPm.c **** 
1015:.\Generated_Source\PSoC5/cyPm.c ****         cyPmBackup.wakeupCfg2 = CY_PM_WAKEUP_CFG2_REG;
1016:.\Generated_Source\PSoC5/cyPm.c ****         CY_PM_WAKEUP_CFG2_REG = 0x00u;
1017:.\Generated_Source\PSoC5/cyPm.c **** 
1018:.\Generated_Source\PSoC5/cyPm.c ****     #endif  /* (CY_PSOC3 || CY_PSOC5LP) */
1019:.\Generated_Source\PSoC5/cyPm.c **** 
1020:.\Generated_Source\PSoC5/cyPm.c **** 
1021:.\Generated_Source\PSoC5/cyPm.c ****     /* Last moment IMO frequency change */
1022:.\Generated_Source\PSoC5/cyPm.c ****     if(0u == (CY_PM_FASTCLK_IMO_CR_REG & CY_PM_FASTCLK_IMO_CR_FREQ_MASK))
 1019              		.loc 1 1022 0
ARM GAS  C:\Users\Heiwa\AppData\Local\Temp\cc88StSU.s 			page 37


 1020 0012 44F20023 		movw	r3, #:lower16:1073758720
 1021 0016 C4F20003 		movt	r3, #:upper16:1073758720
 1022 001a 1B78     		ldrb	r3, [r3, #0]
 1023 001c DBB2     		uxtb	r3, r3
 1024 001e 03F00703 		and	r3, r3, #7
 1025 0022 002B     		cmp	r3, #0
 1026 0024 08D1     		bne	.L54
1023:.\Generated_Source\PSoC5/cyPm.c ****     {
1024:.\Generated_Source\PSoC5/cyPm.c ****         /* IMO frequency is 12 MHz */
1025:.\Generated_Source\PSoC5/cyPm.c ****         cyPmBackup.imoActFreq12Mhz = CY_PM_ENABLED;
 1027              		.loc 1 1025 0
 1028 0026 40F20003 		movw	r3, #:lower16:cyPmBackup
 1029 002a C0F20003 		movt	r3, #:upper16:cyPmBackup
 1030 002e 4FF00102 		mov	r2, #1
 1031 0032 83F8A120 		strb	r2, [r3, #161]
 1032 0036 23E0     		b	.L55
 1033              	.L54:
1026:.\Generated_Source\PSoC5/cyPm.c ****     }
1027:.\Generated_Source\PSoC5/cyPm.c ****     else
1028:.\Generated_Source\PSoC5/cyPm.c ****     {
1029:.\Generated_Source\PSoC5/cyPm.c ****         /* IMO frequency is not 12 MHz */
1030:.\Generated_Source\PSoC5/cyPm.c ****         cyPmBackup.imoActFreq12Mhz = CY_PM_DISABLED;
 1034              		.loc 1 1030 0
 1035 0038 40F20003 		movw	r3, #:lower16:cyPmBackup
 1036 003c C0F20003 		movt	r3, #:upper16:cyPmBackup
 1037 0040 4FF00002 		mov	r2, #0
 1038 0044 83F8A120 		strb	r2, [r3, #161]
1031:.\Generated_Source\PSoC5/cyPm.c **** 
1032:.\Generated_Source\PSoC5/cyPm.c ****         /* Save IMO frequency */
1033:.\Generated_Source\PSoC5/cyPm.c ****         cyPmBackup.imoActFreq = CY_PM_FASTCLK_IMO_CR_REG & CY_PM_FASTCLK_IMO_CR_FREQ_MASK;
 1039              		.loc 1 1033 0
 1040 0048 44F20023 		movw	r3, #:lower16:1073758720
 1041 004c C4F20003 		movt	r3, #:upper16:1073758720
 1042 0050 1B78     		ldrb	r3, [r3, #0]
 1043 0052 DBB2     		uxtb	r3, r3
 1044 0054 1A46     		mov	r2, r3
 1045 0056 02F00702 		and	r2, r2, #7
 1046 005a 40F20003 		movw	r3, #:lower16:cyPmBackup
 1047 005e C0F20003 		movt	r3, #:upper16:cyPmBackup
 1048 0062 83F8A020 		strb	r2, [r3, #160]
1034:.\Generated_Source\PSoC5/cyPm.c **** 
1035:.\Generated_Source\PSoC5/cyPm.c ****         /* Set IMO frequency to 12 MHz */
1036:.\Generated_Source\PSoC5/cyPm.c ****         CY_PM_FASTCLK_IMO_CR_REG &= ~CY_PM_FASTCLK_IMO_CR_FREQ_MASK;
 1049              		.loc 1 1036 0
 1050 0066 44F20023 		movw	r3, #:lower16:1073758720
 1051 006a C4F20003 		movt	r3, #:upper16:1073758720
 1052 006e 44F20022 		movw	r2, #:lower16:1073758720
 1053 0072 C4F20002 		movt	r2, #:upper16:1073758720
 1054 0076 1278     		ldrb	r2, [r2, #0]
 1055 0078 D2B2     		uxtb	r2, r2
 1056 007a 02F0F802 		and	r2, r2, #248
 1057 007e 1A70     		strb	r2, [r3, #0]
 1058              	.L55:
1037:.\Generated_Source\PSoC5/cyPm.c ****     }
1038:.\Generated_Source\PSoC5/cyPm.c **** 
1039:.\Generated_Source\PSoC5/cyPm.c **** 
1040:.\Generated_Source\PSoC5/cyPm.c ****     /* Switch to Hibernate Mode */
ARM GAS  C:\Users\Heiwa\AppData\Local\Temp\cc88StSU.s 			page 38


1041:.\Generated_Source\PSoC5/cyPm.c ****     CY_PM_MODE_CSR_REG = ((CY_PM_MODE_CSR_REG & ~CY_PM_MODE_CSR_MASK) | CY_PM_MODE_CSR_HIBERNATE);
 1059              		.loc 1 1041 0
 1060 0080 44F29333 		movw	r3, #:lower16:1073759123
 1061 0084 C4F20003 		movt	r3, #:upper16:1073759123
 1062 0088 44F29332 		movw	r2, #:lower16:1073759123
 1063 008c C4F20002 		movt	r2, #:upper16:1073759123
 1064 0090 1278     		ldrb	r2, [r2, #0]
 1065 0092 D2B2     		uxtb	r2, r2
 1066 0094 02F0F802 		and	r2, r2, #248
 1067 0098 42F00402 		orr	r2, r2, #4
 1068 009c D2B2     		uxtb	r2, r2
 1069 009e 1A70     		strb	r2, [r3, #0]
1042:.\Generated_Source\PSoC5/cyPm.c **** 
1043:.\Generated_Source\PSoC5/cyPm.c ****     /* Recommended readback. */
1044:.\Generated_Source\PSoC5/cyPm.c ****     (void) CY_PM_MODE_CSR_REG;
 1070              		.loc 1 1044 0
 1071 00a0 44F29333 		movw	r3, #:lower16:1073759123
 1072 00a4 C4F20003 		movt	r3, #:upper16:1073759123
 1073 00a8 1B78     		ldrb	r3, [r3, #0]
1045:.\Generated_Source\PSoC5/cyPm.c **** 
1046:.\Generated_Source\PSoC5/cyPm.c ****     /* Two recommended NOPs to get into the mode. */
1047:.\Generated_Source\PSoC5/cyPm.c ****     CY_NOP;
 1074              		.loc 1 1047 0
 1075              	@ 1047 ".\Generated_Source\PSoC5\cyPm.c" 1
 1076 00aa 00BF     		NOP
 1077              	
 1078              	@ 0 "" 2
1048:.\Generated_Source\PSoC5/cyPm.c ****     CY_NOP;
 1079              		.loc 1 1048 0
 1080              	@ 1048 ".\Generated_Source\PSoC5\cyPm.c" 1
 1081 00ac 00BF     		NOP
 1082              	
 1083              	@ 0 "" 2
1049:.\Generated_Source\PSoC5/cyPm.c **** 
1050:.\Generated_Source\PSoC5/cyPm.c ****     /* Execute WFI instruction (for PSoC5 devices only) */
1051:.\Generated_Source\PSoC5/cyPm.c ****     CY_PM_WFI;
 1084              		.loc 1 1051 0
 1085              	@ 1051 ".\Generated_Source\PSoC5\cyPm.c" 1
 1086 00ae 30BF     		WFI 
 1087              	
 1088              	@ 0 "" 2
1052:.\Generated_Source\PSoC5/cyPm.c **** 
1053:.\Generated_Source\PSoC5/cyPm.c ****     /* Point of return from Hibernate mode */
1054:.\Generated_Source\PSoC5/cyPm.c **** 
1055:.\Generated_Source\PSoC5/cyPm.c **** 
1056:.\Generated_Source\PSoC5/cyPm.c ****     /* Restore last moment IMO frequency change */
1057:.\Generated_Source\PSoC5/cyPm.c ****     if(CY_PM_ENABLED != cyPmBackup.imoActFreq12Mhz)
 1089              		.loc 1 1057 0
 1090              		.thumb
 1091 00b0 40F20003 		movw	r3, #:lower16:cyPmBackup
 1092 00b4 C0F20003 		movt	r3, #:upper16:cyPmBackup
 1093 00b8 93F8A130 		ldrb	r3, [r3, #161]	@ zero_extendqisi2
 1094 00bc 012B     		cmp	r3, #1
 1095 00be 15D0     		beq	.L56
1058:.\Generated_Source\PSoC5/cyPm.c ****     {
1059:.\Generated_Source\PSoC5/cyPm.c ****         CY_PM_FASTCLK_IMO_CR_REG  = (CY_PM_FASTCLK_IMO_CR_REG & ~CY_PM_FASTCLK_IMO_CR_FREQ_MASK) |
 1096              		.loc 1 1059 0
ARM GAS  C:\Users\Heiwa\AppData\Local\Temp\cc88StSU.s 			page 39


 1097 00c0 44F20023 		movw	r3, #:lower16:1073758720
 1098 00c4 C4F20003 		movt	r3, #:upper16:1073758720
 1099 00c8 44F20022 		movw	r2, #:lower16:1073758720
 1100 00cc C4F20002 		movt	r2, #:upper16:1073758720
 1101 00d0 1278     		ldrb	r2, [r2, #0]
 1102 00d2 D2B2     		uxtb	r2, r2
 1103 00d4 02F0F802 		and	r2, r2, #248
 1104 00d8 40F20001 		movw	r1, #:lower16:cyPmBackup
 1105 00dc C0F20001 		movt	r1, #:upper16:cyPmBackup
 1106 00e0 91F8A010 		ldrb	r1, [r1, #160]	@ zero_extendqisi2
 1107 00e4 42EA0102 		orr	r2, r2, r1
 1108 00e8 D2B2     		uxtb	r2, r2
 1109 00ea 1A70     		strb	r2, [r3, #0]
 1110              	.L56:
1060:.\Generated_Source\PSoC5/cyPm.c ****                                     cyPmBackup.imoActFreq;
1061:.\Generated_Source\PSoC5/cyPm.c ****     }
1062:.\Generated_Source\PSoC5/cyPm.c **** 
1063:.\Generated_Source\PSoC5/cyPm.c **** 
1064:.\Generated_Source\PSoC5/cyPm.c ****     /* Restore device for proper Hibernate mode exit*/
1065:.\Generated_Source\PSoC5/cyPm.c ****     CyPmHibRestore();
 1111              		.loc 1 1065 0
 1112 00ec FFF7FEFF 		bl	CyPmHibRestore
1066:.\Generated_Source\PSoC5/cyPm.c **** 
1067:.\Generated_Source\PSoC5/cyPm.c ****     /* Device is PSoC 3 and the revision is ES3 or later. */
1068:.\Generated_Source\PSoC5/cyPm.c ****     #if(CY_PSOC3 || CY_PSOC5LP)
1069:.\Generated_Source\PSoC5/cyPm.c **** 
1070:.\Generated_Source\PSoC5/cyPm.c ****         /* Restore current wake up configuration */
1071:.\Generated_Source\PSoC5/cyPm.c ****         CY_PM_WAKEUP_CFG0_REG = cyPmBackup.wakeupCfg0;
1072:.\Generated_Source\PSoC5/cyPm.c ****         CY_PM_WAKEUP_CFG1_REG = cyPmBackup.wakeupCfg1;
1073:.\Generated_Source\PSoC5/cyPm.c ****         CY_PM_WAKEUP_CFG2_REG = cyPmBackup.wakeupCfg2;
1074:.\Generated_Source\PSoC5/cyPm.c **** 
1075:.\Generated_Source\PSoC5/cyPm.c ****     #endif /* (CY_PSOC3 || CY_PSOC5LP) */
1076:.\Generated_Source\PSoC5/cyPm.c **** 
1077:.\Generated_Source\PSoC5/cyPm.c ****     /* Restore global interrupt enable state */
1078:.\Generated_Source\PSoC5/cyPm.c ****     CyExitCriticalSection(interruptState);
 1113              		.loc 1 1078 0
 1114 00f0 FB79     		ldrb	r3, [r7, #7]	@ zero_extendqisi2
 1115 00f2 1846     		mov	r0, r3
 1116 00f4 FFF7FEFF 		bl	CyExitCriticalSection
1079:.\Generated_Source\PSoC5/cyPm.c **** }
 1117              		.loc 1 1079 0
 1118 00f8 07F10807 		add	r7, r7, #8
 1119 00fc BD46     		mov	sp, r7
 1120 00fe 80BD     		pop	{r7, pc}
 1121              		.cfi_endproc
 1122              	.LFE4:
 1123              		.size	CyPmHibernate, .-CyPmHibernate
 1124              		.section	.text.CyPmReadStatus,"ax",%progbits
 1125              		.align	2
 1126              		.global	CyPmReadStatus
 1127              		.thumb
 1128              		.thumb_func
 1129              		.type	CyPmReadStatus, %function
 1130              	CyPmReadStatus:
 1131              	.LFB5:
1080:.\Generated_Source\PSoC5/cyPm.c **** 
1081:.\Generated_Source\PSoC5/cyPm.c **** 
ARM GAS  C:\Users\Heiwa\AppData\Local\Temp\cc88StSU.s 			page 40


1082:.\Generated_Source\PSoC5/cyPm.c **** /*******************************************************************************
1083:.\Generated_Source\PSoC5/cyPm.c **** * Function Name: CyPmReadStatus
1084:.\Generated_Source\PSoC5/cyPm.c **** ********************************************************************************
1085:.\Generated_Source\PSoC5/cyPm.c **** *
1086:.\Generated_Source\PSoC5/cyPm.c **** * Summary:
1087:.\Generated_Source\PSoC5/cyPm.c **** *  Manages the Power Manager Interrupt Status Register.  This register has the
1088:.\Generated_Source\PSoC5/cyPm.c **** *  interrupt status for the one pulse per second, central timewheel and fast
1089:.\Generated_Source\PSoC5/cyPm.c **** *  timewheel timers.  This hardware register clears on read.  To allow for only
1090:.\Generated_Source\PSoC5/cyPm.c **** *  clearing the bits of interest and preserving the other bits, this function
1091:.\Generated_Source\PSoC5/cyPm.c **** *  uses a shadow register that retains the state.  This function reads the
1092:.\Generated_Source\PSoC5/cyPm.c **** *  status register and ORs that value with the shadow register.  That is the
1093:.\Generated_Source\PSoC5/cyPm.c **** *  value that is returned.  Then the bits in the mask that are set are cleared
1094:.\Generated_Source\PSoC5/cyPm.c **** *  from this value and written back to the shadow register.
1095:.\Generated_Source\PSoC5/cyPm.c **** *
1096:.\Generated_Source\PSoC5/cyPm.c **** *  Note You must call this function within 1 ms (1 clock cycle of the ILO)
1097:.\Generated_Source\PSoC5/cyPm.c **** *  after a CTW event has occurred.
1098:.\Generated_Source\PSoC5/cyPm.c **** *
1099:.\Generated_Source\PSoC5/cyPm.c **** * Parameters:
1100:.\Generated_Source\PSoC5/cyPm.c **** *  mask: Bits in the shadow register to clear.
1101:.\Generated_Source\PSoC5/cyPm.c **** *
1102:.\Generated_Source\PSoC5/cyPm.c **** *       Define                      Source
1103:.\Generated_Source\PSoC5/cyPm.c **** *  CY_PM_FTW_INT                Fast Timewheel
1104:.\Generated_Source\PSoC5/cyPm.c **** *  CY_PM_CTW_INT                Central Timewheel
1105:.\Generated_Source\PSoC5/cyPm.c **** *  CY_PM_ONEPPS_INT             One Pulse Per Second
1106:.\Generated_Source\PSoC5/cyPm.c **** *
1107:.\Generated_Source\PSoC5/cyPm.c **** * Return:
1108:.\Generated_Source\PSoC5/cyPm.c **** *  Status.  Same bits values as the mask parameter.
1109:.\Generated_Source\PSoC5/cyPm.c **** *
1110:.\Generated_Source\PSoC5/cyPm.c **** *******************************************************************************/
1111:.\Generated_Source\PSoC5/cyPm.c **** uint8 CyPmReadStatus(uint8 mask) 
1112:.\Generated_Source\PSoC5/cyPm.c **** {
 1132              		.loc 1 1112 0
 1133              		.cfi_startproc
 1134              		@ args = 0, pretend = 0, frame = 16
 1135              		@ frame_needed = 1, uses_anonymous_args = 0
 1136 0000 80B5     		push	{r7, lr}
 1137              	.LCFI14:
 1138              		.cfi_def_cfa_offset 8
 1139 0002 84B0     		sub	sp, sp, #16
 1140              	.LCFI15:
 1141              		.cfi_def_cfa_offset 24
 1142 0004 00AF     		add	r7, sp, #0
 1143              		.cfi_offset 14, -4
 1144              		.cfi_offset 7, -8
 1145              	.LCFI16:
 1146              		.cfi_def_cfa_register 7
 1147 0006 0346     		mov	r3, r0
 1148 0008 FB71     		strb	r3, [r7, #7]
1113:.\Generated_Source\PSoC5/cyPm.c ****     static uint8 interruptStatus;
1114:.\Generated_Source\PSoC5/cyPm.c ****     uint8 interruptState;
1115:.\Generated_Source\PSoC5/cyPm.c ****     uint8 tmpStatus;
1116:.\Generated_Source\PSoC5/cyPm.c **** 
1117:.\Generated_Source\PSoC5/cyPm.c ****     /* Enter critical section */
1118:.\Generated_Source\PSoC5/cyPm.c ****     interruptState = CyEnterCriticalSection();
 1149              		.loc 1 1118 0
 1150 000a FFF7FEFF 		bl	CyEnterCriticalSection
 1151 000e 0346     		mov	r3, r0
ARM GAS  C:\Users\Heiwa\AppData\Local\Temp\cc88StSU.s 			page 41


 1152 0010 BB73     		strb	r3, [r7, #14]
1119:.\Generated_Source\PSoC5/cyPm.c **** 
1120:.\Generated_Source\PSoC5/cyPm.c ****     /* Save value of the register, copy it and clear desired bit */
1121:.\Generated_Source\PSoC5/cyPm.c ****     interruptStatus |= CY_PM_INT_SR_REG;
 1153              		.loc 1 1121 0
 1154 0012 44F29033 		movw	r3, #:lower16:1073759120
 1155 0016 C4F20003 		movt	r3, #:upper16:1073759120
 1156 001a 1B78     		ldrb	r3, [r3, #0]
 1157 001c DAB2     		uxtb	r2, r3
 1158 001e 40F20003 		movw	r3, #:lower16:interruptStatus.2314
 1159 0022 C0F20003 		movt	r3, #:upper16:interruptStatus.2314
 1160 0026 1B78     		ldrb	r3, [r3, #0]	@ zero_extendqisi2
 1161 0028 42EA0303 		orr	r3, r2, r3
 1162 002c DAB2     		uxtb	r2, r3
 1163 002e 40F20003 		movw	r3, #:lower16:interruptStatus.2314
 1164 0032 C0F20003 		movt	r3, #:upper16:interruptStatus.2314
 1165 0036 1A70     		strb	r2, [r3, #0]
1122:.\Generated_Source\PSoC5/cyPm.c ****     tmpStatus = interruptStatus;
 1166              		.loc 1 1122 0
 1167 0038 40F20003 		movw	r3, #:lower16:interruptStatus.2314
 1168 003c C0F20003 		movt	r3, #:upper16:interruptStatus.2314
 1169 0040 1B78     		ldrb	r3, [r3, #0]
 1170 0042 FB73     		strb	r3, [r7, #15]
1123:.\Generated_Source\PSoC5/cyPm.c ****     interruptStatus &= ~mask;
 1171              		.loc 1 1123 0
 1172 0044 FB79     		ldrb	r3, [r7, #7]	@ zero_extendqisi2
 1173 0046 6FEA0303 		mvn	r3, r3
 1174 004a DAB2     		uxtb	r2, r3
 1175 004c 40F20003 		movw	r3, #:lower16:interruptStatus.2314
 1176 0050 C0F20003 		movt	r3, #:upper16:interruptStatus.2314
 1177 0054 1B78     		ldrb	r3, [r3, #0]	@ zero_extendqisi2
 1178 0056 02EA0303 		and	r3, r2, r3
 1179 005a DBB2     		uxtb	r3, r3
 1180 005c DAB2     		uxtb	r2, r3
 1181 005e 40F20003 		movw	r3, #:lower16:interruptStatus.2314
 1182 0062 C0F20003 		movt	r3, #:upper16:interruptStatus.2314
 1183 0066 1A70     		strb	r2, [r3, #0]
1124:.\Generated_Source\PSoC5/cyPm.c **** 
1125:.\Generated_Source\PSoC5/cyPm.c ****     /* Exit critical section */
1126:.\Generated_Source\PSoC5/cyPm.c ****     CyExitCriticalSection(interruptState);
 1184              		.loc 1 1126 0
 1185 0068 BB7B     		ldrb	r3, [r7, #14]	@ zero_extendqisi2
 1186 006a 1846     		mov	r0, r3
 1187 006c FFF7FEFF 		bl	CyExitCriticalSection
1127:.\Generated_Source\PSoC5/cyPm.c **** 
1128:.\Generated_Source\PSoC5/cyPm.c ****     return(tmpStatus);
 1188              		.loc 1 1128 0
 1189 0070 FB7B     		ldrb	r3, [r7, #15]	@ zero_extendqisi2
1129:.\Generated_Source\PSoC5/cyPm.c **** }
 1190              		.loc 1 1129 0
 1191 0072 1846     		mov	r0, r3
 1192 0074 07F11007 		add	r7, r7, #16
 1193 0078 BD46     		mov	sp, r7
 1194 007a 80BD     		pop	{r7, pc}
 1195              		.cfi_endproc
 1196              	.LFE5:
 1197              		.size	CyPmReadStatus, .-CyPmReadStatus
ARM GAS  C:\Users\Heiwa\AppData\Local\Temp\cc88StSU.s 			page 42


 1198              		.section	.text.CyPmHibSaveSet,"ax",%progbits
 1199              		.align	2
 1200              		.thumb
 1201              		.thumb_func
 1202              		.type	CyPmHibSaveSet, %function
 1203              	CyPmHibSaveSet:
 1204              	.LFB6:
1130:.\Generated_Source\PSoC5/cyPm.c **** 
1131:.\Generated_Source\PSoC5/cyPm.c **** 
1132:.\Generated_Source\PSoC5/cyPm.c **** /*******************************************************************************
1133:.\Generated_Source\PSoC5/cyPm.c **** * Function Name: CyPmHibSaveSet
1134:.\Generated_Source\PSoC5/cyPm.c **** ********************************************************************************
1135:.\Generated_Source\PSoC5/cyPm.c **** *
1136:.\Generated_Source\PSoC5/cyPm.c **** * Summary:
1137:.\Generated_Source\PSoC5/cyPm.c **** *  Prepare device for proper Hibernate low power mode entry:
1138:.\Generated_Source\PSoC5/cyPm.c **** *  - Disables I2C backup regulator
1139:.\Generated_Source\PSoC5/cyPm.c **** *  - Saves ILO power down mode state and enable it (PSoC3 ES3)
1140:.\Generated_Source\PSoC5/cyPm.c **** *  - Saves enable state of 1 kHz and 100 kHz ILO and disable them (PSoC3 ES3)
1141:.\Generated_Source\PSoC5/cyPm.c **** *  - Disables sleep regulator and shorts vccd to vpwrsleep (PSoC3 ES3)
1142:.\Generated_Source\PSoC5/cyPm.c **** *  - CyPmHibSlpSaveSet() function is called
1143:.\Generated_Source\PSoC5/cyPm.c **** *
1144:.\Generated_Source\PSoC5/cyPm.c **** * Parameters:
1145:.\Generated_Source\PSoC5/cyPm.c **** *  None
1146:.\Generated_Source\PSoC5/cyPm.c **** *
1147:.\Generated_Source\PSoC5/cyPm.c **** * Return:
1148:.\Generated_Source\PSoC5/cyPm.c **** *  None
1149:.\Generated_Source\PSoC5/cyPm.c **** *
1150:.\Generated_Source\PSoC5/cyPm.c **** * Reentrant:
1151:.\Generated_Source\PSoC5/cyPm.c **** *  No
1152:.\Generated_Source\PSoC5/cyPm.c **** *
1153:.\Generated_Source\PSoC5/cyPm.c **** *******************************************************************************/
1154:.\Generated_Source\PSoC5/cyPm.c **** static void CyPmHibSaveSet(void) 
1155:.\Generated_Source\PSoC5/cyPm.c **** {
 1205              		.loc 1 1155 0
 1206              		.cfi_startproc
 1207              		@ args = 0, pretend = 0, frame = 0
 1208              		@ frame_needed = 1, uses_anonymous_args = 0
 1209 0000 80B5     		push	{r7, lr}
 1210              	.LCFI17:
 1211              		.cfi_def_cfa_offset 8
 1212 0002 00AF     		add	r7, sp, #0
 1213              		.cfi_offset 14, -4
 1214              		.cfi_offset 7, -8
 1215              	.LCFI18:
 1216              		.cfi_def_cfa_register 7
1156:.\Generated_Source\PSoC5/cyPm.c ****     /* I2C backup reg must be off when the sleep regulator is unavailable */
1157:.\Generated_Source\PSoC5/cyPm.c ****     if(0u != (CY_PM_PWRSYS_CR1_REG & CY_PM_PWRSYS_CR1_I2CREG_BACKUP))
 1217              		.loc 1 1157 0
 1218 0004 44F23133 		movw	r3, #:lower16:1073759025
 1219 0008 C4F20003 		movt	r3, #:upper16:1073759025
 1220 000c 1B78     		ldrb	r3, [r3, #0]
 1221 000e DBB2     		uxtb	r3, r3
 1222 0010 03F00403 		and	r3, r3, #4
 1223 0014 002B     		cmp	r3, #0
 1224 0016 14D0     		beq	.L61
1158:.\Generated_Source\PSoC5/cyPm.c ****     {
1159:.\Generated_Source\PSoC5/cyPm.c ****         /***********************************************************************
ARM GAS  C:\Users\Heiwa\AppData\Local\Temp\cc88StSU.s 			page 43


1160:.\Generated_Source\PSoC5/cyPm.c ****         * If I2C backup regulator is enabled, all the fixed-function registers
1161:.\Generated_Source\PSoC5/cyPm.c ****         * store their values while device is in low power mode, otherwise their
1162:.\Generated_Source\PSoC5/cyPm.c ****         * configuration is lost. The I2C API makes a decision to restore or not
1163:.\Generated_Source\PSoC5/cyPm.c ****         * to restore I2C registers based on this. If this regulator will be
1164:.\Generated_Source\PSoC5/cyPm.c ****         * disabled and then enabled, I2C API will suppose that I2C block
1165:.\Generated_Source\PSoC5/cyPm.c ****         * registers preserved their values, while this is not true. So, the
1166:.\Generated_Source\PSoC5/cyPm.c ****         * backup regulator is disabled. And its value is restored only for
1167:.\Generated_Source\PSoC5/cyPm.c ****         * and PSoC5 devices. The I2C sleep APIs is responsible for restoration.
1168:.\Generated_Source\PSoC5/cyPm.c ****         ***********************************************************************/
1169:.\Generated_Source\PSoC5/cyPm.c **** 
1170:.\Generated_Source\PSoC5/cyPm.c ****         #if(CY_PSOC5A)
1171:.\Generated_Source\PSoC5/cyPm.c **** 
1172:.\Generated_Source\PSoC5/cyPm.c ****             cyPmBackup.i2cRegBackup = CY_PM_ENABLED;
 1225              		.loc 1 1172 0
 1226 0018 40F20003 		movw	r3, #:lower16:cyPmBackup
 1227 001c C0F20003 		movt	r3, #:upper16:cyPmBackup
 1228 0020 4FF00102 		mov	r2, #1
 1229 0024 DA70     		strb	r2, [r3, #3]
1173:.\Generated_Source\PSoC5/cyPm.c **** 
1174:.\Generated_Source\PSoC5/cyPm.c ****         #endif /* (CY_PSOC5A) */
1175:.\Generated_Source\PSoC5/cyPm.c **** 
1176:.\Generated_Source\PSoC5/cyPm.c ****         /* Disable I2C backup register */
1177:.\Generated_Source\PSoC5/cyPm.c ****         CY_PM_PWRSYS_CR1_REG &= ~CY_PM_PWRSYS_CR1_I2CREG_BACKUP;
 1230              		.loc 1 1177 0
 1231 0026 44F23133 		movw	r3, #:lower16:1073759025
 1232 002a C4F20003 		movt	r3, #:upper16:1073759025
 1233 002e 44F23132 		movw	r2, #:lower16:1073759025
 1234 0032 C4F20002 		movt	r2, #:upper16:1073759025
 1235 0036 1278     		ldrb	r2, [r2, #0]
 1236 0038 D2B2     		uxtb	r2, r2
 1237 003a 02F0FB02 		and	r2, r2, #251
 1238 003e 1A70     		strb	r2, [r3, #0]
 1239 0040 06E0     		b	.L62
 1240              	.L61:
1178:.\Generated_Source\PSoC5/cyPm.c ****     }
1179:.\Generated_Source\PSoC5/cyPm.c ****     else
1180:.\Generated_Source\PSoC5/cyPm.c ****     {
1181:.\Generated_Source\PSoC5/cyPm.c ****         #if(CY_PSOC5A)
1182:.\Generated_Source\PSoC5/cyPm.c **** 
1183:.\Generated_Source\PSoC5/cyPm.c ****             /* Save disabled state of the I2C backup regulator */
1184:.\Generated_Source\PSoC5/cyPm.c ****             cyPmBackup.i2cRegBackup = CY_PM_DISABLED;
 1241              		.loc 1 1184 0
 1242 0042 40F20003 		movw	r3, #:lower16:cyPmBackup
 1243 0046 C0F20003 		movt	r3, #:upper16:cyPmBackup
 1244 004a 4FF00002 		mov	r2, #0
 1245 004e DA70     		strb	r2, [r3, #3]
 1246              	.L62:
1185:.\Generated_Source\PSoC5/cyPm.c **** 
1186:.\Generated_Source\PSoC5/cyPm.c ****         #endif /* (CY_PSOC5A) */
1187:.\Generated_Source\PSoC5/cyPm.c ****     }
1188:.\Generated_Source\PSoC5/cyPm.c **** 
1189:.\Generated_Source\PSoC5/cyPm.c ****     /* Device is PSoC 3 and the revision is ES3 or later */
1190:.\Generated_Source\PSoC5/cyPm.c ****     #if(CY_PSOC3)
1191:.\Generated_Source\PSoC5/cyPm.c **** 
1192:.\Generated_Source\PSoC5/cyPm.c ****         /* Save current ILO power mode and ensure low power mode */
1193:.\Generated_Source\PSoC5/cyPm.c ****         cyPmBackup.iloPowerMode = CyILO_SetPowerMode(CY_PM_POWERDOWN_MODE);
1194:.\Generated_Source\PSoC5/cyPm.c **** 
ARM GAS  C:\Users\Heiwa\AppData\Local\Temp\cc88StSU.s 			page 44


1195:.\Generated_Source\PSoC5/cyPm.c ****         /* Save current 1kHz ILO enable state. Disabled automatically. */
1196:.\Generated_Source\PSoC5/cyPm.c ****         cyPmBackup.ilo1kEnable = (0u == (CY_PM_SLOWCLK_ILO_CR0_REG & CY_PM_ILO_CR0_EN_1K)) ?
1197:.\Generated_Source\PSoC5/cyPm.c ****                                     CY_PM_DISABLED : CY_PM_ENABLED;
1198:.\Generated_Source\PSoC5/cyPm.c **** 
1199:.\Generated_Source\PSoC5/cyPm.c ****         /* Save current 100kHz ILO enable state. Disabled automatically. */
1200:.\Generated_Source\PSoC5/cyPm.c ****         cyPmBackup.ilo100kEnable = (0u == (CY_PM_SLOWCLK_ILO_CR0_REG & CY_PM_ILO_CR0_EN_100K)) ?
1201:.\Generated_Source\PSoC5/cyPm.c ****                                     CY_PM_DISABLED : CY_PM_ENABLED;
1202:.\Generated_Source\PSoC5/cyPm.c **** 
1203:.\Generated_Source\PSoC5/cyPm.c **** 
1204:.\Generated_Source\PSoC5/cyPm.c ****         if(0u == (CY_PM_PWRSYS_SLP_TR_REG & CY_PM_PWRSYS_SLP_TR_BYPASS))
1205:.\Generated_Source\PSoC5/cyPm.c ****         {
1206:.\Generated_Source\PSoC5/cyPm.c ****             /* Save current bypass state */
1207:.\Generated_Source\PSoC5/cyPm.c ****             cyPmBackup.slpTrBypass = CY_PM_DISABLED;
1208:.\Generated_Source\PSoC5/cyPm.c **** 
1209:.\Generated_Source\PSoC5/cyPm.c ****             /* Disables the sleep regulator and shorts vccd to vpwrsleep */
1210:.\Generated_Source\PSoC5/cyPm.c ****             CY_PM_PWRSYS_SLP_TR_REG |= CY_PM_PWRSYS_SLP_TR_BYPASS;
1211:.\Generated_Source\PSoC5/cyPm.c ****         }
1212:.\Generated_Source\PSoC5/cyPm.c ****         else
1213:.\Generated_Source\PSoC5/cyPm.c ****         {
1214:.\Generated_Source\PSoC5/cyPm.c ****             /* Save current bypass state */
1215:.\Generated_Source\PSoC5/cyPm.c ****             cyPmBackup.slpTrBypass = CY_PM_ENABLED;
1216:.\Generated_Source\PSoC5/cyPm.c ****         }
1217:.\Generated_Source\PSoC5/cyPm.c **** 
1218:.\Generated_Source\PSoC5/cyPm.c ****         /* LPCOMPs are always enabled (even when BOTH ext_vccd=1 and ext_vcca=1)*/
1219:.\Generated_Source\PSoC5/cyPm.c **** 
1220:.\Generated_Source\PSoC5/cyPm.c ****     #endif /* (CY_PSOC3) */
1221:.\Generated_Source\PSoC5/cyPm.c **** 
1222:.\Generated_Source\PSoC5/cyPm.c **** 
1223:.\Generated_Source\PSoC5/cyPm.c ****     /* Device is PSoC 5 and the revision is ES1 or earlier. */
1224:.\Generated_Source\PSoC5/cyPm.c ****     #if(CY_PSOC5A)
1225:.\Generated_Source\PSoC5/cyPm.c **** 
1226:.\Generated_Source\PSoC5/cyPm.c ****         /* Disable all the PICU interrupts */
1227:.\Generated_Source\PSoC5/cyPm.c ****         CyPmDisablePicuInterrupts();
 1247              		.loc 1 1227 0
 1248 0050 FFF7FEFF 		bl	CyPmDisablePicuInterrupts
1228:.\Generated_Source\PSoC5/cyPm.c **** 
1229:.\Generated_Source\PSoC5/cyPm.c ****     #endif  /* (CY_PSOC5A) */
1230:.\Generated_Source\PSoC5/cyPm.c **** 
1231:.\Generated_Source\PSoC5/cyPm.c **** 
1232:.\Generated_Source\PSoC5/cyPm.c ****     /***************************************************************************
1233:.\Generated_Source\PSoC5/cyPm.c ****     * LVI/HVI must be disabled in Hibernate
1234:.\Generated_Source\PSoC5/cyPm.c ****     ***************************************************************************/
1235:.\Generated_Source\PSoC5/cyPm.c **** 
1236:.\Generated_Source\PSoC5/cyPm.c ****     /* Save LVI/HVI configuration */
1237:.\Generated_Source\PSoC5/cyPm.c ****     cyPmBackup.lviaLvidHvi = (CY_PM_RESET_CR1_REG & CY_PM_RESET_CR1_HVI_LVI_EN_MASK);
 1249              		.loc 1 1237 0
 1250 0054 44F2F563 		movw	r3, #:lower16:1073759989
 1251 0058 C4F20003 		movt	r3, #:upper16:1073759989
 1252 005c 1B78     		ldrb	r3, [r3, #0]
 1253 005e DBB2     		uxtb	r3, r3
 1254 0060 1A46     		mov	r2, r3
 1255 0062 02F00702 		and	r2, r2, #7
 1256 0066 40F20003 		movw	r3, #:lower16:cyPmBackup
 1257 006a C0F20003 		movt	r3, #:upper16:cyPmBackup
 1258 006e 1A71     		strb	r2, [r3, #4]
1238:.\Generated_Source\PSoC5/cyPm.c **** 
1239:.\Generated_Source\PSoC5/cyPm.c ****     /* Disable LVI/HVI */
ARM GAS  C:\Users\Heiwa\AppData\Local\Temp\cc88StSU.s 			page 45


1240:.\Generated_Source\PSoC5/cyPm.c ****     CY_PM_RESET_CR1_REG &= ~CY_PM_RESET_CR1_HVI_LVI_EN_MASK;
 1259              		.loc 1 1240 0
 1260 0070 44F2F563 		movw	r3, #:lower16:1073759989
 1261 0074 C4F20003 		movt	r3, #:upper16:1073759989
 1262 0078 44F2F562 		movw	r2, #:lower16:1073759989
 1263 007c C4F20002 		movt	r2, #:upper16:1073759989
 1264 0080 1278     		ldrb	r2, [r2, #0]
 1265 0082 D2B2     		uxtb	r2, r2
 1266 0084 02F0F802 		and	r2, r2, #248
 1267 0088 1A70     		strb	r2, [r3, #0]
1241:.\Generated_Source\PSoC5/cyPm.c **** 
1242:.\Generated_Source\PSoC5/cyPm.c **** 
1243:.\Generated_Source\PSoC5/cyPm.c ****     /* Make the same preparations for Hibernate and Sleep modes */
1244:.\Generated_Source\PSoC5/cyPm.c ****     CyPmHibSlpSaveSet();
 1268              		.loc 1 1244 0
 1269 008a FFF7FEFF 		bl	CyPmHibSlpSaveSet
1245:.\Generated_Source\PSoC5/cyPm.c **** }
 1270              		.loc 1 1245 0
 1271 008e 80BD     		pop	{r7, pc}
 1272              		.cfi_endproc
 1273              	.LFE6:
 1274              		.size	CyPmHibSaveSet, .-CyPmHibSaveSet
 1275              		.section	.text.CyPmHibRestore,"ax",%progbits
 1276              		.align	2
 1277              		.thumb
 1278              		.thumb_func
 1279              		.type	CyPmHibRestore, %function
 1280              	CyPmHibRestore:
 1281              	.LFB7:
1246:.\Generated_Source\PSoC5/cyPm.c **** 
1247:.\Generated_Source\PSoC5/cyPm.c **** 
1248:.\Generated_Source\PSoC5/cyPm.c **** /*******************************************************************************
1249:.\Generated_Source\PSoC5/cyPm.c **** * Function Name: CyPmHibRestore
1250:.\Generated_Source\PSoC5/cyPm.c **** ********************************************************************************
1251:.\Generated_Source\PSoC5/cyPm.c **** *
1252:.\Generated_Source\PSoC5/cyPm.c **** * Summary:
1253:.\Generated_Source\PSoC5/cyPm.c **** *  Restore device for proper Hibernate mode exit:
1254:.\Generated_Source\PSoC5/cyPm.c **** *  - Restore LVI/HVI configuration
1255:.\Generated_Source\PSoC5/cyPm.c **** *  - CyPmHibSlpSaveRestore() function is called
1256:.\Generated_Source\PSoC5/cyPm.c **** *  - Restores state of I2C backup regulator (PSoC5 ES1)
1257:.\Generated_Source\PSoC5/cyPm.c **** *  - Restores ILO power down mode state and enable it (PSoC3 ES3)
1258:.\Generated_Source\PSoC5/cyPm.c **** *  - Restores enable state of 1 kHz and 100 kHz ILO and disable them (PSoC3 ES3)
1259:.\Generated_Source\PSoC5/cyPm.c **** *  - Restores sleep regulator settings (PSoC3 ES3)
1260:.\Generated_Source\PSoC5/cyPm.c **** *
1261:.\Generated_Source\PSoC5/cyPm.c **** * Parameters:
1262:.\Generated_Source\PSoC5/cyPm.c **** *  None
1263:.\Generated_Source\PSoC5/cyPm.c **** *
1264:.\Generated_Source\PSoC5/cyPm.c **** * Return:
1265:.\Generated_Source\PSoC5/cyPm.c **** *  None
1266:.\Generated_Source\PSoC5/cyPm.c **** *
1267:.\Generated_Source\PSoC5/cyPm.c **** *******************************************************************************/
1268:.\Generated_Source\PSoC5/cyPm.c **** static void CyPmHibRestore(void) 
1269:.\Generated_Source\PSoC5/cyPm.c **** {
 1282              		.loc 1 1269 0
 1283              		.cfi_startproc
 1284              		@ args = 0, pretend = 0, frame = 0
 1285              		@ frame_needed = 1, uses_anonymous_args = 0
ARM GAS  C:\Users\Heiwa\AppData\Local\Temp\cc88StSU.s 			page 46


 1286 0000 80B5     		push	{r7, lr}
 1287              	.LCFI19:
 1288              		.cfi_def_cfa_offset 8
 1289 0002 00AF     		add	r7, sp, #0
 1290              		.cfi_offset 14, -4
 1291              		.cfi_offset 7, -8
 1292              	.LCFI20:
 1293              		.cfi_def_cfa_register 7
1270:.\Generated_Source\PSoC5/cyPm.c **** 
1271:.\Generated_Source\PSoC5/cyPm.c ****     /* Restore LVI/HVI configuration */
1272:.\Generated_Source\PSoC5/cyPm.c ****     CY_PM_RESET_CR1_REG |= cyPmBackup.lviaLvidHvi;
 1294              		.loc 1 1272 0
 1295 0004 44F2F563 		movw	r3, #:lower16:1073759989
 1296 0008 C4F20003 		movt	r3, #:upper16:1073759989
 1297 000c 44F2F562 		movw	r2, #:lower16:1073759989
 1298 0010 C4F20002 		movt	r2, #:upper16:1073759989
 1299 0014 1278     		ldrb	r2, [r2, #0]
 1300 0016 D1B2     		uxtb	r1, r2
 1301 0018 40F20002 		movw	r2, #:lower16:cyPmBackup
 1302 001c C0F20002 		movt	r2, #:upper16:cyPmBackup
 1303 0020 1279     		ldrb	r2, [r2, #4]	@ zero_extendqisi2
 1304 0022 41EA0202 		orr	r2, r1, r2
 1305 0026 D2B2     		uxtb	r2, r2
 1306 0028 1A70     		strb	r2, [r3, #0]
1273:.\Generated_Source\PSoC5/cyPm.c **** 
1274:.\Generated_Source\PSoC5/cyPm.c ****     /* Restore the same configuration for Hibernate and Sleep modes */
1275:.\Generated_Source\PSoC5/cyPm.c ****     CyPmHibSlpRestore();
 1307              		.loc 1 1275 0
 1308 002a FFF7FEFF 		bl	CyPmHibSlpRestore
1276:.\Generated_Source\PSoC5/cyPm.c **** 
1277:.\Generated_Source\PSoC5/cyPm.c ****     #if(CY_PSOC5A)
1278:.\Generated_Source\PSoC5/cyPm.c **** 
1279:.\Generated_Source\PSoC5/cyPm.c ****         /* Restore I2C backup regulator configuration */
1280:.\Generated_Source\PSoC5/cyPm.c ****         if(CY_PM_ENABLED == cyPmBackup.i2cRegBackup)
 1309              		.loc 1 1280 0
 1310 002e 40F20003 		movw	r3, #:lower16:cyPmBackup
 1311 0032 C0F20003 		movt	r3, #:upper16:cyPmBackup
 1312 0036 DB78     		ldrb	r3, [r3, #3]	@ zero_extendqisi2
 1313 0038 012B     		cmp	r3, #1
 1314 003a 0DD1     		bne	.L66
1281:.\Generated_Source\PSoC5/cyPm.c ****         {
1282:.\Generated_Source\PSoC5/cyPm.c ****             /* Enable I2C backup regulator state */
1283:.\Generated_Source\PSoC5/cyPm.c ****             CY_PM_PWRSYS_CR1_REG |= CY_PM_PWRSYS_CR1_I2CREG_BACKUP;
 1315              		.loc 1 1283 0
 1316 003c 44F23133 		movw	r3, #:lower16:1073759025
 1317 0040 C4F20003 		movt	r3, #:upper16:1073759025
 1318 0044 44F23132 		movw	r2, #:lower16:1073759025
 1319 0048 C4F20002 		movt	r2, #:upper16:1073759025
 1320 004c 1278     		ldrb	r2, [r2, #0]
 1321 004e D2B2     		uxtb	r2, r2
 1322 0050 42F00402 		orr	r2, r2, #4
 1323 0054 D2B2     		uxtb	r2, r2
 1324 0056 1A70     		strb	r2, [r3, #0]
 1325              	.L66:
1284:.\Generated_Source\PSoC5/cyPm.c ****         }
1285:.\Generated_Source\PSoC5/cyPm.c **** 
1286:.\Generated_Source\PSoC5/cyPm.c ****     #endif /* (CY_PSOC5A) */
ARM GAS  C:\Users\Heiwa\AppData\Local\Temp\cc88StSU.s 			page 47


1287:.\Generated_Source\PSoC5/cyPm.c **** 
1288:.\Generated_Source\PSoC5/cyPm.c ****     /* Device is PSoC 3 and the revision is ES3 or later */
1289:.\Generated_Source\PSoC5/cyPm.c ****     #if(CY_PSOC3)
1290:.\Generated_Source\PSoC5/cyPm.c **** 
1291:.\Generated_Source\PSoC5/cyPm.c ****         /* Restore 1kHz ILO enable state */
1292:.\Generated_Source\PSoC5/cyPm.c ****         if(CY_PM_ENABLED == cyPmBackup.ilo1kEnable)
1293:.\Generated_Source\PSoC5/cyPm.c ****         {
1294:.\Generated_Source\PSoC5/cyPm.c ****             /* Enable 1kHz ILO */
1295:.\Generated_Source\PSoC5/cyPm.c ****             CyILO_Start1K();
1296:.\Generated_Source\PSoC5/cyPm.c ****         }
1297:.\Generated_Source\PSoC5/cyPm.c **** 
1298:.\Generated_Source\PSoC5/cyPm.c ****         /* Restore 100kHz ILO enable state */
1299:.\Generated_Source\PSoC5/cyPm.c ****         if(CY_PM_ENABLED == cyPmBackup.ilo100kEnable)
1300:.\Generated_Source\PSoC5/cyPm.c ****         {
1301:.\Generated_Source\PSoC5/cyPm.c ****             /* Enable 100kHz ILO */
1302:.\Generated_Source\PSoC5/cyPm.c ****             CyILO_Start100K();
1303:.\Generated_Source\PSoC5/cyPm.c ****         }
1304:.\Generated_Source\PSoC5/cyPm.c **** 
1305:.\Generated_Source\PSoC5/cyPm.c ****         /* Restore ILO power mode */
1306:.\Generated_Source\PSoC5/cyPm.c ****         (void) CyILO_SetPowerMode(cyPmBackup.iloPowerMode);
1307:.\Generated_Source\PSoC5/cyPm.c **** 
1308:.\Generated_Source\PSoC5/cyPm.c **** 
1309:.\Generated_Source\PSoC5/cyPm.c ****         if(CY_PM_DISABLED == cyPmBackup.slpTrBypass)
1310:.\Generated_Source\PSoC5/cyPm.c ****         {
1311:.\Generated_Source\PSoC5/cyPm.c ****             /* Enable the sleep regulator */
1312:.\Generated_Source\PSoC5/cyPm.c ****             CY_PM_PWRSYS_SLP_TR_REG &= ~CY_PM_PWRSYS_SLP_TR_BYPASS;
1313:.\Generated_Source\PSoC5/cyPm.c ****         }
1314:.\Generated_Source\PSoC5/cyPm.c **** 
1315:.\Generated_Source\PSoC5/cyPm.c ****     #endif /* (CY_PSOC3) */
1316:.\Generated_Source\PSoC5/cyPm.c **** }
 1326              		.loc 1 1316 0
 1327 0058 80BD     		pop	{r7, pc}
 1328              		.cfi_endproc
 1329              	.LFE7:
 1330              		.size	CyPmHibRestore, .-CyPmHibRestore
 1331 005a 00BF     		.section	.text.CyPmCtwSetInterval,"ax",%progbits
 1332              		.align	2
 1333              		.global	CyPmCtwSetInterval
 1334              		.thumb
 1335              		.thumb_func
 1336              		.type	CyPmCtwSetInterval, %function
 1337              	CyPmCtwSetInterval:
 1338              	.LFB8:
1317:.\Generated_Source\PSoC5/cyPm.c **** 
1318:.\Generated_Source\PSoC5/cyPm.c **** 
1319:.\Generated_Source\PSoC5/cyPm.c **** /*******************************************************************************
1320:.\Generated_Source\PSoC5/cyPm.c **** * Function Name: CyPmCtwSetInterval
1321:.\Generated_Source\PSoC5/cyPm.c **** ********************************************************************************
1322:.\Generated_Source\PSoC5/cyPm.c **** *
1323:.\Generated_Source\PSoC5/cyPm.c **** * Summary:
1324:.\Generated_Source\PSoC5/cyPm.c **** *  Performs CTW configuration:
1325:.\Generated_Source\PSoC5/cyPm.c **** *  - Disables CTW interrupt
1326:.\Generated_Source\PSoC5/cyPm.c **** *  - Enables 1 kHz ILO
1327:.\Generated_Source\PSoC5/cyPm.c **** *  - Sets new CTW interval
1328:.\Generated_Source\PSoC5/cyPm.c **** *
1329:.\Generated_Source\PSoC5/cyPm.c **** * Parameters:
1330:.\Generated_Source\PSoC5/cyPm.c **** *  ctwInterval: the CTW interval to be set.
ARM GAS  C:\Users\Heiwa\AppData\Local\Temp\cc88StSU.s 			page 48


1331:.\Generated_Source\PSoC5/cyPm.c **** *
1332:.\Generated_Source\PSoC5/cyPm.c **** * Return:
1333:.\Generated_Source\PSoC5/cyPm.c **** *  None
1334:.\Generated_Source\PSoC5/cyPm.c **** *
1335:.\Generated_Source\PSoC5/cyPm.c **** * Side Effects:
1336:.\Generated_Source\PSoC5/cyPm.c **** *  Enables ILO 1 KHz clock and leaves it enabled.
1337:.\Generated_Source\PSoC5/cyPm.c **** *
1338:.\Generated_Source\PSoC5/cyPm.c **** *******************************************************************************/
1339:.\Generated_Source\PSoC5/cyPm.c **** void CyPmCtwSetInterval(uint8 ctwInterval) 
1340:.\Generated_Source\PSoC5/cyPm.c **** {
 1339              		.loc 1 1340 0
 1340              		.cfi_startproc
 1341              		@ args = 0, pretend = 0, frame = 8
 1342              		@ frame_needed = 1, uses_anonymous_args = 0
 1343 0000 80B5     		push	{r7, lr}
 1344              	.LCFI21:
 1345              		.cfi_def_cfa_offset 8
 1346 0002 82B0     		sub	sp, sp, #8
 1347              	.LCFI22:
 1348              		.cfi_def_cfa_offset 16
 1349 0004 00AF     		add	r7, sp, #0
 1350              		.cfi_offset 14, -4
 1351              		.cfi_offset 7, -8
 1352              	.LCFI23:
 1353              		.cfi_def_cfa_register 7
 1354 0006 0346     		mov	r3, r0
 1355 0008 FB71     		strb	r3, [r7, #7]
1341:.\Generated_Source\PSoC5/cyPm.c ****     /* Disable CTW interrupt enable */
1342:.\Generated_Source\PSoC5/cyPm.c ****     CY_PM_TW_CFG2_REG &= ~CY_PM_CTW_IE;
 1356              		.loc 1 1342 0
 1357 000a 44F28233 		movw	r3, #:lower16:1073759106
 1358 000e C4F20003 		movt	r3, #:upper16:1073759106
 1359 0012 44F28232 		movw	r2, #:lower16:1073759106
 1360 0016 C4F20002 		movt	r2, #:upper16:1073759106
 1361 001a 1278     		ldrb	r2, [r2, #0]
 1362 001c D2B2     		uxtb	r2, r2
 1363 001e 02F0F702 		and	r2, r2, #247
 1364 0022 1A70     		strb	r2, [r3, #0]
1343:.\Generated_Source\PSoC5/cyPm.c **** 
1344:.\Generated_Source\PSoC5/cyPm.c ****     /* Enable 1kHz ILO (required for CTW operation) */
1345:.\Generated_Source\PSoC5/cyPm.c ****     CyILO_Start1K();
 1365              		.loc 1 1345 0
 1366 0024 FFF7FEFF 		bl	CyILO_Start1K
1346:.\Generated_Source\PSoC5/cyPm.c **** 
1347:.\Generated_Source\PSoC5/cyPm.c ****     /* Interval could be set only while CTW is disabled */
1348:.\Generated_Source\PSoC5/cyPm.c ****     if(0u != (CY_PM_TW_CFG2_REG & CY_PM_CTW_EN))
 1367              		.loc 1 1348 0
 1368 0028 44F28233 		movw	r3, #:lower16:1073759106
 1369 002c C4F20003 		movt	r3, #:upper16:1073759106
 1370 0030 1B78     		ldrb	r3, [r3, #0]
 1371 0032 DBB2     		uxtb	r3, r3
 1372 0034 03F00403 		and	r3, r3, #4
 1373 0038 002B     		cmp	r3, #0
 1374 003a 2AD0     		beq	.L68
1349:.\Generated_Source\PSoC5/cyPm.c ****     {
1350:.\Generated_Source\PSoC5/cyPm.c ****         /* Set CTW interval if needed */
1351:.\Generated_Source\PSoC5/cyPm.c ****         if(CY_PM_TW_CFG1_REG != ctwInterval)
ARM GAS  C:\Users\Heiwa\AppData\Local\Temp\cc88StSU.s 			page 49


 1375              		.loc 1 1351 0
 1376 003c 44F28133 		movw	r3, #:lower16:1073759105
 1377 0040 C4F20003 		movt	r3, #:upper16:1073759105
 1378 0044 1B78     		ldrb	r3, [r3, #0]
 1379 0046 DBB2     		uxtb	r3, r3
 1380 0048 FA79     		ldrb	r2, [r7, #7]	@ zero_extendqisi2
 1381 004a 9A42     		cmp	r2, r3
 1382 004c 3FD0     		beq	.L73
1352:.\Generated_Source\PSoC5/cyPm.c ****         {
1353:.\Generated_Source\PSoC5/cyPm.c ****             /* Disable the CTW, set new CTW interval and enable it again */
1354:.\Generated_Source\PSoC5/cyPm.c ****             CY_PM_TW_CFG2_REG &= ~CY_PM_CTW_EN;
 1383              		.loc 1 1354 0
 1384 004e 44F28233 		movw	r3, #:lower16:1073759106
 1385 0052 C4F20003 		movt	r3, #:upper16:1073759106
 1386 0056 44F28232 		movw	r2, #:lower16:1073759106
 1387 005a C4F20002 		movt	r2, #:upper16:1073759106
 1388 005e 1278     		ldrb	r2, [r2, #0]
 1389 0060 D2B2     		uxtb	r2, r2
 1390 0062 02F0FB02 		and	r2, r2, #251
 1391 0066 1A70     		strb	r2, [r3, #0]
1355:.\Generated_Source\PSoC5/cyPm.c ****             CY_PM_TW_CFG1_REG = ctwInterval;
 1392              		.loc 1 1355 0
 1393 0068 44F28133 		movw	r3, #:lower16:1073759105
 1394 006c C4F20003 		movt	r3, #:upper16:1073759105
 1395 0070 FA79     		ldrb	r2, [r7, #7]
 1396 0072 1A70     		strb	r2, [r3, #0]
1356:.\Generated_Source\PSoC5/cyPm.c ****             CY_PM_TW_CFG2_REG |= CY_PM_CTW_EN;
 1397              		.loc 1 1356 0
 1398 0074 44F28233 		movw	r3, #:lower16:1073759106
 1399 0078 C4F20003 		movt	r3, #:upper16:1073759106
 1400 007c 44F28232 		movw	r2, #:lower16:1073759106
 1401 0080 C4F20002 		movt	r2, #:upper16:1073759106
 1402 0084 1278     		ldrb	r2, [r2, #0]
 1403 0086 D2B2     		uxtb	r2, r2
 1404 0088 42F00402 		orr	r2, r2, #4
 1405 008c D2B2     		uxtb	r2, r2
 1406 008e 1A70     		strb	r2, [r3, #0]
 1407 0090 1EE0     		b	.L72
 1408              	.L68:
1357:.\Generated_Source\PSoC5/cyPm.c ****         }   /* Required interval is already set */
1358:.\Generated_Source\PSoC5/cyPm.c ****     }
1359:.\Generated_Source\PSoC5/cyPm.c ****     else
1360:.\Generated_Source\PSoC5/cyPm.c ****     {
1361:.\Generated_Source\PSoC5/cyPm.c ****         /* Set CTW interval if needed */
1362:.\Generated_Source\PSoC5/cyPm.c ****         if(CY_PM_TW_CFG1_REG != ctwInterval)
 1409              		.loc 1 1362 0
 1410 0092 44F28133 		movw	r3, #:lower16:1073759105
 1411 0096 C4F20003 		movt	r3, #:upper16:1073759105
 1412 009a 1B78     		ldrb	r3, [r3, #0]
 1413 009c DBB2     		uxtb	r3, r3
 1414 009e FA79     		ldrb	r2, [r7, #7]	@ zero_extendqisi2
 1415 00a0 9A42     		cmp	r2, r3
 1416 00a2 05D0     		beq	.L71
1363:.\Generated_Source\PSoC5/cyPm.c ****         {
1364:.\Generated_Source\PSoC5/cyPm.c ****             /* Set the new CTW interval. Could be changed if CTW is disabled */
1365:.\Generated_Source\PSoC5/cyPm.c ****             CY_PM_TW_CFG1_REG = ctwInterval;
 1417              		.loc 1 1365 0
ARM GAS  C:\Users\Heiwa\AppData\Local\Temp\cc88StSU.s 			page 50


 1418 00a4 44F28133 		movw	r3, #:lower16:1073759105
 1419 00a8 C4F20003 		movt	r3, #:upper16:1073759105
 1420 00ac FA79     		ldrb	r2, [r7, #7]
 1421 00ae 1A70     		strb	r2, [r3, #0]
 1422              	.L71:
1366:.\Generated_Source\PSoC5/cyPm.c ****         }   /* Required interval is already set */
1367:.\Generated_Source\PSoC5/cyPm.c **** 
1368:.\Generated_Source\PSoC5/cyPm.c ****         /* Enable the CTW */
1369:.\Generated_Source\PSoC5/cyPm.c ****         CY_PM_TW_CFG2_REG |= CY_PM_CTW_EN;
 1423              		.loc 1 1369 0
 1424 00b0 44F28233 		movw	r3, #:lower16:1073759106
 1425 00b4 C4F20003 		movt	r3, #:upper16:1073759106
 1426 00b8 44F28232 		movw	r2, #:lower16:1073759106
 1427 00bc C4F20002 		movt	r2, #:upper16:1073759106
 1428 00c0 1278     		ldrb	r2, [r2, #0]
 1429 00c2 D2B2     		uxtb	r2, r2
 1430 00c4 42F00402 		orr	r2, r2, #4
 1431 00c8 D2B2     		uxtb	r2, r2
 1432 00ca 1A70     		strb	r2, [r3, #0]
 1433 00cc 00E0     		b	.L72
 1434              	.L73:
 1435              		.loc 1 1356 0
 1436 00ce 00BF     		nop
 1437              	.L72:
1370:.\Generated_Source\PSoC5/cyPm.c ****     }
1371:.\Generated_Source\PSoC5/cyPm.c **** }
 1438              		.loc 1 1371 0
 1439 00d0 07F10807 		add	r7, r7, #8
 1440 00d4 BD46     		mov	sp, r7
 1441 00d6 80BD     		pop	{r7, pc}
 1442              		.cfi_endproc
 1443              	.LFE8:
 1444              		.size	CyPmCtwSetInterval, .-CyPmCtwSetInterval
 1445              		.section	.text.CyPmOppsSet,"ax",%progbits
 1446              		.align	2
 1447              		.global	CyPmOppsSet
 1448              		.thumb
 1449              		.thumb_func
 1450              		.type	CyPmOppsSet, %function
 1451              	CyPmOppsSet:
 1452              	.LFB9:
1372:.\Generated_Source\PSoC5/cyPm.c **** 
1373:.\Generated_Source\PSoC5/cyPm.c **** 
1374:.\Generated_Source\PSoC5/cyPm.c **** /*******************************************************************************
1375:.\Generated_Source\PSoC5/cyPm.c **** * Function Name: CyPmOppsSet
1376:.\Generated_Source\PSoC5/cyPm.c **** ********************************************************************************
1377:.\Generated_Source\PSoC5/cyPm.c **** *
1378:.\Generated_Source\PSoC5/cyPm.c **** * Summary:
1379:.\Generated_Source\PSoC5/cyPm.c **** *  Performs 1PPS configuration:
1380:.\Generated_Source\PSoC5/cyPm.c **** *  - Starts 32 KHz XTAL
1381:.\Generated_Source\PSoC5/cyPm.c **** *  - Disables 1PPS interupts
1382:.\Generated_Source\PSoC5/cyPm.c **** *  - Enables 1PPS
1383:.\Generated_Source\PSoC5/cyPm.c **** *
1384:.\Generated_Source\PSoC5/cyPm.c **** * Parameters:
1385:.\Generated_Source\PSoC5/cyPm.c **** *  None
1386:.\Generated_Source\PSoC5/cyPm.c **** *
1387:.\Generated_Source\PSoC5/cyPm.c **** * Return:
ARM GAS  C:\Users\Heiwa\AppData\Local\Temp\cc88StSU.s 			page 51


1388:.\Generated_Source\PSoC5/cyPm.c **** *  None
1389:.\Generated_Source\PSoC5/cyPm.c **** *
1390:.\Generated_Source\PSoC5/cyPm.c **** *******************************************************************************/
1391:.\Generated_Source\PSoC5/cyPm.c **** void CyPmOppsSet(void) 
1392:.\Generated_Source\PSoC5/cyPm.c **** {
 1453              		.loc 1 1392 0
 1454              		.cfi_startproc
 1455              		@ args = 0, pretend = 0, frame = 0
 1456              		@ frame_needed = 1, uses_anonymous_args = 0
 1457 0000 80B5     		push	{r7, lr}
 1458              	.LCFI24:
 1459              		.cfi_def_cfa_offset 8
 1460 0002 00AF     		add	r7, sp, #0
 1461              		.cfi_offset 14, -4
 1462              		.cfi_offset 7, -8
 1463              	.LCFI25:
 1464              		.cfi_def_cfa_register 7
1393:.\Generated_Source\PSoC5/cyPm.c ****     /* Enable 32kHz XTAL if needed */
1394:.\Generated_Source\PSoC5/cyPm.c ****     if(0u == (CY_PM_SLOWCLK_X32_CR_REG & CY_PM_X32_CR_X32EN))
 1465              		.loc 1 1394 0
 1466 0004 44F20833 		movw	r3, #:lower16:1073758984
 1467 0008 C4F20003 		movt	r3, #:upper16:1073758984
 1468 000c 1B78     		ldrb	r3, [r3, #0]
 1469 000e DBB2     		uxtb	r3, r3
 1470 0010 03F00103 		and	r3, r3, #1
 1471 0014 002B     		cmp	r3, #0
 1472 0016 01D1     		bne	.L75
1395:.\Generated_Source\PSoC5/cyPm.c ****     {
1396:.\Generated_Source\PSoC5/cyPm.c ****         /* Enable 32kHz XTAL */
1397:.\Generated_Source\PSoC5/cyPm.c ****         CyXTAL_32KHZ_Start();
 1473              		.loc 1 1397 0
 1474 0018 FFF7FEFF 		bl	CyXTAL_32KHZ_Start
 1475              	.L75:
1398:.\Generated_Source\PSoC5/cyPm.c ****     }
1399:.\Generated_Source\PSoC5/cyPm.c **** 
1400:.\Generated_Source\PSoC5/cyPm.c ****     /* Disable 1PPS interrupt enable */
1401:.\Generated_Source\PSoC5/cyPm.c ****     CY_PM_TW_CFG2_REG &= ~CY_PM_1PPS_IE;
 1476              		.loc 1 1401 0
 1477 001c 44F28233 		movw	r3, #:lower16:1073759106
 1478 0020 C4F20003 		movt	r3, #:upper16:1073759106
 1479 0024 44F28232 		movw	r2, #:lower16:1073759106
 1480 0028 C4F20002 		movt	r2, #:upper16:1073759106
 1481 002c 1278     		ldrb	r2, [r2, #0]
 1482 002e D2B2     		uxtb	r2, r2
 1483 0030 02F0DF02 		and	r2, r2, #223
 1484 0034 1A70     		strb	r2, [r3, #0]
1402:.\Generated_Source\PSoC5/cyPm.c **** 
1403:.\Generated_Source\PSoC5/cyPm.c ****     /* Enable 1PPS operation */
1404:.\Generated_Source\PSoC5/cyPm.c ****     CY_PM_TW_CFG2_REG |= CY_PM_1PPS_EN;
 1485              		.loc 1 1404 0
 1486 0036 44F28233 		movw	r3, #:lower16:1073759106
 1487 003a C4F20003 		movt	r3, #:upper16:1073759106
 1488 003e 44F28232 		movw	r2, #:lower16:1073759106
 1489 0042 C4F20002 		movt	r2, #:upper16:1073759106
 1490 0046 1278     		ldrb	r2, [r2, #0]
 1491 0048 D2B2     		uxtb	r2, r2
 1492 004a 42F01002 		orr	r2, r2, #16
ARM GAS  C:\Users\Heiwa\AppData\Local\Temp\cc88StSU.s 			page 52


 1493 004e D2B2     		uxtb	r2, r2
 1494 0050 1A70     		strb	r2, [r3, #0]
1405:.\Generated_Source\PSoC5/cyPm.c **** }
 1495              		.loc 1 1405 0
 1496 0052 80BD     		pop	{r7, pc}
 1497              		.cfi_endproc
 1498              	.LFE9:
 1499              		.size	CyPmOppsSet, .-CyPmOppsSet
 1500              		.section	.text.CyPmFtwSetInterval,"ax",%progbits
 1501              		.align	2
 1502              		.global	CyPmFtwSetInterval
 1503              		.thumb
 1504              		.thumb_func
 1505              		.type	CyPmFtwSetInterval, %function
 1506              	CyPmFtwSetInterval:
 1507              	.LFB10:
1406:.\Generated_Source\PSoC5/cyPm.c **** 
1407:.\Generated_Source\PSoC5/cyPm.c **** 
1408:.\Generated_Source\PSoC5/cyPm.c **** /*******************************************************************************
1409:.\Generated_Source\PSoC5/cyPm.c **** * Function Name: CyPmFtwSetInterval
1410:.\Generated_Source\PSoC5/cyPm.c **** ********************************************************************************
1411:.\Generated_Source\PSoC5/cyPm.c **** *
1412:.\Generated_Source\PSoC5/cyPm.c **** * Summary:
1413:.\Generated_Source\PSoC5/cyPm.c **** *  Performs FTW configuration:
1414:.\Generated_Source\PSoC5/cyPm.c **** *  - Disables FTW interrupt
1415:.\Generated_Source\PSoC5/cyPm.c **** *  - Enables 100 kHz ILO
1416:.\Generated_Source\PSoC5/cyPm.c **** *  - Sets new FTW interval.
1417:.\Generated_Source\PSoC5/cyPm.c **** *
1418:.\Generated_Source\PSoC5/cyPm.c **** * Parameters:
1419:.\Generated_Source\PSoC5/cyPm.c **** *  ftwInterval - FTW counter interval.
1420:.\Generated_Source\PSoC5/cyPm.c **** *
1421:.\Generated_Source\PSoC5/cyPm.c **** * Return:
1422:.\Generated_Source\PSoC5/cyPm.c **** *  None
1423:.\Generated_Source\PSoC5/cyPm.c **** *
1424:.\Generated_Source\PSoC5/cyPm.c **** * Side Effects:
1425:.\Generated_Source\PSoC5/cyPm.c **** *  Enables ILO 100 KHz clock and leaves it enabled.
1426:.\Generated_Source\PSoC5/cyPm.c **** *
1427:.\Generated_Source\PSoC5/cyPm.c **** *******************************************************************************/
1428:.\Generated_Source\PSoC5/cyPm.c **** void CyPmFtwSetInterval(uint8 ftwInterval) 
1429:.\Generated_Source\PSoC5/cyPm.c **** {
 1508              		.loc 1 1429 0
 1509              		.cfi_startproc
 1510              		@ args = 0, pretend = 0, frame = 8
 1511              		@ frame_needed = 1, uses_anonymous_args = 0
 1512 0000 80B5     		push	{r7, lr}
 1513              	.LCFI26:
 1514              		.cfi_def_cfa_offset 8
 1515 0002 82B0     		sub	sp, sp, #8
 1516              	.LCFI27:
 1517              		.cfi_def_cfa_offset 16
 1518 0004 00AF     		add	r7, sp, #0
 1519              		.cfi_offset 14, -4
 1520              		.cfi_offset 7, -8
 1521              	.LCFI28:
 1522              		.cfi_def_cfa_register 7
 1523 0006 0346     		mov	r3, r0
 1524 0008 FB71     		strb	r3, [r7, #7]
ARM GAS  C:\Users\Heiwa\AppData\Local\Temp\cc88StSU.s 			page 53


1430:.\Generated_Source\PSoC5/cyPm.c ****     /* Disable FTW interrupt enable */
1431:.\Generated_Source\PSoC5/cyPm.c ****     CY_PM_TW_CFG2_REG &= ~CY_PM_FTW_IE;
 1525              		.loc 1 1431 0
 1526 000a 44F28233 		movw	r3, #:lower16:1073759106
 1527 000e C4F20003 		movt	r3, #:upper16:1073759106
 1528 0012 44F28232 		movw	r2, #:lower16:1073759106
 1529 0016 C4F20002 		movt	r2, #:upper16:1073759106
 1530 001a 1278     		ldrb	r2, [r2, #0]
 1531 001c D2B2     		uxtb	r2, r2
 1532 001e 02F0FD02 		and	r2, r2, #253
 1533 0022 1A70     		strb	r2, [r3, #0]
1432:.\Generated_Source\PSoC5/cyPm.c **** 
1433:.\Generated_Source\PSoC5/cyPm.c ****     /* Enable 100kHz ILO */
1434:.\Generated_Source\PSoC5/cyPm.c ****     CyILO_Start100K();
 1534              		.loc 1 1434 0
 1535 0024 FFF7FEFF 		bl	CyILO_Start100K
1435:.\Generated_Source\PSoC5/cyPm.c **** 
1436:.\Generated_Source\PSoC5/cyPm.c ****     /* Iterval could be set only while FTW is disabled */
1437:.\Generated_Source\PSoC5/cyPm.c ****     if(0u != (CY_PM_TW_CFG2_REG & CY_PM_FTW_EN))
 1536              		.loc 1 1437 0
 1537 0028 44F28233 		movw	r3, #:lower16:1073759106
 1538 002c C4F20003 		movt	r3, #:upper16:1073759106
 1539 0030 1B78     		ldrb	r3, [r3, #0]
 1540 0032 DBB2     		uxtb	r3, r3
 1541 0034 03F00103 		and	r3, r3, #1
 1542 0038 DBB2     		uxtb	r3, r3
 1543 003a 002B     		cmp	r3, #0
 1544 003c 2AD0     		beq	.L78
1438:.\Generated_Source\PSoC5/cyPm.c ****     {
1439:.\Generated_Source\PSoC5/cyPm.c ****         /* Disable FTW, set new FTW interval if needed and enable it again */
1440:.\Generated_Source\PSoC5/cyPm.c ****         if(CY_PM_TW_CFG0_REG != ftwInterval)
 1545              		.loc 1 1440 0
 1546 003e 44F28033 		movw	r3, #:lower16:1073759104
 1547 0042 C4F20003 		movt	r3, #:upper16:1073759104
 1548 0046 1B78     		ldrb	r3, [r3, #0]
 1549 0048 DBB2     		uxtb	r3, r3
 1550 004a FA79     		ldrb	r2, [r7, #7]	@ zero_extendqisi2
 1551 004c 9A42     		cmp	r2, r3
 1552 004e 3FD0     		beq	.L83
1441:.\Generated_Source\PSoC5/cyPm.c ****         {
1442:.\Generated_Source\PSoC5/cyPm.c ****             /* Disable the CTW, set new CTW interval and enable it again */
1443:.\Generated_Source\PSoC5/cyPm.c ****             CY_PM_TW_CFG2_REG &= ~CY_PM_FTW_EN;
 1553              		.loc 1 1443 0
 1554 0050 44F28233 		movw	r3, #:lower16:1073759106
 1555 0054 C4F20003 		movt	r3, #:upper16:1073759106
 1556 0058 44F28232 		movw	r2, #:lower16:1073759106
 1557 005c C4F20002 		movt	r2, #:upper16:1073759106
 1558 0060 1278     		ldrb	r2, [r2, #0]
 1559 0062 D2B2     		uxtb	r2, r2
 1560 0064 02F0FE02 		and	r2, r2, #254
 1561 0068 1A70     		strb	r2, [r3, #0]
1444:.\Generated_Source\PSoC5/cyPm.c ****             CY_PM_TW_CFG0_REG = ftwInterval;
 1562              		.loc 1 1444 0
 1563 006a 44F28033 		movw	r3, #:lower16:1073759104
 1564 006e C4F20003 		movt	r3, #:upper16:1073759104
 1565 0072 FA79     		ldrb	r2, [r7, #7]
 1566 0074 1A70     		strb	r2, [r3, #0]
ARM GAS  C:\Users\Heiwa\AppData\Local\Temp\cc88StSU.s 			page 54


1445:.\Generated_Source\PSoC5/cyPm.c ****             CY_PM_TW_CFG2_REG |= CY_PM_FTW_EN;
 1567              		.loc 1 1445 0
 1568 0076 44F28233 		movw	r3, #:lower16:1073759106
 1569 007a C4F20003 		movt	r3, #:upper16:1073759106
 1570 007e 44F28232 		movw	r2, #:lower16:1073759106
 1571 0082 C4F20002 		movt	r2, #:upper16:1073759106
 1572 0086 1278     		ldrb	r2, [r2, #0]
 1573 0088 D2B2     		uxtb	r2, r2
 1574 008a 42F00102 		orr	r2, r2, #1
 1575 008e D2B2     		uxtb	r2, r2
 1576 0090 1A70     		strb	r2, [r3, #0]
 1577 0092 1EE0     		b	.L82
 1578              	.L78:
1446:.\Generated_Source\PSoC5/cyPm.c ****         }   /* Required interval is already set */
1447:.\Generated_Source\PSoC5/cyPm.c ****     }
1448:.\Generated_Source\PSoC5/cyPm.c ****     else
1449:.\Generated_Source\PSoC5/cyPm.c ****     {
1450:.\Generated_Source\PSoC5/cyPm.c ****         /* Set new FTW counter interval if needed. FTW is disabled. */
1451:.\Generated_Source\PSoC5/cyPm.c ****         if(CY_PM_TW_CFG0_REG != ftwInterval)
 1579              		.loc 1 1451 0
 1580 0094 44F28033 		movw	r3, #:lower16:1073759104
 1581 0098 C4F20003 		movt	r3, #:upper16:1073759104
 1582 009c 1B78     		ldrb	r3, [r3, #0]
 1583 009e DBB2     		uxtb	r3, r3
 1584 00a0 FA79     		ldrb	r2, [r7, #7]	@ zero_extendqisi2
 1585 00a2 9A42     		cmp	r2, r3
 1586 00a4 05D0     		beq	.L81
1452:.\Generated_Source\PSoC5/cyPm.c ****         {
1453:.\Generated_Source\PSoC5/cyPm.c ****             /* Set the new CTW interval. Could be changed if CTW is disabled */
1454:.\Generated_Source\PSoC5/cyPm.c ****             CY_PM_TW_CFG0_REG = ftwInterval;
 1587              		.loc 1 1454 0
 1588 00a6 44F28033 		movw	r3, #:lower16:1073759104
 1589 00aa C4F20003 		movt	r3, #:upper16:1073759104
 1590 00ae FA79     		ldrb	r2, [r7, #7]
 1591 00b0 1A70     		strb	r2, [r3, #0]
 1592              	.L81:
1455:.\Generated_Source\PSoC5/cyPm.c ****         }   /* Required interval is already set */
1456:.\Generated_Source\PSoC5/cyPm.c **** 
1457:.\Generated_Source\PSoC5/cyPm.c ****         /* Enable the FTW */
1458:.\Generated_Source\PSoC5/cyPm.c ****         CY_PM_TW_CFG2_REG |= CY_PM_FTW_EN;
 1593              		.loc 1 1458 0
 1594 00b2 44F28233 		movw	r3, #:lower16:1073759106
 1595 00b6 C4F20003 		movt	r3, #:upper16:1073759106
 1596 00ba 44F28232 		movw	r2, #:lower16:1073759106
 1597 00be C4F20002 		movt	r2, #:upper16:1073759106
 1598 00c2 1278     		ldrb	r2, [r2, #0]
 1599 00c4 D2B2     		uxtb	r2, r2
 1600 00c6 42F00102 		orr	r2, r2, #1
 1601 00ca D2B2     		uxtb	r2, r2
 1602 00cc 1A70     		strb	r2, [r3, #0]
 1603 00ce 00E0     		b	.L82
 1604              	.L83:
 1605              		.loc 1 1445 0
 1606 00d0 00BF     		nop
 1607              	.L82:
1459:.\Generated_Source\PSoC5/cyPm.c ****     }
1460:.\Generated_Source\PSoC5/cyPm.c **** }
ARM GAS  C:\Users\Heiwa\AppData\Local\Temp\cc88StSU.s 			page 55


 1608              		.loc 1 1460 0
 1609 00d2 07F10807 		add	r7, r7, #8
 1610 00d6 BD46     		mov	sp, r7
 1611 00d8 80BD     		pop	{r7, pc}
 1612              		.cfi_endproc
 1613              	.LFE10:
 1614              		.size	CyPmFtwSetInterval, .-CyPmFtwSetInterval
 1615 00da 00BF     		.section	.text.CyPmSavePicuInterrupts,"ax",%progbits
 1616              		.align	2
 1617              		.thumb
 1618              		.thumb_func
 1619              		.type	CyPmSavePicuInterrupts, %function
 1620              	CyPmSavePicuInterrupts:
 1621              	.LFB11:
1461:.\Generated_Source\PSoC5/cyPm.c **** 
1462:.\Generated_Source\PSoC5/cyPm.c **** 
1463:.\Generated_Source\PSoC5/cyPm.c **** #if(CY_PSOC5A)
1464:.\Generated_Source\PSoC5/cyPm.c **** 
1465:.\Generated_Source\PSoC5/cyPm.c ****     /*******************************************************************************
1466:.\Generated_Source\PSoC5/cyPm.c ****     * Function Name: CyPmSavePicuInterrupts
1467:.\Generated_Source\PSoC5/cyPm.c ****     ********************************************************************************
1468:.\Generated_Source\PSoC5/cyPm.c ****     *
1469:.\Generated_Source\PSoC5/cyPm.c ****     * Summary:
1470:.\Generated_Source\PSoC5/cyPm.c ****     *  Saves PICU interrupt type registers to the backup structure.
1471:.\Generated_Source\PSoC5/cyPm.c ****     *
1472:.\Generated_Source\PSoC5/cyPm.c ****     * Parameters:
1473:.\Generated_Source\PSoC5/cyPm.c ****     *  None
1474:.\Generated_Source\PSoC5/cyPm.c ****     *
1475:.\Generated_Source\PSoC5/cyPm.c ****     * Return:
1476:.\Generated_Source\PSoC5/cyPm.c ****     *  None
1477:.\Generated_Source\PSoC5/cyPm.c ****     *
1478:.\Generated_Source\PSoC5/cyPm.c ****     * Reentrant:
1479:.\Generated_Source\PSoC5/cyPm.c ****     *  No
1480:.\Generated_Source\PSoC5/cyPm.c ****     *
1481:.\Generated_Source\PSoC5/cyPm.c ****     *******************************************************************************/
1482:.\Generated_Source\PSoC5/cyPm.c ****     static void CyPmSavePicuInterrupts(void) 
1483:.\Generated_Source\PSoC5/cyPm.c ****     {
 1622              		.loc 1 1483 0
 1623              		.cfi_startproc
 1624              		@ args = 0, pretend = 0, frame = 0
 1625              		@ frame_needed = 1, uses_anonymous_args = 0
 1626 0000 80B5     		push	{r7, lr}
 1627              	.LCFI29:
 1628              		.cfi_def_cfa_offset 8
 1629 0002 00AF     		add	r7, sp, #0
 1630              		.cfi_offset 14, -4
 1631              		.cfi_offset 7, -8
 1632              	.LCFI30:
 1633              		.cfi_def_cfa_register 7
1484:.\Generated_Source\PSoC5/cyPm.c ****         /* Save all the PICU interrupt type */
1485:.\Generated_Source\PSoC5/cyPm.c ****         memcpy((void *) &cyPmBackup.picuIntType[0u],
 1634              		.loc 1 1485 0
 1635 0004 0E48     		ldr	r0, .L86
 1636 0006 44F20051 		movw	r1, #:lower16:1073759488
 1637 000a C4F20001 		movt	r1, #:upper16:1073759488
 1638 000e 4FF03802 		mov	r2, #56
 1639 0012 FFF7FEFF 		bl	memcpy
ARM GAS  C:\Users\Heiwa\AppData\Local\Temp\cc88StSU.s 			page 56


1486:.\Generated_Source\PSoC5/cyPm.c ****                (void *) CY_PM_PICU_0_6_INT_BASE,
1487:.\Generated_Source\PSoC5/cyPm.c ****                CY_PM_PICU_0_6_INT_SIZE);
1488:.\Generated_Source\PSoC5/cyPm.c **** 
1489:.\Generated_Source\PSoC5/cyPm.c ****         memcpy((void *) &cyPmBackup.picuIntType[CY_PM_PICU_0_6_INT_SIZE],
 1640              		.loc 1 1489 0
 1641 0016 0B4B     		ldr	r3, .L86+4
 1642 0018 1846     		mov	r0, r3
 1643 001a 44F26051 		movw	r1, #:lower16:1073759584
 1644 001e C4F20001 		movt	r1, #:upper16:1073759584
 1645 0022 4FF00802 		mov	r2, #8
 1646 0026 FFF7FEFF 		bl	memcpy
1490:.\Generated_Source\PSoC5/cyPm.c ****                (void *) CY_PM_PICU_12_INT_BASE,
1491:.\Generated_Source\PSoC5/cyPm.c ****                CY_PM_PICU_12_INT_SIZE);
1492:.\Generated_Source\PSoC5/cyPm.c **** 
1493:.\Generated_Source\PSoC5/cyPm.c ****         memcpy((void *) &cyPmBackup.picuIntType[CY_PM_PICU_0_6_INT_SIZE + CY_PM_PICU_12_INT_SIZE],
 1647              		.loc 1 1493 0
 1648 002a 074B     		ldr	r3, .L86+8
 1649 002c 1846     		mov	r0, r3
 1650 002e 44F27851 		movw	r1, #:lower16:1073759608
 1651 0032 C4F20001 		movt	r1, #:upper16:1073759608
 1652 0036 4FF00802 		mov	r2, #8
 1653 003a FFF7FEFF 		bl	memcpy
1494:.\Generated_Source\PSoC5/cyPm.c ****                (void *) CY_PM_PICU_15_INT_BASE,
1495:.\Generated_Source\PSoC5/cyPm.c ****                CY_PM_PICU_15_INT_SIZE);
1496:.\Generated_Source\PSoC5/cyPm.c **** 
1497:.\Generated_Source\PSoC5/cyPm.c ****     }
 1654              		.loc 1 1497 0
 1655 003e 80BD     		pop	{r7, pc}
 1656              	.L87:
 1657              		.align	2
 1658              	.L86:
 1659 0040 56000000 		.word	cyPmBackup+86
 1660 0044 8E000000 		.word	cyPmBackup+142
 1661 0048 96000000 		.word	cyPmBackup+150
 1662              		.cfi_endproc
 1663              	.LFE11:
 1664              		.size	CyPmSavePicuInterrupts, .-CyPmSavePicuInterrupts
 1665              		.section	.text.CyPmDisablePicuInterrupts,"ax",%progbits
 1666              		.align	2
 1667              		.thumb
 1668              		.thumb_func
 1669              		.type	CyPmDisablePicuInterrupts, %function
 1670              	CyPmDisablePicuInterrupts:
 1671              	.LFB12:
1498:.\Generated_Source\PSoC5/cyPm.c **** 
1499:.\Generated_Source\PSoC5/cyPm.c **** 
1500:.\Generated_Source\PSoC5/cyPm.c ****     /*******************************************************************************
1501:.\Generated_Source\PSoC5/cyPm.c ****     * Function Name: CyPmDisablePicuInterrupts
1502:.\Generated_Source\PSoC5/cyPm.c ****     ********************************************************************************
1503:.\Generated_Source\PSoC5/cyPm.c ****     *
1504:.\Generated_Source\PSoC5/cyPm.c ****     * Summary:
1505:.\Generated_Source\PSoC5/cyPm.c ****     *  Disableds PICU interrupts.
1506:.\Generated_Source\PSoC5/cyPm.c ****     *
1507:.\Generated_Source\PSoC5/cyPm.c ****     * Parameters:
1508:.\Generated_Source\PSoC5/cyPm.c ****     *  None
1509:.\Generated_Source\PSoC5/cyPm.c ****     *
1510:.\Generated_Source\PSoC5/cyPm.c ****     * Return:
ARM GAS  C:\Users\Heiwa\AppData\Local\Temp\cc88StSU.s 			page 57


1511:.\Generated_Source\PSoC5/cyPm.c ****     *  None
1512:.\Generated_Source\PSoC5/cyPm.c ****     *
1513:.\Generated_Source\PSoC5/cyPm.c ****     *******************************************************************************/
1514:.\Generated_Source\PSoC5/cyPm.c ****     static void CyPmDisablePicuInterrupts(void) 
1515:.\Generated_Source\PSoC5/cyPm.c ****     {
 1672              		.loc 1 1515 0
 1673              		.cfi_startproc
 1674              		@ args = 0, pretend = 0, frame = 0
 1675              		@ frame_needed = 1, uses_anonymous_args = 0
 1676 0000 80B5     		push	{r7, lr}
 1677              	.LCFI31:
 1678              		.cfi_def_cfa_offset 8
 1679 0002 00AF     		add	r7, sp, #0
 1680              		.cfi_offset 14, -4
 1681              		.cfi_offset 7, -8
 1682              	.LCFI32:
 1683              		.cfi_def_cfa_register 7
1516:.\Generated_Source\PSoC5/cyPm.c ****         /* Disable all the PICU interrupts */
1517:.\Generated_Source\PSoC5/cyPm.c ****         memset((void *) CY_PM_PICU_0_6_INT_BASE, 0, CY_PM_PICU_0_6_INT_SIZE);
 1684              		.loc 1 1517 0
 1685 0004 44F20050 		movw	r0, #:lower16:1073759488
 1686 0008 C4F20000 		movt	r0, #:upper16:1073759488
 1687 000c 4FF00001 		mov	r1, #0
 1688 0010 4FF03802 		mov	r2, #56
 1689 0014 FFF7FEFF 		bl	memset
1518:.\Generated_Source\PSoC5/cyPm.c ****         memset((void *) CY_PM_PICU_12_INT_BASE,  0, CY_PM_PICU_12_INT_SIZE );
 1690              		.loc 1 1518 0
 1691 0018 44F26050 		movw	r0, #:lower16:1073759584
 1692 001c C4F20000 		movt	r0, #:upper16:1073759584
 1693 0020 4FF00001 		mov	r1, #0
 1694 0024 4FF00802 		mov	r2, #8
 1695 0028 FFF7FEFF 		bl	memset
1519:.\Generated_Source\PSoC5/cyPm.c ****         memset((void *) CY_PM_PICU_15_INT_BASE,  0, CY_PM_PICU_15_INT_SIZE );
 1696              		.loc 1 1519 0
 1697 002c 44F27850 		movw	r0, #:lower16:1073759608
 1698 0030 C4F20000 		movt	r0, #:upper16:1073759608
 1699 0034 4FF00001 		mov	r1, #0
 1700 0038 4FF00802 		mov	r2, #8
 1701 003c FFF7FEFF 		bl	memset
1520:.\Generated_Source\PSoC5/cyPm.c ****     }
 1702              		.loc 1 1520 0
 1703 0040 80BD     		pop	{r7, pc}
 1704              		.cfi_endproc
 1705              	.LFE12:
 1706              		.size	CyPmDisablePicuInterrupts, .-CyPmDisablePicuInterrupts
 1707 0042 00BF     		.section	.text.CyPmRestorePicuInterrupts,"ax",%progbits
 1708              		.align	2
 1709              		.thumb
 1710              		.thumb_func
 1711              		.type	CyPmRestorePicuInterrupts, %function
 1712              	CyPmRestorePicuInterrupts:
 1713              	.LFB13:
1521:.\Generated_Source\PSoC5/cyPm.c **** 
1522:.\Generated_Source\PSoC5/cyPm.c **** 
1523:.\Generated_Source\PSoC5/cyPm.c ****     /*******************************************************************************
1524:.\Generated_Source\PSoC5/cyPm.c ****     * Function Name: CyPmRestorePicuInterrupts
1525:.\Generated_Source\PSoC5/cyPm.c ****     ********************************************************************************
ARM GAS  C:\Users\Heiwa\AppData\Local\Temp\cc88StSU.s 			page 58


1526:.\Generated_Source\PSoC5/cyPm.c ****     *
1527:.\Generated_Source\PSoC5/cyPm.c ****     * Summary:
1528:.\Generated_Source\PSoC5/cyPm.c ****     *  Restores PICU interrupt type registers from the backup structure.
1529:.\Generated_Source\PSoC5/cyPm.c ****     *
1530:.\Generated_Source\PSoC5/cyPm.c ****     * Parameters:
1531:.\Generated_Source\PSoC5/cyPm.c ****     *  None
1532:.\Generated_Source\PSoC5/cyPm.c ****     *
1533:.\Generated_Source\PSoC5/cyPm.c ****     * Return:
1534:.\Generated_Source\PSoC5/cyPm.c ****     *  None
1535:.\Generated_Source\PSoC5/cyPm.c ****     *
1536:.\Generated_Source\PSoC5/cyPm.c ****     *******************************************************************************/
1537:.\Generated_Source\PSoC5/cyPm.c ****     static void CyPmRestorePicuInterrupts(void) 
1538:.\Generated_Source\PSoC5/cyPm.c ****     {
 1714              		.loc 1 1538 0
 1715              		.cfi_startproc
 1716              		@ args = 0, pretend = 0, frame = 0
 1717              		@ frame_needed = 1, uses_anonymous_args = 0
 1718 0000 80B5     		push	{r7, lr}
 1719              	.LCFI33:
 1720              		.cfi_def_cfa_offset 8
 1721 0002 00AF     		add	r7, sp, #0
 1722              		.cfi_offset 14, -4
 1723              		.cfi_offset 7, -8
 1724              	.LCFI34:
 1725              		.cfi_def_cfa_register 7
1539:.\Generated_Source\PSoC5/cyPm.c ****         /* Save all the PICU interrupt type */
1540:.\Generated_Source\PSoC5/cyPm.c ****         memcpy((void *) CY_PM_PICU_0_6_INT_BASE,
 1726              		.loc 1 1540 0
 1727 0004 44F20050 		movw	r0, #:lower16:1073759488
 1728 0008 C4F20000 		movt	r0, #:upper16:1073759488
 1729 000c 0C49     		ldr	r1, .L92
 1730 000e 4FF03802 		mov	r2, #56
 1731 0012 FFF7FEFF 		bl	memcpy
1541:.\Generated_Source\PSoC5/cyPm.c ****                (void *) &cyPmBackup.picuIntType[0u],
1542:.\Generated_Source\PSoC5/cyPm.c ****                CY_PM_PICU_0_6_INT_SIZE);
1543:.\Generated_Source\PSoC5/cyPm.c **** 
1544:.\Generated_Source\PSoC5/cyPm.c ****         memcpy((void *) CY_PM_PICU_12_INT_BASE,
 1732              		.loc 1 1544 0
 1733 0016 0B4B     		ldr	r3, .L92+4
 1734 0018 44F26050 		movw	r0, #:lower16:1073759584
 1735 001c C4F20000 		movt	r0, #:upper16:1073759584
 1736 0020 1946     		mov	r1, r3
 1737 0022 4FF00802 		mov	r2, #8
 1738 0026 FFF7FEFF 		bl	memcpy
1545:.\Generated_Source\PSoC5/cyPm.c ****                (void *) &cyPmBackup.picuIntType[CY_PM_PICU_0_6_INT_SIZE],
1546:.\Generated_Source\PSoC5/cyPm.c ****                CY_PM_PICU_12_INT_SIZE);
1547:.\Generated_Source\PSoC5/cyPm.c **** 
1548:.\Generated_Source\PSoC5/cyPm.c ****         memcpy((void *) CY_PM_PICU_15_INT_BASE,
 1739              		.loc 1 1548 0
 1740 002a 074B     		ldr	r3, .L92+8
 1741 002c 44F27850 		movw	r0, #:lower16:1073759608
 1742 0030 C4F20000 		movt	r0, #:upper16:1073759608
 1743 0034 1946     		mov	r1, r3
 1744 0036 4FF00802 		mov	r2, #8
 1745 003a FFF7FEFF 		bl	memcpy
1549:.\Generated_Source\PSoC5/cyPm.c ****                (void *) &cyPmBackup.picuIntType[CY_PM_PICU_0_6_INT_SIZE + CY_PM_PICU_12_INT_SIZE],
1550:.\Generated_Source\PSoC5/cyPm.c ****                CY_PM_PICU_15_INT_SIZE);
ARM GAS  C:\Users\Heiwa\AppData\Local\Temp\cc88StSU.s 			page 59


1551:.\Generated_Source\PSoC5/cyPm.c **** 
1552:.\Generated_Source\PSoC5/cyPm.c ****     }
 1746              		.loc 1 1552 0
 1747 003e 80BD     		pop	{r7, pc}
 1748              	.L93:
 1749              		.align	2
 1750              	.L92:
 1751 0040 56000000 		.word	cyPmBackup+86
 1752 0044 8E000000 		.word	cyPmBackup+142
 1753 0048 96000000 		.word	cyPmBackup+150
 1754              		.cfi_endproc
 1755              	.LFE13:
 1756              		.size	CyPmRestorePicuInterrupts, .-CyPmRestorePicuInterrupts
 1757              		.section	.text.CyPmSlpSaveSet,"ax",%progbits
 1758              		.align	2
 1759              		.thumb
 1760              		.thumb_func
 1761              		.type	CyPmSlpSaveSet, %function
 1762              	CyPmSlpSaveSet:
 1763              	.LFB14:
1553:.\Generated_Source\PSoC5/cyPm.c **** 
1554:.\Generated_Source\PSoC5/cyPm.c **** #endif  /* (CY_PSOC5A) */
1555:.\Generated_Source\PSoC5/cyPm.c **** 
1556:.\Generated_Source\PSoC5/cyPm.c **** 
1557:.\Generated_Source\PSoC5/cyPm.c **** /*******************************************************************************
1558:.\Generated_Source\PSoC5/cyPm.c **** * Function Name: CyPmSlpSaveSet
1559:.\Generated_Source\PSoC5/cyPm.c **** ********************************************************************************
1560:.\Generated_Source\PSoC5/cyPm.c **** *
1561:.\Generated_Source\PSoC5/cyPm.c **** * Summary:
1562:.\Generated_Source\PSoC5/cyPm.c **** *  Prepare device for proper Sleep low power mode entry:
1563:.\Generated_Source\PSoC5/cyPm.c **** *  - Prepare CTW for Sleep mode entry (PSoC5)
1564:.\Generated_Source\PSoC5/cyPm.c **** *    * Save timewheels configuration
1565:.\Generated_Source\PSoC5/cyPm.c **** *    * Disable FTW and 1PPS (enable and interrupt)
1566:.\Generated_Source\PSoC5/cyPm.c **** *    * Reset CTW
1567:.\Generated_Source\PSoC5/cyPm.c **** *    * Save and disable PICU interrupts (PSoC5)
1568:.\Generated_Source\PSoC5/cyPm.c **** *    * Save and disable PRES-A and PRES-D (PSoC5)
1569:.\Generated_Source\PSoC5/cyPm.c **** *  - Save and disable LVI/HVI configuration (PSoC5)
1570:.\Generated_Source\PSoC5/cyPm.c **** *  - Save and set to max buzz interval (PSoC5)
1571:.\Generated_Source\PSoC5/cyPm.c **** *  - If LVI/HVI is enabled than hardware buzz in required (PSoC3):
1572:.\Generated_Source\PSoC5/cyPm.c **** *    * Prepare wake trim registers
1573:.\Generated_Source\PSoC5/cyPm.c **** *    * Disable LDO-A in proper way
1574:.\Generated_Source\PSoC5/cyPm.c **** *  - If LVI/HVI is disabled than hardware buzz in not required (PSoC3):
1575:.\Generated_Source\PSoC5/cyPm.c **** *    * Disabled hardware buzz
1576:.\Generated_Source\PSoC5/cyPm.c **** *  - CyPmHibSlpSaveSet() function is called
1577:.\Generated_Source\PSoC5/cyPm.c **** *
1578:.\Generated_Source\PSoC5/cyPm.c **** * Parameters:
1579:.\Generated_Source\PSoC5/cyPm.c **** *  None
1580:.\Generated_Source\PSoC5/cyPm.c **** *
1581:.\Generated_Source\PSoC5/cyPm.c **** * Return:
1582:.\Generated_Source\PSoC5/cyPm.c **** *  None
1583:.\Generated_Source\PSoC5/cyPm.c **** *
1584:.\Generated_Source\PSoC5/cyPm.c **** * Reentrant:
1585:.\Generated_Source\PSoC5/cyPm.c **** *  No
1586:.\Generated_Source\PSoC5/cyPm.c **** *
1587:.\Generated_Source\PSoC5/cyPm.c **** *******************************************************************************/
1588:.\Generated_Source\PSoC5/cyPm.c **** static void CyPmSlpSaveSet(void) 
1589:.\Generated_Source\PSoC5/cyPm.c **** {
ARM GAS  C:\Users\Heiwa\AppData\Local\Temp\cc88StSU.s 			page 60


 1764              		.loc 1 1589 0
 1765              		.cfi_startproc
 1766              		@ args = 0, pretend = 0, frame = 0
 1767              		@ frame_needed = 1, uses_anonymous_args = 0
 1768 0000 80B5     		push	{r7, lr}
 1769              	.LCFI35:
 1770              		.cfi_def_cfa_offset 8
 1771 0002 00AF     		add	r7, sp, #0
 1772              		.cfi_offset 14, -4
 1773              		.cfi_offset 7, -8
 1774              	.LCFI36:
 1775              		.cfi_def_cfa_register 7
1590:.\Generated_Source\PSoC5/cyPm.c ****     #if(CY_PSOC5A)
1591:.\Generated_Source\PSoC5/cyPm.c **** 
1592:.\Generated_Source\PSoC5/cyPm.c ****         /* Preserve the Timewheel Configuration Register 2 */
1593:.\Generated_Source\PSoC5/cyPm.c ****         cyPmBackup.pmTwCfg2 = CY_PM_TW_CFG2_REG;
 1776              		.loc 1 1593 0
 1777 0004 44F28233 		movw	r3, #:lower16:1073759106
 1778 0008 C4F20003 		movt	r3, #:upper16:1073759106
 1779 000c 1B78     		ldrb	r3, [r3, #0]
 1780 000e DAB2     		uxtb	r2, r3
 1781 0010 40F20003 		movw	r3, #:lower16:cyPmBackup
 1782 0014 C0F20003 		movt	r3, #:upper16:cyPmBackup
 1783 0018 83F85520 		strb	r2, [r3, #85]
1594:.\Generated_Source\PSoC5/cyPm.c **** 
1595:.\Generated_Source\PSoC5/cyPm.c ****         /*  Clear the enable and interrupt enables for the FTW and ONEPPS */
1596:.\Generated_Source\PSoC5/cyPm.c ****         CY_PM_TW_CFG2_REG &= ~(CY_PM_FTW_IE | CY_PM_FTW_EN | CY_PM_1PPS_EN | CY_PM_1PPS_IE);
 1784              		.loc 1 1596 0
 1785 001c 44F28233 		movw	r3, #:lower16:1073759106
 1786 0020 C4F20003 		movt	r3, #:upper16:1073759106
 1787 0024 44F28232 		movw	r2, #:lower16:1073759106
 1788 0028 C4F20002 		movt	r2, #:upper16:1073759106
 1789 002c 1278     		ldrb	r2, [r2, #0]
 1790 002e D2B2     		uxtb	r2, r2
 1791 0030 02F0CC02 		and	r2, r2, #204
 1792 0034 1A70     		strb	r2, [r3, #0]
1597:.\Generated_Source\PSoC5/cyPm.c **** 
1598:.\Generated_Source\PSoC5/cyPm.c ****         /* Reset free-running CTW counter to 0 and held it there */
1599:.\Generated_Source\PSoC5/cyPm.c ****         CY_PM_WDT_CFG_REG |= CY_PM_WDT_CFG_CTW_RESET;
 1793              		.loc 1 1599 0
 1794 0036 44F28333 		movw	r3, #:lower16:1073759107
 1795 003a C4F20003 		movt	r3, #:upper16:1073759107
 1796 003e 44F28332 		movw	r2, #:lower16:1073759107
 1797 0042 C4F20002 		movt	r2, #:upper16:1073759107
 1798 0046 1278     		ldrb	r2, [r2, #0]
 1799 0048 D2B2     		uxtb	r2, r2
 1800 004a 6FEA4262 		mvn	r2, r2, lsl #25
 1801 004e 6FEA5262 		mvn	r2, r2, lsr #25
 1802 0052 D2B2     		uxtb	r2, r2
 1803 0054 1A70     		strb	r2, [r3, #0]
1600:.\Generated_Source\PSoC5/cyPm.c **** 
1601:.\Generated_Source\PSoC5/cyPm.c ****         /* Exit CTW counter reset state */
1602:.\Generated_Source\PSoC5/cyPm.c ****         CY_PM_WDT_CFG_REG &= ~CY_PM_WDT_CFG_CTW_RESET;
 1804              		.loc 1 1602 0
 1805 0056 44F28333 		movw	r3, #:lower16:1073759107
 1806 005a C4F20003 		movt	r3, #:upper16:1073759107
 1807 005e 44F28332 		movw	r2, #:lower16:1073759107
ARM GAS  C:\Users\Heiwa\AppData\Local\Temp\cc88StSU.s 			page 61


 1808 0062 C4F20002 		movt	r2, #:upper16:1073759107
 1809 0066 1278     		ldrb	r2, [r2, #0]
 1810 0068 D2B2     		uxtb	r2, r2
 1811 006a 02F07F02 		and	r2, r2, #127
 1812 006e 1A70     		strb	r2, [r3, #0]
1603:.\Generated_Source\PSoC5/cyPm.c **** 
1604:.\Generated_Source\PSoC5/cyPm.c ****         /* Save and disable PICU interrupts  */
1605:.\Generated_Source\PSoC5/cyPm.c ****         CyPmSavePicuInterrupts();
 1813              		.loc 1 1605 0
 1814 0070 FFF7FEFF 		bl	CyPmSavePicuInterrupts
1606:.\Generated_Source\PSoC5/cyPm.c ****         CyPmDisablePicuInterrupts();
 1815              		.loc 1 1606 0
 1816 0074 FFF7FEFF 		bl	CyPmDisablePicuInterrupts
1607:.\Generated_Source\PSoC5/cyPm.c **** 
1608:.\Generated_Source\PSoC5/cyPm.c ****         /* Save and disable PRES-A and PRES-D */
1609:.\Generated_Source\PSoC5/cyPm.c ****         cyPmBackup.pres1 = CY_PM_RESET_CR1_REG & CY_PM_RESET_CR1_DIS_PRES1;
 1817              		.loc 1 1609 0
 1818 0078 44F2F563 		movw	r3, #:lower16:1073759989
 1819 007c C4F20003 		movt	r3, #:upper16:1073759989
 1820 0080 1B78     		ldrb	r3, [r3, #0]
 1821 0082 DBB2     		uxtb	r3, r3
 1822 0084 1A46     		mov	r2, r3
 1823 0086 02F01002 		and	r2, r2, #16
 1824 008a 40F20003 		movw	r3, #:lower16:cyPmBackup
 1825 008e C0F20003 		movt	r3, #:upper16:cyPmBackup
 1826 0092 83F89E20 		strb	r2, [r3, #158]
1610:.\Generated_Source\PSoC5/cyPm.c ****         cyPmBackup.pres2 = CY_PM_RESET_CR3_REG & CY_PM_RESET_CR3_DIS_PRES2;
 1827              		.loc 1 1610 0
 1828 0096 44F2F763 		movw	r3, #:lower16:1073759991
 1829 009a C4F20003 		movt	r3, #:upper16:1073759991
 1830 009e 1B78     		ldrb	r3, [r3, #0]
 1831 00a0 DBB2     		uxtb	r3, r3
 1832 00a2 1A46     		mov	r2, r3
 1833 00a4 02F00802 		and	r2, r2, #8
 1834 00a8 40F20003 		movw	r3, #:lower16:cyPmBackup
 1835 00ac C0F20003 		movt	r3, #:upper16:cyPmBackup
 1836 00b0 83F89F20 		strb	r2, [r3, #159]
1611:.\Generated_Source\PSoC5/cyPm.c ****         CY_PM_RESET_CR1_REG &= ~CY_PM_RESET_CR1_DIS_PRES1;
 1837              		.loc 1 1611 0
 1838 00b4 44F2F563 		movw	r3, #:lower16:1073759989
 1839 00b8 C4F20003 		movt	r3, #:upper16:1073759989
 1840 00bc 44F2F562 		movw	r2, #:lower16:1073759989
 1841 00c0 C4F20002 		movt	r2, #:upper16:1073759989
 1842 00c4 1278     		ldrb	r2, [r2, #0]
 1843 00c6 D2B2     		uxtb	r2, r2
 1844 00c8 02F0EF02 		and	r2, r2, #239
 1845 00cc 1A70     		strb	r2, [r3, #0]
1612:.\Generated_Source\PSoC5/cyPm.c ****         CY_PM_RESET_CR3_REG &= ~CY_PM_RESET_CR3_DIS_PRES2;
 1846              		.loc 1 1612 0
 1847 00ce 44F2F763 		movw	r3, #:lower16:1073759991
 1848 00d2 C4F20003 		movt	r3, #:upper16:1073759991
 1849 00d6 44F2F762 		movw	r2, #:lower16:1073759991
 1850 00da C4F20002 		movt	r2, #:upper16:1073759991
 1851 00de 1278     		ldrb	r2, [r2, #0]
 1852 00e0 D2B2     		uxtb	r2, r2
 1853 00e2 02F0F702 		and	r2, r2, #247
 1854 00e6 1A70     		strb	r2, [r3, #0]
ARM GAS  C:\Users\Heiwa\AppData\Local\Temp\cc88StSU.s 			page 62


1613:.\Generated_Source\PSoC5/cyPm.c **** 
1614:.\Generated_Source\PSoC5/cyPm.c ****     #endif /* (CY_PSOC5A) */
1615:.\Generated_Source\PSoC5/cyPm.c **** 
1616:.\Generated_Source\PSoC5/cyPm.c **** 
1617:.\Generated_Source\PSoC5/cyPm.c ****     #if(CY_PSOC5A)
1618:.\Generated_Source\PSoC5/cyPm.c **** 
1619:.\Generated_Source\PSoC5/cyPm.c ****         /***************************************************************************
1620:.\Generated_Source\PSoC5/cyPm.c ****         * LVI/HVI must be disabled as it doesn't work during buzzing.
1621:.\Generated_Source\PSoC5/cyPm.c ****         *
1622:.\Generated_Source\PSoC5/cyPm.c ****         * Using hardware buzz in conjunction with other device wakeup sources
1623:.\Generated_Source\PSoC5/cyPm.c ****         * can cause the device to lockup, halting further code execution. The
1624:.\Generated_Source\PSoC5/cyPm.c ****         * hardware buzz provides power supply supervising capability in sleep.
1625:.\Generated_Source\PSoC5/cyPm.c ****         * It is enabled by default and there is no way to disable it. So the buzz
1626:.\Generated_Source\PSoC5/cyPm.c ****         * interval is set to maximum (512 ms). The CTW must be configured to wake up
1627:.\Generated_Source\PSoC5/cyPm.c ****         * at a rate less than hardware buzz interval.
1628:.\Generated_Source\PSoC5/cyPm.c ****         ***************************************************************************/
1629:.\Generated_Source\PSoC5/cyPm.c **** 
1630:.\Generated_Source\PSoC5/cyPm.c ****         /* Save LVI/HVI configuration */
1631:.\Generated_Source\PSoC5/cyPm.c ****         cyPmBackup.lviaLvidHvi = (CY_PM_RESET_CR1_REG & CY_PM_RESET_CR1_HVI_LVI_EN_MASK);
 1855              		.loc 1 1631 0
 1856 00e8 44F2F563 		movw	r3, #:lower16:1073759989
 1857 00ec C4F20003 		movt	r3, #:upper16:1073759989
 1858 00f0 1B78     		ldrb	r3, [r3, #0]
 1859 00f2 DBB2     		uxtb	r3, r3
 1860 00f4 1A46     		mov	r2, r3
 1861 00f6 02F00702 		and	r2, r2, #7
 1862 00fa 40F20003 		movw	r3, #:lower16:cyPmBackup
 1863 00fe C0F20003 		movt	r3, #:upper16:cyPmBackup
 1864 0102 1A71     		strb	r2, [r3, #4]
1632:.\Generated_Source\PSoC5/cyPm.c **** 
1633:.\Generated_Source\PSoC5/cyPm.c ****         /* Disable LVI/HVI */
1634:.\Generated_Source\PSoC5/cyPm.c ****         CY_PM_RESET_CR1_REG &= ~CY_PM_RESET_CR1_HVI_LVI_EN_MASK;
 1865              		.loc 1 1634 0
 1866 0104 44F2F563 		movw	r3, #:lower16:1073759989
 1867 0108 C4F20003 		movt	r3, #:upper16:1073759989
 1868 010c 44F2F562 		movw	r2, #:lower16:1073759989
 1869 0110 C4F20002 		movt	r2, #:upper16:1073759989
 1870 0114 1278     		ldrb	r2, [r2, #0]
 1871 0116 D2B2     		uxtb	r2, r2
 1872 0118 02F0F802 		and	r2, r2, #248
 1873 011c 1A70     		strb	r2, [r3, #0]
1635:.\Generated_Source\PSoC5/cyPm.c **** 
1636:.\Generated_Source\PSoC5/cyPm.c ****         /* Save buzz trim value */
1637:.\Generated_Source\PSoC5/cyPm.c ****         cyPmBackup.buzzSleepTrim = CY_PM_PWRSYS_BUZZ_TR_REG & ~CY_PM_PWRSYS_BUZZ_TR_MASK;
 1874              		.loc 1 1637 0
 1875 011e 44F28463 		movw	r3, #:lower16:1073759876
 1876 0122 C4F20003 		movt	r3, #:upper16:1073759876
 1877 0126 1B78     		ldrb	r3, [r3, #0]
 1878 0128 DBB2     		uxtb	r3, r3
 1879 012a 1A46     		mov	r2, r3
 1880 012c 02F00F02 		and	r2, r2, #15
 1881 0130 40F20003 		movw	r3, #:lower16:cyPmBackup
 1882 0134 C0F20003 		movt	r3, #:upper16:cyPmBackup
 1883 0138 5A71     		strb	r2, [r3, #5]
1638:.\Generated_Source\PSoC5/cyPm.c **** 
1639:.\Generated_Source\PSoC5/cyPm.c ****         /* Set buzz interval to maximum */
1640:.\Generated_Source\PSoC5/cyPm.c ****         CY_PM_PWRSYS_BUZZ_TR_REG = CY_PM_PWRSYS_BUZZ_TR_512_TICKS |
ARM GAS  C:\Users\Heiwa\AppData\Local\Temp\cc88StSU.s 			page 63


 1884              		.loc 1 1640 0
 1885 013a 44F28463 		movw	r3, #:lower16:1073759876
 1886 013e C4F20003 		movt	r3, #:upper16:1073759876
1641:.\Generated_Source\PSoC5/cyPm.c ****                                   (CY_PM_PWRSYS_BUZZ_TR_REG & CY_PM_PWRSYS_BUZZ_TR_MASK);
 1887              		.loc 1 1641 0
 1888 0142 44F28462 		movw	r2, #:lower16:1073759876
 1889 0146 C4F20002 		movt	r2, #:upper16:1073759876
 1890 014a 1278     		ldrb	r2, [r2, #0]
 1891 014c D2B2     		uxtb	r2, r2
 1892              		.loc 1 1640 0
 1893 014e 02F0F002 		and	r2, r2, #240
 1894 0152 42F00802 		orr	r2, r2, #8
 1895 0156 D2B2     		uxtb	r2, r2
 1896 0158 1A70     		strb	r2, [r3, #0]
1642:.\Generated_Source\PSoC5/cyPm.c **** 
1643:.\Generated_Source\PSoC5/cyPm.c ****     #endif  /* (CY_PSOC5A) */
1644:.\Generated_Source\PSoC5/cyPm.c **** 
1645:.\Generated_Source\PSoC5/cyPm.c **** 
1646:.\Generated_Source\PSoC5/cyPm.c ****     #if(CY_PSOC3)
1647:.\Generated_Source\PSoC5/cyPm.c **** 
1648:.\Generated_Source\PSoC5/cyPm.c ****         /***************************************************************************
1649:.\Generated_Source\PSoC5/cyPm.c ****         * If LVI/HVI is enabled than hardware buzz in required:
1650:.\Generated_Source\PSoC5/cyPm.c ****         *  - Prepare wake trim registers
1651:.\Generated_Source\PSoC5/cyPm.c ****         *  - Disable LDO-A in proper way
1652:.\Generated_Source\PSoC5/cyPm.c ****         *
1653:.\Generated_Source\PSoC5/cyPm.c ****         * If LVI/HVI is disabled than hardware buzz in not required:
1654:.\Generated_Source\PSoC5/cyPm.c ****         *  - Disabled hardware buzz
1655:.\Generated_Source\PSoC5/cyPm.c ****         ***************************************************************************/
1656:.\Generated_Source\PSoC5/cyPm.c **** 
1657:.\Generated_Source\PSoC5/cyPm.c ****         cyPmBackup.wakeTr2 = CY_PM_PWRSYS_WAKE_TR2_REG;
1658:.\Generated_Source\PSoC5/cyPm.c **** 
1659:.\Generated_Source\PSoC5/cyPm.c ****         /* Reconfigure power mode wakeup trim registers */
1660:.\Generated_Source\PSoC5/cyPm.c ****         if(0u != (CY_PM_RESET_CR1_REG & (CY_PM_RESET_CR1_HVIA_EN |
1661:.\Generated_Source\PSoC5/cyPm.c ****                   CY_PM_RESET_CR1_LVIA_EN | CY_PM_RESET_CR1_LVID_EN)))
1662:.\Generated_Source\PSoC5/cyPm.c ****         {
1663:.\Generated_Source\PSoC5/cyPm.c ****             /* HVI/LVI is enabled - hardware buzz is required */
1664:.\Generated_Source\PSoC5/cyPm.c ****             if(CYDEV_CHIP_REV_ACTUAL < 5u)
1665:.\Generated_Source\PSoC5/cyPm.c ****             {
1666:.\Generated_Source\PSoC5/cyPm.c ****                 /* Update entire register */
1667:.\Generated_Source\PSoC5/cyPm.c ****                 CY_PM_PWRSYS_WAKE_TR2_REG = 0x3Bu;
1668:.\Generated_Source\PSoC5/cyPm.c ****                 
1669:.\Generated_Source\PSoC5/cyPm.c ****                 /* Prepares for disabling LDO-A by moving bandgap reference to VCCD */
1670:.\Generated_Source\PSoC5/cyPm.c ****                 CY_PM_PWRSYS_CR1_REG = 0x01u;
1671:.\Generated_Source\PSoC5/cyPm.c **** 
1672:.\Generated_Source\PSoC5/cyPm.c ****                 /* Disables LDO-A */
1673:.\Generated_Source\PSoC5/cyPm.c ****                 CY_PM_PWRSYS_CR1_REG |= 0x02u;                
1674:.\Generated_Source\PSoC5/cyPm.c ****             }
1675:.\Generated_Source\PSoC5/cyPm.c ****             else
1676:.\Generated_Source\PSoC5/cyPm.c ****             {
1677:.\Generated_Source\PSoC5/cyPm.c ****                 /* For later revisions, just enable buzz */
1678:.\Generated_Source\PSoC5/cyPm.c ****                 CY_PM_PWRSYS_WAKE_TR2_REG |= CY_PM_PWRSYS_WAKE_TR2_EN_BUZZ;
1679:.\Generated_Source\PSoC5/cyPm.c ****             }
1680:.\Generated_Source\PSoC5/cyPm.c ****         }
1681:.\Generated_Source\PSoC5/cyPm.c ****         else
1682:.\Generated_Source\PSoC5/cyPm.c ****         {
1683:.\Generated_Source\PSoC5/cyPm.c ****             /* HVI/LVI is disabled - hardware buzz is not required */
1684:.\Generated_Source\PSoC5/cyPm.c ****             if(CYDEV_CHIP_REV_ACTUAL < 5u)
ARM GAS  C:\Users\Heiwa\AppData\Local\Temp\cc88StSU.s 			page 64


1685:.\Generated_Source\PSoC5/cyPm.c ****             {
1686:.\Generated_Source\PSoC5/cyPm.c ****                 /* Update entire register */
1687:.\Generated_Source\PSoC5/cyPm.c ****                 CY_PM_PWRSYS_WAKE_TR2_REG = 0x3Au;
1688:.\Generated_Source\PSoC5/cyPm.c ****             }
1689:.\Generated_Source\PSoC5/cyPm.c ****         }
1690:.\Generated_Source\PSoC5/cyPm.c **** 
1691:.\Generated_Source\PSoC5/cyPm.c ****     #endif  /* (CY_PSOC3) */
1692:.\Generated_Source\PSoC5/cyPm.c **** 
1693:.\Generated_Source\PSoC5/cyPm.c ****     /* Apply configuration that are same for Sleep and Hibernate */
1694:.\Generated_Source\PSoC5/cyPm.c ****     CyPmHibSlpSaveSet();
 1897              		.loc 1 1694 0
 1898 015a FFF7FEFF 		bl	CyPmHibSlpSaveSet
1695:.\Generated_Source\PSoC5/cyPm.c **** }
 1899              		.loc 1 1695 0
 1900 015e 80BD     		pop	{r7, pc}
 1901              		.cfi_endproc
 1902              	.LFE14:
 1903              		.size	CyPmSlpSaveSet, .-CyPmSlpSaveSet
 1904              		.section	.text.CyPmSlpRestore,"ax",%progbits
 1905              		.align	2
 1906              		.thumb
 1907              		.thumb_func
 1908              		.type	CyPmSlpRestore, %function
 1909              	CyPmSlpRestore:
 1910              	.LFB15:
1696:.\Generated_Source\PSoC5/cyPm.c **** 
1697:.\Generated_Source\PSoC5/cyPm.c **** 
1698:.\Generated_Source\PSoC5/cyPm.c **** /*******************************************************************************
1699:.\Generated_Source\PSoC5/cyPm.c **** * Function Name: CyPmSlpRestore
1700:.\Generated_Source\PSoC5/cyPm.c **** ********************************************************************************
1701:.\Generated_Source\PSoC5/cyPm.c **** *
1702:.\Generated_Source\PSoC5/cyPm.c **** * Summary:
1703:.\Generated_Source\PSoC5/cyPm.c **** *  Restore device for proper Sleep mode exit:
1704:.\Generated_Source\PSoC5/cyPm.c **** *  - Restore timewheel configuration (PSoC5)
1705:.\Generated_Source\PSoC5/cyPm.c **** *  - Restore PRES-A and PRES-D (PSoC5)
1706:.\Generated_Source\PSoC5/cyPm.c **** *  - Restore PICU interrupts (PSoC5)
1707:.\Generated_Source\PSoC5/cyPm.c **** *  - Restore LVI/HVI configuration (PSoC5)
1708:.\Generated_Source\PSoC5/cyPm.c **** *  - Restore buzz sleep trim value (PSoC5)
1709:.\Generated_Source\PSoC5/cyPm.c **** *  - Call to CyPmHibSlpSaveRestore()
1710:.\Generated_Source\PSoC5/cyPm.c **** *
1711:.\Generated_Source\PSoC5/cyPm.c **** * Parameters:
1712:.\Generated_Source\PSoC5/cyPm.c **** *  None
1713:.\Generated_Source\PSoC5/cyPm.c **** *
1714:.\Generated_Source\PSoC5/cyPm.c **** * Return:
1715:.\Generated_Source\PSoC5/cyPm.c **** *  None
1716:.\Generated_Source\PSoC5/cyPm.c **** *
1717:.\Generated_Source\PSoC5/cyPm.c **** *******************************************************************************/
1718:.\Generated_Source\PSoC5/cyPm.c **** static void CyPmSlpRestore(void) 
1719:.\Generated_Source\PSoC5/cyPm.c **** {
 1911              		.loc 1 1719 0
 1912              		.cfi_startproc
 1913              		@ args = 0, pretend = 0, frame = 0
 1914              		@ frame_needed = 1, uses_anonymous_args = 0
 1915 0000 80B5     		push	{r7, lr}
 1916              	.LCFI37:
 1917              		.cfi_def_cfa_offset 8
 1918 0002 00AF     		add	r7, sp, #0
ARM GAS  C:\Users\Heiwa\AppData\Local\Temp\cc88StSU.s 			page 65


 1919              		.cfi_offset 14, -4
 1920              		.cfi_offset 7, -8
 1921              	.LCFI38:
 1922              		.cfi_def_cfa_register 7
1720:.\Generated_Source\PSoC5/cyPm.c ****     #if(CY_PSOC5A)
1721:.\Generated_Source\PSoC5/cyPm.c **** 
1722:.\Generated_Source\PSoC5/cyPm.c ****         /* Restore the Timewheel Configuration Register 2 */
1723:.\Generated_Source\PSoC5/cyPm.c ****         CY_PM_TW_CFG2_REG = cyPmBackup.pmTwCfg2;
 1923              		.loc 1 1723 0
 1924 0004 44F28233 		movw	r3, #:lower16:1073759106
 1925 0008 C4F20003 		movt	r3, #:upper16:1073759106
 1926 000c 40F20002 		movw	r2, #:lower16:cyPmBackup
 1927 0010 C0F20002 		movt	r2, #:upper16:cyPmBackup
 1928 0014 92F85520 		ldrb	r2, [r2, #85]	@ zero_extendqisi2
 1929 0018 1A70     		strb	r2, [r3, #0]
1724:.\Generated_Source\PSoC5/cyPm.c **** 
1725:.\Generated_Source\PSoC5/cyPm.c ****         /* Restore PICU interrupts */
1726:.\Generated_Source\PSoC5/cyPm.c ****         CyPmRestorePicuInterrupts();
 1930              		.loc 1 1726 0
 1931 001a FFF7FEFF 		bl	CyPmRestorePicuInterrupts
1727:.\Generated_Source\PSoC5/cyPm.c **** 
1728:.\Generated_Source\PSoC5/cyPm.c ****         /* Restore PRES-A and PRES-D (assumed they were disabled) */
1729:.\Generated_Source\PSoC5/cyPm.c ****         CY_PM_RESET_CR1_REG |= cyPmBackup.pres1;
 1932              		.loc 1 1729 0
 1933 001e 44F2F563 		movw	r3, #:lower16:1073759989
 1934 0022 C4F20003 		movt	r3, #:upper16:1073759989
 1935 0026 44F2F562 		movw	r2, #:lower16:1073759989
 1936 002a C4F20002 		movt	r2, #:upper16:1073759989
 1937 002e 1278     		ldrb	r2, [r2, #0]
 1938 0030 D1B2     		uxtb	r1, r2
 1939 0032 40F20002 		movw	r2, #:lower16:cyPmBackup
 1940 0036 C0F20002 		movt	r2, #:upper16:cyPmBackup
 1941 003a 92F89E20 		ldrb	r2, [r2, #158]	@ zero_extendqisi2
 1942 003e 41EA0202 		orr	r2, r1, r2
 1943 0042 D2B2     		uxtb	r2, r2
 1944 0044 1A70     		strb	r2, [r3, #0]
1730:.\Generated_Source\PSoC5/cyPm.c ****         CY_PM_RESET_CR3_REG |= cyPmBackup.pres2;
 1945              		.loc 1 1730 0
 1946 0046 44F2F763 		movw	r3, #:lower16:1073759991
 1947 004a C4F20003 		movt	r3, #:upper16:1073759991
 1948 004e 44F2F762 		movw	r2, #:lower16:1073759991
 1949 0052 C4F20002 		movt	r2, #:upper16:1073759991
 1950 0056 1278     		ldrb	r2, [r2, #0]
 1951 0058 D1B2     		uxtb	r1, r2
 1952 005a 40F20002 		movw	r2, #:lower16:cyPmBackup
 1953 005e C0F20002 		movt	r2, #:upper16:cyPmBackup
 1954 0062 92F89F20 		ldrb	r2, [r2, #159]	@ zero_extendqisi2
 1955 0066 41EA0202 		orr	r2, r1, r2
 1956 006a D2B2     		uxtb	r2, r2
 1957 006c 1A70     		strb	r2, [r3, #0]
1731:.\Generated_Source\PSoC5/cyPm.c **** 
1732:.\Generated_Source\PSoC5/cyPm.c ****     #endif /* (CY_PSOC5A) */
1733:.\Generated_Source\PSoC5/cyPm.c **** 
1734:.\Generated_Source\PSoC5/cyPm.c **** 
1735:.\Generated_Source\PSoC5/cyPm.c ****     #if(CY_PSOC5A)
1736:.\Generated_Source\PSoC5/cyPm.c **** 
1737:.\Generated_Source\PSoC5/cyPm.c ****         /* Restore LVI/HVI configuration */
ARM GAS  C:\Users\Heiwa\AppData\Local\Temp\cc88StSU.s 			page 66


1738:.\Generated_Source\PSoC5/cyPm.c ****         CY_PM_RESET_CR1_REG |= cyPmBackup.lviaLvidHvi;
 1958              		.loc 1 1738 0
 1959 006e 44F2F563 		movw	r3, #:lower16:1073759989
 1960 0072 C4F20003 		movt	r3, #:upper16:1073759989
 1961 0076 44F2F562 		movw	r2, #:lower16:1073759989
 1962 007a C4F20002 		movt	r2, #:upper16:1073759989
 1963 007e 1278     		ldrb	r2, [r2, #0]
 1964 0080 D1B2     		uxtb	r1, r2
 1965 0082 40F20002 		movw	r2, #:lower16:cyPmBackup
 1966 0086 C0F20002 		movt	r2, #:upper16:cyPmBackup
 1967 008a 1279     		ldrb	r2, [r2, #4]	@ zero_extendqisi2
 1968 008c 41EA0202 		orr	r2, r1, r2
 1969 0090 D2B2     		uxtb	r2, r2
 1970 0092 1A70     		strb	r2, [r3, #0]
1739:.\Generated_Source\PSoC5/cyPm.c **** 
1740:.\Generated_Source\PSoC5/cyPm.c ****         /* Restore buzz sleep trim value */
1741:.\Generated_Source\PSoC5/cyPm.c ****         CY_PM_PWRSYS_BUZZ_TR_REG = cyPmBackup.buzzSleepTrim |
 1971              		.loc 1 1741 0
 1972 0094 44F28463 		movw	r3, #:lower16:1073759876
 1973 0098 C4F20003 		movt	r3, #:upper16:1073759876
 1974 009c 40F20002 		movw	r2, #:lower16:cyPmBackup
 1975 00a0 C0F20002 		movt	r2, #:upper16:cyPmBackup
 1976 00a4 5179     		ldrb	r1, [r2, #5]	@ zero_extendqisi2
1742:.\Generated_Source\PSoC5/cyPm.c ****                                   (CY_PM_PWRSYS_BUZZ_TR_REG & CY_PM_PWRSYS_BUZZ_TR_MASK);
 1977              		.loc 1 1742 0
 1978 00a6 44F28462 		movw	r2, #:lower16:1073759876
 1979 00aa C4F20002 		movt	r2, #:upper16:1073759876
 1980 00ae 1278     		ldrb	r2, [r2, #0]
 1981 00b0 D2B2     		uxtb	r2, r2
 1982              		.loc 1 1741 0
 1983 00b2 02F0F002 		and	r2, r2, #240
 1984 00b6 41EA0202 		orr	r2, r1, r2
 1985 00ba D2B2     		uxtb	r2, r2
 1986 00bc 1A70     		strb	r2, [r3, #0]
1743:.\Generated_Source\PSoC5/cyPm.c **** 
1744:.\Generated_Source\PSoC5/cyPm.c ****     #endif  /* (CY_PSOC5A) */
1745:.\Generated_Source\PSoC5/cyPm.c **** 
1746:.\Generated_Source\PSoC5/cyPm.c **** 
1747:.\Generated_Source\PSoC5/cyPm.c ****     #if(CY_PSOC3)
1748:.\Generated_Source\PSoC5/cyPm.c **** 
1749:.\Generated_Source\PSoC5/cyPm.c ****         CY_PM_PWRSYS_WAKE_TR2_REG = cyPmBackup.wakeTr2;
1750:.\Generated_Source\PSoC5/cyPm.c **** 
1751:.\Generated_Source\PSoC5/cyPm.c ****         /* HVI/LVI is enabled - hardware buzz is required */
1752:.\Generated_Source\PSoC5/cyPm.c ****         if(CYDEV_CHIP_REV_ACTUAL < 5u)
1753:.\Generated_Source\PSoC5/cyPm.c ****         {
1754:.\Generated_Source\PSoC5/cyPm.c ****             /* Reconfigure power mode wakeup trim registers */
1755:.\Generated_Source\PSoC5/cyPm.c ****             if(0u != (CY_PM_RESET_CR1_REG & (CY_PM_RESET_CR1_HVIA_EN |
1756:.\Generated_Source\PSoC5/cyPm.c ****                       CY_PM_RESET_CR1_LVIA_EN | CY_PM_RESET_CR1_LVID_EN)))
1757:.\Generated_Source\PSoC5/cyPm.c ****             {
1758:.\Generated_Source\PSoC5/cyPm.c ****                 /* Enables LDO-A */
1759:.\Generated_Source\PSoC5/cyPm.c ****                 CY_PM_PWRSYS_CR1_REG &= ~0x02u;
1760:.\Generated_Source\PSoC5/cyPm.c **** 
1761:.\Generated_Source\PSoC5/cyPm.c ****                 /* Moves bandgap reference back to VCCA */
1762:.\Generated_Source\PSoC5/cyPm.c ****                 CY_PM_PWRSYS_CR1_REG &= ~0x01u;
1763:.\Generated_Source\PSoC5/cyPm.c ****             }
1764:.\Generated_Source\PSoC5/cyPm.c ****         }
1765:.\Generated_Source\PSoC5/cyPm.c **** 
ARM GAS  C:\Users\Heiwa\AppData\Local\Temp\cc88StSU.s 			page 67


1766:.\Generated_Source\PSoC5/cyPm.c ****     #endif  /* (CY_PSOC3) */
1767:.\Generated_Source\PSoC5/cyPm.c **** 
1768:.\Generated_Source\PSoC5/cyPm.c **** 
1769:.\Generated_Source\PSoC5/cyPm.c ****     /* Restore configuration that are same for Sleep and Hibernate */
1770:.\Generated_Source\PSoC5/cyPm.c ****     CyPmHibSlpRestore();
 1987              		.loc 1 1770 0
 1988 00be FFF7FEFF 		bl	CyPmHibSlpRestore
1771:.\Generated_Source\PSoC5/cyPm.c **** }
 1989              		.loc 1 1771 0
 1990 00c2 80BD     		pop	{r7, pc}
 1991              		.cfi_endproc
 1992              	.LFE15:
 1993              		.size	CyPmSlpRestore, .-CyPmSlpRestore
 1994              		.section	.text.CyPmHibSlpSaveSet,"ax",%progbits
 1995              		.align	2
 1996              		.thumb
 1997              		.thumb_func
 1998              		.type	CyPmHibSlpSaveSet, %function
 1999              	CyPmHibSlpSaveSet:
 2000              	.LFB16:
1772:.\Generated_Source\PSoC5/cyPm.c **** 
1773:.\Generated_Source\PSoC5/cyPm.c **** 
1774:.\Generated_Source\PSoC5/cyPm.c **** /*******************************************************************************
1775:.\Generated_Source\PSoC5/cyPm.c **** * Function Name: CyPmHibSlpSaveSet
1776:.\Generated_Source\PSoC5/cyPm.c **** ********************************************************************************
1777:.\Generated_Source\PSoC5/cyPm.c **** *
1778:.\Generated_Source\PSoC5/cyPm.c **** * Summary:
1779:.\Generated_Source\PSoC5/cyPm.c **** *  This API is used for preparing device for Sleep and Hibernate low power
1780:.\Generated_Source\PSoC5/cyPm.c **** *  modes entry:
1781:.\Generated_Source\PSoC5/cyPm.c **** *  - Saves COMP, VIDAC, DSM and SAR routing connections (PSoC5)
1782:.\Generated_Source\PSoC5/cyPm.c **** *  - Saves SC/CT routing connections (PSoC and PSoC3)
1783:.\Generated_Source\PSoC5/cyPm.c **** *  - Disables Serial Wire Viewer (SWV) (PSoC3)
1784:.\Generated_Source\PSoC5/cyPm.c **** *  - Saves enable state of delay between the system bus and analog clocks
1785:.\Generated_Source\PSoC5/cyPm.c **** *
1786:.\Generated_Source\PSoC5/cyPm.c **** * Parameters:
1787:.\Generated_Source\PSoC5/cyPm.c **** *  None
1788:.\Generated_Source\PSoC5/cyPm.c **** *
1789:.\Generated_Source\PSoC5/cyPm.c **** * Return:
1790:.\Generated_Source\PSoC5/cyPm.c **** *  None
1791:.\Generated_Source\PSoC5/cyPm.c **** *
1792:.\Generated_Source\PSoC5/cyPm.c **** * Reentrant:
1793:.\Generated_Source\PSoC5/cyPm.c **** *  No
1794:.\Generated_Source\PSoC5/cyPm.c **** *
1795:.\Generated_Source\PSoC5/cyPm.c **** *******************************************************************************/
1796:.\Generated_Source\PSoC5/cyPm.c **** static void CyPmHibSlpSaveSet(void) 
1797:.\Generated_Source\PSoC5/cyPm.c **** {
 2001              		.loc 1 1797 0
 2002              		.cfi_startproc
 2003              		@ args = 0, pretend = 0, frame = 0
 2004              		@ frame_needed = 1, uses_anonymous_args = 0
 2005              		@ link register save eliminated.
 2006 0000 80B4     		push	{r7}
 2007              	.LCFI39:
 2008              		.cfi_def_cfa_offset 4
 2009 0002 00AF     		add	r7, sp, #0
 2010              		.cfi_offset 7, -4
 2011              	.LCFI40:
ARM GAS  C:\Users\Heiwa\AppData\Local\Temp\cc88StSU.s 			page 68


 2012              		.cfi_def_cfa_register 7
1798:.\Generated_Source\PSoC5/cyPm.c ****     #if(CY_PSOC5A)
1799:.\Generated_Source\PSoC5/cyPm.c **** 
1800:.\Generated_Source\PSoC5/cyPm.c ****         /* Save CMP routing registers */
1801:.\Generated_Source\PSoC5/cyPm.c ****         cyPmBackup.cmpData[0u]  = CY_GET_REG8(CYREG_CMP0_SW0);
 2013              		.loc 1 1801 0
 2014 0004 45F6C023 		movw	r3, #:lower16:1073765056
 2015 0008 C4F20003 		movt	r3, #:upper16:1073765056
 2016 000c 1B78     		ldrb	r3, [r3, #0]
 2017 000e DAB2     		uxtb	r2, r3
 2018 0010 40F20003 		movw	r3, #:lower16:cyPmBackup
 2019 0014 C0F20003 		movt	r3, #:upper16:cyPmBackup
 2020 0018 83F82220 		strb	r2, [r3, #34]
1802:.\Generated_Source\PSoC5/cyPm.c ****         cyPmBackup.cmpData[1u]  = CY_GET_REG8(CYREG_CMP0_SW2);
 2021              		.loc 1 1802 0
 2022 001c 45F6C223 		movw	r3, #:lower16:1073765058
 2023 0020 C4F20003 		movt	r3, #:upper16:1073765058
 2024 0024 1B78     		ldrb	r3, [r3, #0]
 2025 0026 DAB2     		uxtb	r2, r3
 2026 0028 40F20003 		movw	r3, #:lower16:cyPmBackup
 2027 002c C0F20003 		movt	r3, #:upper16:cyPmBackup
 2028 0030 83F82320 		strb	r2, [r3, #35]
1803:.\Generated_Source\PSoC5/cyPm.c ****         cyPmBackup.cmpData[2u]  = CY_GET_REG8(CYREG_CMP0_SW3);
 2029              		.loc 1 1803 0
 2030 0034 45F6C323 		movw	r3, #:lower16:1073765059
 2031 0038 C4F20003 		movt	r3, #:upper16:1073765059
 2032 003c 1B78     		ldrb	r3, [r3, #0]
 2033 003e DAB2     		uxtb	r2, r3
 2034 0040 40F20003 		movw	r3, #:lower16:cyPmBackup
 2035 0044 C0F20003 		movt	r3, #:upper16:cyPmBackup
 2036 0048 83F82420 		strb	r2, [r3, #36]
1804:.\Generated_Source\PSoC5/cyPm.c ****         cyPmBackup.cmpData[3u]  = CY_GET_REG8(CYREG_CMP0_SW4);
 2037              		.loc 1 1804 0
 2038 004c 45F6C423 		movw	r3, #:lower16:1073765060
 2039 0050 C4F20003 		movt	r3, #:upper16:1073765060
 2040 0054 1B78     		ldrb	r3, [r3, #0]
 2041 0056 DAB2     		uxtb	r2, r3
 2042 0058 40F20003 		movw	r3, #:lower16:cyPmBackup
 2043 005c C0F20003 		movt	r3, #:upper16:cyPmBackup
 2044 0060 83F82520 		strb	r2, [r3, #37]
1805:.\Generated_Source\PSoC5/cyPm.c ****         cyPmBackup.cmpData[4u]  = CY_GET_REG8(CYREG_CMP0_SW6);
 2045              		.loc 1 1805 0
 2046 0064 45F6C623 		movw	r3, #:lower16:1073765062
 2047 0068 C4F20003 		movt	r3, #:upper16:1073765062
 2048 006c 1B78     		ldrb	r3, [r3, #0]
 2049 006e DAB2     		uxtb	r2, r3
 2050 0070 40F20003 		movw	r3, #:lower16:cyPmBackup
 2051 0074 C0F20003 		movt	r3, #:upper16:cyPmBackup
 2052 0078 83F82620 		strb	r2, [r3, #38]
1806:.\Generated_Source\PSoC5/cyPm.c **** 
1807:.\Generated_Source\PSoC5/cyPm.c ****         cyPmBackup.cmpData[5u]  = CY_GET_REG8(CYREG_CMP1_SW0);
 2053              		.loc 1 1807 0
 2054 007c 45F6C823 		movw	r3, #:lower16:1073765064
 2055 0080 C4F20003 		movt	r3, #:upper16:1073765064
 2056 0084 1B78     		ldrb	r3, [r3, #0]
 2057 0086 DAB2     		uxtb	r2, r3
 2058 0088 40F20003 		movw	r3, #:lower16:cyPmBackup
ARM GAS  C:\Users\Heiwa\AppData\Local\Temp\cc88StSU.s 			page 69


 2059 008c C0F20003 		movt	r3, #:upper16:cyPmBackup
 2060 0090 83F82720 		strb	r2, [r3, #39]
1808:.\Generated_Source\PSoC5/cyPm.c ****         cyPmBackup.cmpData[6u]  = CY_GET_REG8(CYREG_CMP1_SW2);
 2061              		.loc 1 1808 0
 2062 0094 45F6CA23 		movw	r3, #:lower16:1073765066
 2063 0098 C4F20003 		movt	r3, #:upper16:1073765066
 2064 009c 1B78     		ldrb	r3, [r3, #0]
 2065 009e DAB2     		uxtb	r2, r3
 2066 00a0 40F20003 		movw	r3, #:lower16:cyPmBackup
 2067 00a4 C0F20003 		movt	r3, #:upper16:cyPmBackup
 2068 00a8 83F82820 		strb	r2, [r3, #40]
1809:.\Generated_Source\PSoC5/cyPm.c ****         cyPmBackup.cmpData[7u]  = CY_GET_REG8(CYREG_CMP1_SW3);
 2069              		.loc 1 1809 0
 2070 00ac 45F6CB23 		movw	r3, #:lower16:1073765067
 2071 00b0 C4F20003 		movt	r3, #:upper16:1073765067
 2072 00b4 1B78     		ldrb	r3, [r3, #0]
 2073 00b6 DAB2     		uxtb	r2, r3
 2074 00b8 40F20003 		movw	r3, #:lower16:cyPmBackup
 2075 00bc C0F20003 		movt	r3, #:upper16:cyPmBackup
 2076 00c0 83F82920 		strb	r2, [r3, #41]
1810:.\Generated_Source\PSoC5/cyPm.c ****         cyPmBackup.cmpData[8u]  = CY_GET_REG8(CYREG_CMP1_SW4);
 2077              		.loc 1 1810 0
 2078 00c4 45F6CC23 		movw	r3, #:lower16:1073765068
 2079 00c8 C4F20003 		movt	r3, #:upper16:1073765068
 2080 00cc 1B78     		ldrb	r3, [r3, #0]
 2081 00ce DAB2     		uxtb	r2, r3
 2082 00d0 40F20003 		movw	r3, #:lower16:cyPmBackup
 2083 00d4 C0F20003 		movt	r3, #:upper16:cyPmBackup
 2084 00d8 83F82A20 		strb	r2, [r3, #42]
1811:.\Generated_Source\PSoC5/cyPm.c ****         cyPmBackup.cmpData[9u]  = CY_GET_REG8(CYREG_CMP1_SW6);
 2085              		.loc 1 1811 0
 2086 00dc 45F6CE23 		movw	r3, #:lower16:1073765070
 2087 00e0 C4F20003 		movt	r3, #:upper16:1073765070
 2088 00e4 1B78     		ldrb	r3, [r3, #0]
 2089 00e6 DAB2     		uxtb	r2, r3
 2090 00e8 40F20003 		movw	r3, #:lower16:cyPmBackup
 2091 00ec C0F20003 		movt	r3, #:upper16:cyPmBackup
 2092 00f0 83F82B20 		strb	r2, [r3, #43]
1812:.\Generated_Source\PSoC5/cyPm.c **** 
1813:.\Generated_Source\PSoC5/cyPm.c ****         cyPmBackup.cmpData[10u] = CY_GET_REG8(CYREG_CMP2_SW0);
 2093              		.loc 1 1813 0
 2094 00f4 45F6D023 		movw	r3, #:lower16:1073765072
 2095 00f8 C4F20003 		movt	r3, #:upper16:1073765072
 2096 00fc 1B78     		ldrb	r3, [r3, #0]
 2097 00fe DAB2     		uxtb	r2, r3
 2098 0100 40F20003 		movw	r3, #:lower16:cyPmBackup
 2099 0104 C0F20003 		movt	r3, #:upper16:cyPmBackup
 2100 0108 83F82C20 		strb	r2, [r3, #44]
1814:.\Generated_Source\PSoC5/cyPm.c ****         cyPmBackup.cmpData[11u] = CY_GET_REG8(CYREG_CMP2_SW2);
 2101              		.loc 1 1814 0
 2102 010c 45F6D223 		movw	r3, #:lower16:1073765074
 2103 0110 C4F20003 		movt	r3, #:upper16:1073765074
 2104 0114 1B78     		ldrb	r3, [r3, #0]
 2105 0116 DAB2     		uxtb	r2, r3
 2106 0118 40F20003 		movw	r3, #:lower16:cyPmBackup
 2107 011c C0F20003 		movt	r3, #:upper16:cyPmBackup
 2108 0120 83F82D20 		strb	r2, [r3, #45]
ARM GAS  C:\Users\Heiwa\AppData\Local\Temp\cc88StSU.s 			page 70


1815:.\Generated_Source\PSoC5/cyPm.c ****         cyPmBackup.cmpData[12u] = CY_GET_REG8(CYREG_CMP2_SW3);
 2109              		.loc 1 1815 0
 2110 0124 45F6D323 		movw	r3, #:lower16:1073765075
 2111 0128 C4F20003 		movt	r3, #:upper16:1073765075
 2112 012c 1B78     		ldrb	r3, [r3, #0]
 2113 012e DAB2     		uxtb	r2, r3
 2114 0130 40F20003 		movw	r3, #:lower16:cyPmBackup
 2115 0134 C0F20003 		movt	r3, #:upper16:cyPmBackup
 2116 0138 83F82E20 		strb	r2, [r3, #46]
1816:.\Generated_Source\PSoC5/cyPm.c ****         cyPmBackup.cmpData[13u] = CY_GET_REG8(CYREG_CMP2_SW4);
 2117              		.loc 1 1816 0
 2118 013c 45F6D423 		movw	r3, #:lower16:1073765076
 2119 0140 C4F20003 		movt	r3, #:upper16:1073765076
 2120 0144 1B78     		ldrb	r3, [r3, #0]
 2121 0146 DAB2     		uxtb	r2, r3
 2122 0148 40F20003 		movw	r3, #:lower16:cyPmBackup
 2123 014c C0F20003 		movt	r3, #:upper16:cyPmBackup
 2124 0150 83F82F20 		strb	r2, [r3, #47]
1817:.\Generated_Source\PSoC5/cyPm.c ****         cyPmBackup.cmpData[14u] = CY_GET_REG8(CYREG_CMP2_SW6);
 2125              		.loc 1 1817 0
 2126 0154 45F6D623 		movw	r3, #:lower16:1073765078
 2127 0158 C4F20003 		movt	r3, #:upper16:1073765078
 2128 015c 1B78     		ldrb	r3, [r3, #0]
 2129 015e DAB2     		uxtb	r2, r3
 2130 0160 40F20003 		movw	r3, #:lower16:cyPmBackup
 2131 0164 C0F20003 		movt	r3, #:upper16:cyPmBackup
 2132 0168 83F83020 		strb	r2, [r3, #48]
1818:.\Generated_Source\PSoC5/cyPm.c **** 
1819:.\Generated_Source\PSoC5/cyPm.c ****         cyPmBackup.cmpData[15u] = CY_GET_REG8(CYREG_CMP3_SW0);
 2133              		.loc 1 1819 0
 2134 016c 45F6D823 		movw	r3, #:lower16:1073765080
 2135 0170 C4F20003 		movt	r3, #:upper16:1073765080
 2136 0174 1B78     		ldrb	r3, [r3, #0]
 2137 0176 DAB2     		uxtb	r2, r3
 2138 0178 40F20003 		movw	r3, #:lower16:cyPmBackup
 2139 017c C0F20003 		movt	r3, #:upper16:cyPmBackup
 2140 0180 83F83120 		strb	r2, [r3, #49]
1820:.\Generated_Source\PSoC5/cyPm.c ****         cyPmBackup.cmpData[16u] = CY_GET_REG8(CYREG_CMP3_SW2);
 2141              		.loc 1 1820 0
 2142 0184 45F6DA23 		movw	r3, #:lower16:1073765082
 2143 0188 C4F20003 		movt	r3, #:upper16:1073765082
 2144 018c 1B78     		ldrb	r3, [r3, #0]
 2145 018e DAB2     		uxtb	r2, r3
 2146 0190 40F20003 		movw	r3, #:lower16:cyPmBackup
 2147 0194 C0F20003 		movt	r3, #:upper16:cyPmBackup
 2148 0198 83F83220 		strb	r2, [r3, #50]
1821:.\Generated_Source\PSoC5/cyPm.c ****         cyPmBackup.cmpData[17u] = CY_GET_REG8(CYREG_CMP3_SW3);
 2149              		.loc 1 1821 0
 2150 019c 45F6DB23 		movw	r3, #:lower16:1073765083
 2151 01a0 C4F20003 		movt	r3, #:upper16:1073765083
 2152 01a4 1B78     		ldrb	r3, [r3, #0]
 2153 01a6 DAB2     		uxtb	r2, r3
 2154 01a8 40F20003 		movw	r3, #:lower16:cyPmBackup
 2155 01ac C0F20003 		movt	r3, #:upper16:cyPmBackup
 2156 01b0 83F83320 		strb	r2, [r3, #51]
1822:.\Generated_Source\PSoC5/cyPm.c ****         cyPmBackup.cmpData[18u] = CY_GET_REG8(CYREG_CMP3_SW4);
 2157              		.loc 1 1822 0
ARM GAS  C:\Users\Heiwa\AppData\Local\Temp\cc88StSU.s 			page 71


 2158 01b4 45F6DC23 		movw	r3, #:lower16:1073765084
 2159 01b8 C4F20003 		movt	r3, #:upper16:1073765084
 2160 01bc 1B78     		ldrb	r3, [r3, #0]
 2161 01be DAB2     		uxtb	r2, r3
 2162 01c0 40F20003 		movw	r3, #:lower16:cyPmBackup
 2163 01c4 C0F20003 		movt	r3, #:upper16:cyPmBackup
 2164 01c8 83F83420 		strb	r2, [r3, #52]
1823:.\Generated_Source\PSoC5/cyPm.c ****         cyPmBackup.cmpData[19u] = CY_GET_REG8(CYREG_CMP3_SW6);
 2165              		.loc 1 1823 0
 2166 01cc 45F6DE23 		movw	r3, #:lower16:1073765086
 2167 01d0 C4F20003 		movt	r3, #:upper16:1073765086
 2168 01d4 1B78     		ldrb	r3, [r3, #0]
 2169 01d6 DAB2     		uxtb	r2, r3
 2170 01d8 40F20003 		movw	r3, #:lower16:cyPmBackup
 2171 01dc C0F20003 		movt	r3, #:upper16:cyPmBackup
 2172 01e0 83F83520 		strb	r2, [r3, #53]
1824:.\Generated_Source\PSoC5/cyPm.c **** 
1825:.\Generated_Source\PSoC5/cyPm.c **** 
1826:.\Generated_Source\PSoC5/cyPm.c ****         /* Clear CMP routing registers */
1827:.\Generated_Source\PSoC5/cyPm.c ****         CY_SET_REG8(CYREG_CMP0_SW0 , 0u);
 2173              		.loc 1 1827 0
 2174 01e4 45F6C023 		movw	r3, #:lower16:1073765056
 2175 01e8 C4F20003 		movt	r3, #:upper16:1073765056
 2176 01ec 4FF00002 		mov	r2, #0
 2177 01f0 1A70     		strb	r2, [r3, #0]
1828:.\Generated_Source\PSoC5/cyPm.c ****         CY_SET_REG8(CYREG_CMP0_SW2 , 0u);
 2178              		.loc 1 1828 0
 2179 01f2 45F6C223 		movw	r3, #:lower16:1073765058
 2180 01f6 C4F20003 		movt	r3, #:upper16:1073765058
 2181 01fa 4FF00002 		mov	r2, #0
 2182 01fe 1A70     		strb	r2, [r3, #0]
1829:.\Generated_Source\PSoC5/cyPm.c ****         CY_SET_REG8(CYREG_CMP0_SW3 , 0u);
 2183              		.loc 1 1829 0
 2184 0200 45F6C323 		movw	r3, #:lower16:1073765059
 2185 0204 C4F20003 		movt	r3, #:upper16:1073765059
 2186 0208 4FF00002 		mov	r2, #0
 2187 020c 1A70     		strb	r2, [r3, #0]
1830:.\Generated_Source\PSoC5/cyPm.c ****         CY_SET_REG8(CYREG_CMP0_SW4 , 0u);
 2188              		.loc 1 1830 0
 2189 020e 45F6C423 		movw	r3, #:lower16:1073765060
 2190 0212 C4F20003 		movt	r3, #:upper16:1073765060
 2191 0216 4FF00002 		mov	r2, #0
 2192 021a 1A70     		strb	r2, [r3, #0]
1831:.\Generated_Source\PSoC5/cyPm.c ****         CY_SET_REG8(CYREG_CMP0_SW6 , 0u);
 2193              		.loc 1 1831 0
 2194 021c 45F6C623 		movw	r3, #:lower16:1073765062
 2195 0220 C4F20003 		movt	r3, #:upper16:1073765062
 2196 0224 4FF00002 		mov	r2, #0
 2197 0228 1A70     		strb	r2, [r3, #0]
1832:.\Generated_Source\PSoC5/cyPm.c **** 
1833:.\Generated_Source\PSoC5/cyPm.c ****         CY_SET_REG8(CYREG_CMP1_SW0 , 0u);
 2198              		.loc 1 1833 0
 2199 022a 45F6C823 		movw	r3, #:lower16:1073765064
 2200 022e C4F20003 		movt	r3, #:upper16:1073765064
 2201 0232 4FF00002 		mov	r2, #0
 2202 0236 1A70     		strb	r2, [r3, #0]
1834:.\Generated_Source\PSoC5/cyPm.c ****         CY_SET_REG8(CYREG_CMP1_SW2 , 0u);
ARM GAS  C:\Users\Heiwa\AppData\Local\Temp\cc88StSU.s 			page 72


 2203              		.loc 1 1834 0
 2204 0238 45F6CA23 		movw	r3, #:lower16:1073765066
 2205 023c C4F20003 		movt	r3, #:upper16:1073765066
 2206 0240 4FF00002 		mov	r2, #0
 2207 0244 1A70     		strb	r2, [r3, #0]
1835:.\Generated_Source\PSoC5/cyPm.c ****         CY_SET_REG8(CYREG_CMP1_SW3 , 0u);
 2208              		.loc 1 1835 0
 2209 0246 45F6CB23 		movw	r3, #:lower16:1073765067
 2210 024a C4F20003 		movt	r3, #:upper16:1073765067
 2211 024e 4FF00002 		mov	r2, #0
 2212 0252 1A70     		strb	r2, [r3, #0]
1836:.\Generated_Source\PSoC5/cyPm.c ****         CY_SET_REG8(CYREG_CMP1_SW4 , 0u);
 2213              		.loc 1 1836 0
 2214 0254 45F6CC23 		movw	r3, #:lower16:1073765068
 2215 0258 C4F20003 		movt	r3, #:upper16:1073765068
 2216 025c 4FF00002 		mov	r2, #0
 2217 0260 1A70     		strb	r2, [r3, #0]
1837:.\Generated_Source\PSoC5/cyPm.c ****         CY_SET_REG8(CYREG_CMP1_SW6 , 0u);
 2218              		.loc 1 1837 0
 2219 0262 45F6CE23 		movw	r3, #:lower16:1073765070
 2220 0266 C4F20003 		movt	r3, #:upper16:1073765070
 2221 026a 4FF00002 		mov	r2, #0
 2222 026e 1A70     		strb	r2, [r3, #0]
1838:.\Generated_Source\PSoC5/cyPm.c **** 
1839:.\Generated_Source\PSoC5/cyPm.c ****         CY_SET_REG8(CYREG_CMP2_SW0 , 0u);
 2223              		.loc 1 1839 0
 2224 0270 45F6D023 		movw	r3, #:lower16:1073765072
 2225 0274 C4F20003 		movt	r3, #:upper16:1073765072
 2226 0278 4FF00002 		mov	r2, #0
 2227 027c 1A70     		strb	r2, [r3, #0]
1840:.\Generated_Source\PSoC5/cyPm.c ****         CY_SET_REG8(CYREG_CMP2_SW2 , 0u);
 2228              		.loc 1 1840 0
 2229 027e 45F6D223 		movw	r3, #:lower16:1073765074
 2230 0282 C4F20003 		movt	r3, #:upper16:1073765074
 2231 0286 4FF00002 		mov	r2, #0
 2232 028a 1A70     		strb	r2, [r3, #0]
1841:.\Generated_Source\PSoC5/cyPm.c ****         CY_SET_REG8(CYREG_CMP2_SW3 , 0u);
 2233              		.loc 1 1841 0
 2234 028c 45F6D323 		movw	r3, #:lower16:1073765075
 2235 0290 C4F20003 		movt	r3, #:upper16:1073765075
 2236 0294 4FF00002 		mov	r2, #0
 2237 0298 1A70     		strb	r2, [r3, #0]
1842:.\Generated_Source\PSoC5/cyPm.c ****         CY_SET_REG8(CYREG_CMP2_SW4 , 0u);
 2238              		.loc 1 1842 0
 2239 029a 45F6D423 		movw	r3, #:lower16:1073765076
 2240 029e C4F20003 		movt	r3, #:upper16:1073765076
 2241 02a2 4FF00002 		mov	r2, #0
 2242 02a6 1A70     		strb	r2, [r3, #0]
1843:.\Generated_Source\PSoC5/cyPm.c ****         CY_SET_REG8(CYREG_CMP2_SW6 , 0u);
 2243              		.loc 1 1843 0
 2244 02a8 45F6D623 		movw	r3, #:lower16:1073765078
 2245 02ac C4F20003 		movt	r3, #:upper16:1073765078
 2246 02b0 4FF00002 		mov	r2, #0
 2247 02b4 1A70     		strb	r2, [r3, #0]
1844:.\Generated_Source\PSoC5/cyPm.c **** 
1845:.\Generated_Source\PSoC5/cyPm.c ****         CY_SET_REG8(CYREG_CMP3_SW0 , 0u);
 2248              		.loc 1 1845 0
ARM GAS  C:\Users\Heiwa\AppData\Local\Temp\cc88StSU.s 			page 73


 2249 02b6 45F6D823 		movw	r3, #:lower16:1073765080
 2250 02ba C4F20003 		movt	r3, #:upper16:1073765080
 2251 02be 4FF00002 		mov	r2, #0
 2252 02c2 1A70     		strb	r2, [r3, #0]
1846:.\Generated_Source\PSoC5/cyPm.c ****         CY_SET_REG8(CYREG_CMP3_SW2 , 0u);
 2253              		.loc 1 1846 0
 2254 02c4 45F6DA23 		movw	r3, #:lower16:1073765082
 2255 02c8 C4F20003 		movt	r3, #:upper16:1073765082
 2256 02cc 4FF00002 		mov	r2, #0
 2257 02d0 1A70     		strb	r2, [r3, #0]
1847:.\Generated_Source\PSoC5/cyPm.c ****         CY_SET_REG8(CYREG_CMP3_SW3 , 0u);
 2258              		.loc 1 1847 0
 2259 02d2 45F6DB23 		movw	r3, #:lower16:1073765083
 2260 02d6 C4F20003 		movt	r3, #:upper16:1073765083
 2261 02da 4FF00002 		mov	r2, #0
 2262 02de 1A70     		strb	r2, [r3, #0]
1848:.\Generated_Source\PSoC5/cyPm.c ****         CY_SET_REG8(CYREG_CMP3_SW4 , 0u);
 2263              		.loc 1 1848 0
 2264 02e0 45F6DC23 		movw	r3, #:lower16:1073765084
 2265 02e4 C4F20003 		movt	r3, #:upper16:1073765084
 2266 02e8 4FF00002 		mov	r2, #0
 2267 02ec 1A70     		strb	r2, [r3, #0]
1849:.\Generated_Source\PSoC5/cyPm.c ****         CY_SET_REG8(CYREG_CMP3_SW6 , 0u);
 2268              		.loc 1 1849 0
 2269 02ee 45F6DE23 		movw	r3, #:lower16:1073765086
 2270 02f2 C4F20003 		movt	r3, #:upper16:1073765086
 2271 02f6 4FF00002 		mov	r2, #0
 2272 02fa 1A70     		strb	r2, [r3, #0]
1850:.\Generated_Source\PSoC5/cyPm.c **** 
1851:.\Generated_Source\PSoC5/cyPm.c **** 
1852:.\Generated_Source\PSoC5/cyPm.c ****         /* Save DAC routing registers */
1853:.\Generated_Source\PSoC5/cyPm.c ****         cyPmBackup.dacData[0u]  = CY_GET_REG8(CYREG_DAC0_SW0);
 2273              		.loc 1 1853 0
 2274 02fc 45F68023 		movw	r3, #:lower16:1073764992
 2275 0300 C4F20003 		movt	r3, #:upper16:1073764992
 2276 0304 1B78     		ldrb	r3, [r3, #0]
 2277 0306 DAB2     		uxtb	r2, r3
 2278 0308 40F20003 		movw	r3, #:lower16:cyPmBackup
 2279 030c C0F20003 		movt	r3, #:upper16:cyPmBackup
 2280 0310 83F83620 		strb	r2, [r3, #54]
1854:.\Generated_Source\PSoC5/cyPm.c ****         cyPmBackup.dacData[1u]  = CY_GET_REG8(CYREG_DAC0_SW2);
 2281              		.loc 1 1854 0
 2282 0314 45F68223 		movw	r3, #:lower16:1073764994
 2283 0318 C4F20003 		movt	r3, #:upper16:1073764994
 2284 031c 1B78     		ldrb	r3, [r3, #0]
 2285 031e DAB2     		uxtb	r2, r3
 2286 0320 40F20003 		movw	r3, #:lower16:cyPmBackup
 2287 0324 C0F20003 		movt	r3, #:upper16:cyPmBackup
 2288 0328 83F83720 		strb	r2, [r3, #55]
1855:.\Generated_Source\PSoC5/cyPm.c ****         cyPmBackup.dacData[2u]  = CY_GET_REG8(CYREG_DAC0_SW3);
 2289              		.loc 1 1855 0
 2290 032c 45F68323 		movw	r3, #:lower16:1073764995
 2291 0330 C4F20003 		movt	r3, #:upper16:1073764995
 2292 0334 1B78     		ldrb	r3, [r3, #0]
 2293 0336 DAB2     		uxtb	r2, r3
 2294 0338 40F20003 		movw	r3, #:lower16:cyPmBackup
 2295 033c C0F20003 		movt	r3, #:upper16:cyPmBackup
ARM GAS  C:\Users\Heiwa\AppData\Local\Temp\cc88StSU.s 			page 74


 2296 0340 83F83820 		strb	r2, [r3, #56]
1856:.\Generated_Source\PSoC5/cyPm.c ****         cyPmBackup.dacData[3u]  = CY_GET_REG8(CYREG_DAC0_SW4);
 2297              		.loc 1 1856 0
 2298 0344 45F68423 		movw	r3, #:lower16:1073764996
 2299 0348 C4F20003 		movt	r3, #:upper16:1073764996
 2300 034c 1B78     		ldrb	r3, [r3, #0]
 2301 034e DAB2     		uxtb	r2, r3
 2302 0350 40F20003 		movw	r3, #:lower16:cyPmBackup
 2303 0354 C0F20003 		movt	r3, #:upper16:cyPmBackup
 2304 0358 83F83920 		strb	r2, [r3, #57]
1857:.\Generated_Source\PSoC5/cyPm.c **** 
1858:.\Generated_Source\PSoC5/cyPm.c ****         cyPmBackup.dacData[4u]  = CY_GET_REG8(CYREG_DAC1_SW0);
 2305              		.loc 1 1858 0
 2306 035c 45F68823 		movw	r3, #:lower16:1073765000
 2307 0360 C4F20003 		movt	r3, #:upper16:1073765000
 2308 0364 1B78     		ldrb	r3, [r3, #0]
 2309 0366 DAB2     		uxtb	r2, r3
 2310 0368 40F20003 		movw	r3, #:lower16:cyPmBackup
 2311 036c C0F20003 		movt	r3, #:upper16:cyPmBackup
 2312 0370 83F83A20 		strb	r2, [r3, #58]
1859:.\Generated_Source\PSoC5/cyPm.c ****         cyPmBackup.dacData[5u]  = CY_GET_REG8(CYREG_DAC1_SW2);
 2313              		.loc 1 1859 0
 2314 0374 45F68A23 		movw	r3, #:lower16:1073765002
 2315 0378 C4F20003 		movt	r3, #:upper16:1073765002
 2316 037c 1B78     		ldrb	r3, [r3, #0]
 2317 037e DAB2     		uxtb	r2, r3
 2318 0380 40F20003 		movw	r3, #:lower16:cyPmBackup
 2319 0384 C0F20003 		movt	r3, #:upper16:cyPmBackup
 2320 0388 83F83B20 		strb	r2, [r3, #59]
1860:.\Generated_Source\PSoC5/cyPm.c ****         cyPmBackup.dacData[6u]  = CY_GET_REG8(CYREG_DAC1_SW3);
 2321              		.loc 1 1860 0
 2322 038c 45F68B23 		movw	r3, #:lower16:1073765003
 2323 0390 C4F20003 		movt	r3, #:upper16:1073765003
 2324 0394 1B78     		ldrb	r3, [r3, #0]
 2325 0396 DAB2     		uxtb	r2, r3
 2326 0398 40F20003 		movw	r3, #:lower16:cyPmBackup
 2327 039c C0F20003 		movt	r3, #:upper16:cyPmBackup
 2328 03a0 83F83C20 		strb	r2, [r3, #60]
1861:.\Generated_Source\PSoC5/cyPm.c ****         cyPmBackup.dacData[7u]  = CY_GET_REG8(CYREG_DAC1_SW4);
 2329              		.loc 1 1861 0
 2330 03a4 45F68C23 		movw	r3, #:lower16:1073765004
 2331 03a8 C4F20003 		movt	r3, #:upper16:1073765004
 2332 03ac 1B78     		ldrb	r3, [r3, #0]
 2333 03ae DAB2     		uxtb	r2, r3
 2334 03b0 40F20003 		movw	r3, #:lower16:cyPmBackup
 2335 03b4 C0F20003 		movt	r3, #:upper16:cyPmBackup
 2336 03b8 83F83D20 		strb	r2, [r3, #61]
1862:.\Generated_Source\PSoC5/cyPm.c **** 
1863:.\Generated_Source\PSoC5/cyPm.c ****         cyPmBackup.dacData[8u]  = CY_GET_REG8(CYREG_DAC2_SW0);
 2337              		.loc 1 1863 0
 2338 03bc 45F69023 		movw	r3, #:lower16:1073765008
 2339 03c0 C4F20003 		movt	r3, #:upper16:1073765008
 2340 03c4 1B78     		ldrb	r3, [r3, #0]
 2341 03c6 DAB2     		uxtb	r2, r3
 2342 03c8 40F20003 		movw	r3, #:lower16:cyPmBackup
 2343 03cc C0F20003 		movt	r3, #:upper16:cyPmBackup
 2344 03d0 83F83E20 		strb	r2, [r3, #62]
ARM GAS  C:\Users\Heiwa\AppData\Local\Temp\cc88StSU.s 			page 75


1864:.\Generated_Source\PSoC5/cyPm.c ****         cyPmBackup.dacData[9u]  = CY_GET_REG8(CYREG_DAC2_SW2);
 2345              		.loc 1 1864 0
 2346 03d4 45F69223 		movw	r3, #:lower16:1073765010
 2347 03d8 C4F20003 		movt	r3, #:upper16:1073765010
 2348 03dc 1B78     		ldrb	r3, [r3, #0]
 2349 03de DAB2     		uxtb	r2, r3
 2350 03e0 40F20003 		movw	r3, #:lower16:cyPmBackup
 2351 03e4 C0F20003 		movt	r3, #:upper16:cyPmBackup
 2352 03e8 83F83F20 		strb	r2, [r3, #63]
1865:.\Generated_Source\PSoC5/cyPm.c ****         cyPmBackup.dacData[10u] = CY_GET_REG8(CYREG_DAC2_SW3);
 2353              		.loc 1 1865 0
 2354 03ec 45F69323 		movw	r3, #:lower16:1073765011
 2355 03f0 C4F20003 		movt	r3, #:upper16:1073765011
 2356 03f4 1B78     		ldrb	r3, [r3, #0]
 2357 03f6 DAB2     		uxtb	r2, r3
 2358 03f8 40F20003 		movw	r3, #:lower16:cyPmBackup
 2359 03fc C0F20003 		movt	r3, #:upper16:cyPmBackup
 2360 0400 83F84020 		strb	r2, [r3, #64]
1866:.\Generated_Source\PSoC5/cyPm.c ****         cyPmBackup.dacData[11u] = CY_GET_REG8(CYREG_DAC2_SW4);
 2361              		.loc 1 1866 0
 2362 0404 45F69423 		movw	r3, #:lower16:1073765012
 2363 0408 C4F20003 		movt	r3, #:upper16:1073765012
 2364 040c 1B78     		ldrb	r3, [r3, #0]
 2365 040e DAB2     		uxtb	r2, r3
 2366 0410 40F20003 		movw	r3, #:lower16:cyPmBackup
 2367 0414 C0F20003 		movt	r3, #:upper16:cyPmBackup
 2368 0418 83F84120 		strb	r2, [r3, #65]
1867:.\Generated_Source\PSoC5/cyPm.c **** 
1868:.\Generated_Source\PSoC5/cyPm.c ****         cyPmBackup.dacData[12u] = CY_GET_REG8(CYREG_DAC3_SW0);
 2369              		.loc 1 1868 0
 2370 041c 45F69823 		movw	r3, #:lower16:1073765016
 2371 0420 C4F20003 		movt	r3, #:upper16:1073765016
 2372 0424 1B78     		ldrb	r3, [r3, #0]
 2373 0426 DAB2     		uxtb	r2, r3
 2374 0428 40F20003 		movw	r3, #:lower16:cyPmBackup
 2375 042c C0F20003 		movt	r3, #:upper16:cyPmBackup
 2376 0430 83F84220 		strb	r2, [r3, #66]
1869:.\Generated_Source\PSoC5/cyPm.c ****         cyPmBackup.dacData[13u] = CY_GET_REG8(CYREG_DAC3_SW2);
 2377              		.loc 1 1869 0
 2378 0434 45F69A23 		movw	r3, #:lower16:1073765018
 2379 0438 C4F20003 		movt	r3, #:upper16:1073765018
 2380 043c 1B78     		ldrb	r3, [r3, #0]
 2381 043e DAB2     		uxtb	r2, r3
 2382 0440 40F20003 		movw	r3, #:lower16:cyPmBackup
 2383 0444 C0F20003 		movt	r3, #:upper16:cyPmBackup
 2384 0448 83F84320 		strb	r2, [r3, #67]
1870:.\Generated_Source\PSoC5/cyPm.c ****         cyPmBackup.dacData[14u] = CY_GET_REG8(CYREG_DAC3_SW3);
 2385              		.loc 1 1870 0
 2386 044c 45F69B23 		movw	r3, #:lower16:1073765019
 2387 0450 C4F20003 		movt	r3, #:upper16:1073765019
 2388 0454 1B78     		ldrb	r3, [r3, #0]
 2389 0456 DAB2     		uxtb	r2, r3
 2390 0458 40F20003 		movw	r3, #:lower16:cyPmBackup
 2391 045c C0F20003 		movt	r3, #:upper16:cyPmBackup
 2392 0460 83F84420 		strb	r2, [r3, #68]
1871:.\Generated_Source\PSoC5/cyPm.c ****         cyPmBackup.dacData[15u] = CY_GET_REG8(CYREG_DAC3_SW4);
 2393              		.loc 1 1871 0
ARM GAS  C:\Users\Heiwa\AppData\Local\Temp\cc88StSU.s 			page 76


 2394 0464 45F69C23 		movw	r3, #:lower16:1073765020
 2395 0468 C4F20003 		movt	r3, #:upper16:1073765020
 2396 046c 1B78     		ldrb	r3, [r3, #0]
 2397 046e DAB2     		uxtb	r2, r3
 2398 0470 40F20003 		movw	r3, #:lower16:cyPmBackup
 2399 0474 C0F20003 		movt	r3, #:upper16:cyPmBackup
