ARM GAS  C:\Users\vlantaca\AppData\Local\Temp\ccVDVYCq.s 			page 1


   1              		.syntax unified
   2              		.cpu cortex-m3
   3              		.fpu softvfp
   4              		.eabi_attribute 20, 1
   5              		.eabi_attribute 21, 1
   6              		.eabi_attribute 23, 3
   7              		.eabi_attribute 24, 1
   8              		.eabi_attribute 25, 1
   9              		.eabi_attribute 26, 1
  10              		.eabi_attribute 30, 6
  11              		.eabi_attribute 18, 4
  12              		.thumb
  13              		.file	"ISR_Read.c"
  20 0000 58010000 		.text
  20      02006000 
  20      00000201 
  20      FB0E0D00 
  20      01010101 
  21              	.Ltext0:
  22              		.cfi_sections	.debug_frame
  23              		.section	.text.ISR_Read_Start,"ax",%progbits
  24              		.align	2
  25              		.global	ISR_Read_Start
  26              		.thumb
  27              		.thumb_func
  28              		.type	ISR_Read_Start, %function
  29              	ISR_Read_Start:
  30              	.LFB0:
  31              		.file 1 ".\\Generated_Source\\PSoC5\\ISR_Read.c"
   1:.\Generated_Source\PSoC5/ISR_Read.c **** /*******************************************************************************
   2:.\Generated_Source\PSoC5/ISR_Read.c **** * File Name: ISR_Read.c  
   3:.\Generated_Source\PSoC5/ISR_Read.c **** * Version 1.60
   4:.\Generated_Source\PSoC5/ISR_Read.c **** *
   5:.\Generated_Source\PSoC5/ISR_Read.c **** *  Description:
   6:.\Generated_Source\PSoC5/ISR_Read.c **** *   API for controlling the state of an interrupt.
   7:.\Generated_Source\PSoC5/ISR_Read.c **** *
   8:.\Generated_Source\PSoC5/ISR_Read.c **** *
   9:.\Generated_Source\PSoC5/ISR_Read.c **** *  Note:
  10:.\Generated_Source\PSoC5/ISR_Read.c **** *
  11:.\Generated_Source\PSoC5/ISR_Read.c **** ********************************************************************************
  12:.\Generated_Source\PSoC5/ISR_Read.c **** * Copyright 2008-2010, Cypress Semiconductor Corporation.  All rights reserved.
  13:.\Generated_Source\PSoC5/ISR_Read.c **** * You may use this file only in accordance with the license, terms, conditions, 
  14:.\Generated_Source\PSoC5/ISR_Read.c **** * disclaimers, and limitations in the end user license agreement accompanying 
  15:.\Generated_Source\PSoC5/ISR_Read.c **** * the software package with which this file was provided.
  16:.\Generated_Source\PSoC5/ISR_Read.c **** ********************************************************************************/
  17:.\Generated_Source\PSoC5/ISR_Read.c **** 
  18:.\Generated_Source\PSoC5/ISR_Read.c **** 
  19:.\Generated_Source\PSoC5/ISR_Read.c **** #include <CYDEVICE.H>
  20:.\Generated_Source\PSoC5/ISR_Read.c **** #include <CYDEVICE_TRM.H>
  21:.\Generated_Source\PSoC5/ISR_Read.c **** #include <CYLIB.H>
  22:.\Generated_Source\PSoC5/ISR_Read.c **** #include <ISR_Read.H>
ARM GAS  C:\Users\vlantaca\AppData\Local\Temp\ccVDVYCq.s 			page 2


  23:.\Generated_Source\PSoC5/ISR_Read.c **** 
  24:.\Generated_Source\PSoC5/ISR_Read.c **** 
  25:.\Generated_Source\PSoC5/ISR_Read.c **** /*******************************************************************************
  26:.\Generated_Source\PSoC5/ISR_Read.c **** *  Place your includes, defines and code here 
  27:.\Generated_Source\PSoC5/ISR_Read.c **** ********************************************************************************/
  28:.\Generated_Source\PSoC5/ISR_Read.c **** /* `#START ISR_Read_intc` */
  29:.\Generated_Source\PSoC5/ISR_Read.c **** 
  30:.\Generated_Source\PSoC5/ISR_Read.c **** /* `#END` */
  31:.\Generated_Source\PSoC5/ISR_Read.c **** 
  32:.\Generated_Source\PSoC5/ISR_Read.c **** #ifndef CYINT_IRQ_BASE
  33:.\Generated_Source\PSoC5/ISR_Read.c **** #define CYINT_IRQ_BASE	16
  34:.\Generated_Source\PSoC5/ISR_Read.c **** #endif
  35:.\Generated_Source\PSoC5/ISR_Read.c **** #ifndef CYINT_VECT_TABLE
  36:.\Generated_Source\PSoC5/ISR_Read.c **** #define CYINT_VECT_TABLE    ((cyisraddress **) CYREG_NVIC_VECT_OFFSET)
  37:.\Generated_Source\PSoC5/ISR_Read.c **** #endif
  38:.\Generated_Source\PSoC5/ISR_Read.c **** 
  39:.\Generated_Source\PSoC5/ISR_Read.c **** /* Declared in startup, used to set unused interrupts to. */
  40:.\Generated_Source\PSoC5/ISR_Read.c **** CY_ISR_PROTO(IntDefaultHandler);
  41:.\Generated_Source\PSoC5/ISR_Read.c **** 
  42:.\Generated_Source\PSoC5/ISR_Read.c **** /*******************************************************************************
  43:.\Generated_Source\PSoC5/ISR_Read.c **** * Function Name: ISR_Read_Start
  44:.\Generated_Source\PSoC5/ISR_Read.c **** ********************************************************************************
  45:.\Generated_Source\PSoC5/ISR_Read.c **** * Summary:
  46:.\Generated_Source\PSoC5/ISR_Read.c **** *  Set up the interrupt and enable it.
  47:.\Generated_Source\PSoC5/ISR_Read.c **** *
  48:.\Generated_Source\PSoC5/ISR_Read.c **** * Parameters:  
  49:.\Generated_Source\PSoC5/ISR_Read.c **** *   void.
  50:.\Generated_Source\PSoC5/ISR_Read.c **** *
  51:.\Generated_Source\PSoC5/ISR_Read.c **** *
  52:.\Generated_Source\PSoC5/ISR_Read.c **** * Return:
  53:.\Generated_Source\PSoC5/ISR_Read.c **** *   void.
  54:.\Generated_Source\PSoC5/ISR_Read.c **** *
  55:.\Generated_Source\PSoC5/ISR_Read.c **** *******************************************************************************/
  56:.\Generated_Source\PSoC5/ISR_Read.c **** void ISR_Read_Start(void)
  57:.\Generated_Source\PSoC5/ISR_Read.c **** {
  32              		.loc 1 57 0
  33              		.cfi_startproc
  34              		@ args = 0, pretend = 0, frame = 0
  35              		@ frame_needed = 1, uses_anonymous_args = 0
  36 0000 80B5     		push	{r7, lr}
  37              	.LCFI0:
  38              		.cfi_def_cfa_offset 8
  39 0002 00AF     		add	r7, sp, #0
  40              		.cfi_offset 14, -4
  41              		.cfi_offset 7, -8
  42              	.LCFI1:
  43              		.cfi_def_cfa_register 7
  58:.\Generated_Source\PSoC5/ISR_Read.c ****     /* For all we know the interrupt is active. */
  59:.\Generated_Source\PSoC5/ISR_Read.c ****     ISR_Read_Disable();
  44              		.loc 1 59 0
  45 0004 FFF7FEFF 		bl	ISR_Read_Disable
  60:.\Generated_Source\PSoC5/ISR_Read.c **** 
  61:.\Generated_Source\PSoC5/ISR_Read.c ****     /* Set the ISR to point to the ISR_Read Interrupt. */
  62:.\Generated_Source\PSoC5/ISR_Read.c ****     ISR_Read_SetVector(ISR_Read_Interrupt);
  46              		.loc 1 62 0
  47 0008 40F20000 		movw	r0, #:lower16:ISR_Read_Interrupt
  48 000c C0F20000 		movt	r0, #:upper16:ISR_Read_Interrupt
ARM GAS  C:\Users\vlantaca\AppData\Local\Temp\ccVDVYCq.s 			page 3


  49 0010 FFF7FEFF 		bl	ISR_Read_SetVector
  63:.\Generated_Source\PSoC5/ISR_Read.c **** 
  64:.\Generated_Source\PSoC5/ISR_Read.c ****     /* Set the priority. */
  65:.\Generated_Source\PSoC5/ISR_Read.c ****     ISR_Read_SetPriority(ISR_Read_INTC_PRIOR_NUMBER);
  50              		.loc 1 65 0
  51 0014 4FF00700 		mov	r0, #7
  52 0018 FFF7FEFF 		bl	ISR_Read_SetPriority
  66:.\Generated_Source\PSoC5/ISR_Read.c **** 
  67:.\Generated_Source\PSoC5/ISR_Read.c ****     /* Enable it. */
  68:.\Generated_Source\PSoC5/ISR_Read.c ****     ISR_Read_Enable();
  53              		.loc 1 68 0
  54 001c FFF7FEFF 		bl	ISR_Read_Enable
  69:.\Generated_Source\PSoC5/ISR_Read.c **** }
  55              		.loc 1 69 0
  56 0020 80BD     		pop	{r7, pc}
  57              		.cfi_endproc
  58              	.LFE0:
  59              		.size	ISR_Read_Start, .-ISR_Read_Start
  60 0022 00BF     		.section	.text.ISR_Read_StartEx,"ax",%progbits
  61              		.align	2
  62              		.global	ISR_Read_StartEx
  63              		.thumb
  64              		.thumb_func
  65              		.type	ISR_Read_StartEx, %function
  66              	ISR_Read_StartEx:
  67              	.LFB1:
  70:.\Generated_Source\PSoC5/ISR_Read.c **** 
  71:.\Generated_Source\PSoC5/ISR_Read.c **** /*******************************************************************************
  72:.\Generated_Source\PSoC5/ISR_Read.c **** * Function Name: ISR_Read_StartEx
  73:.\Generated_Source\PSoC5/ISR_Read.c **** ********************************************************************************
  74:.\Generated_Source\PSoC5/ISR_Read.c **** * Summary:
  75:.\Generated_Source\PSoC5/ISR_Read.c **** *  Set up the interrupt and enable it.
  76:.\Generated_Source\PSoC5/ISR_Read.c **** *
  77:.\Generated_Source\PSoC5/ISR_Read.c **** * Parameters:  
  78:.\Generated_Source\PSoC5/ISR_Read.c **** *   address: Address of the ISR to set in the interrupt vector table.
  79:.\Generated_Source\PSoC5/ISR_Read.c **** *
  80:.\Generated_Source\PSoC5/ISR_Read.c **** *
  81:.\Generated_Source\PSoC5/ISR_Read.c **** * Return:
  82:.\Generated_Source\PSoC5/ISR_Read.c **** *   void.
  83:.\Generated_Source\PSoC5/ISR_Read.c **** *
  84:.\Generated_Source\PSoC5/ISR_Read.c **** *******************************************************************************/
  85:.\Generated_Source\PSoC5/ISR_Read.c **** void ISR_Read_StartEx(cyisraddress address)
  86:.\Generated_Source\PSoC5/ISR_Read.c **** {
  68              		.loc 1 86 0
  69              		.cfi_startproc
  70              		@ args = 0, pretend = 0, frame = 8
  71              		@ frame_needed = 1, uses_anonymous_args = 0
  72 0000 80B5     		push	{r7, lr}
  73              	.LCFI2:
  74              		.cfi_def_cfa_offset 8
  75 0002 82B0     		sub	sp, sp, #8
  76              	.LCFI3:
  77              		.cfi_def_cfa_offset 16
  78 0004 00AF     		add	r7, sp, #0
  79              		.cfi_offset 14, -4
  80              		.cfi_offset 7, -8
  81              	.LCFI4:
ARM GAS  C:\Users\vlantaca\AppData\Local\Temp\ccVDVYCq.s 			page 4


  82              		.cfi_def_cfa_register 7
  83 0006 7860     		str	r0, [r7, #4]
  87:.\Generated_Source\PSoC5/ISR_Read.c ****     /* For all we know the interrupt is active. */
  88:.\Generated_Source\PSoC5/ISR_Read.c ****     ISR_Read_Disable();
  84              		.loc 1 88 0
  85 0008 FFF7FEFF 		bl	ISR_Read_Disable
  89:.\Generated_Source\PSoC5/ISR_Read.c **** 
  90:.\Generated_Source\PSoC5/ISR_Read.c ****     /* Set the ISR to point to the ISR_Read Interrupt. */
  91:.\Generated_Source\PSoC5/ISR_Read.c ****     ISR_Read_SetVector(address);
  86              		.loc 1 91 0
  87 000c 7868     		ldr	r0, [r7, #4]
  88 000e FFF7FEFF 		bl	ISR_Read_SetVector
  92:.\Generated_Source\PSoC5/ISR_Read.c **** 
  93:.\Generated_Source\PSoC5/ISR_Read.c ****     /* Set the priority. */
  94:.\Generated_Source\PSoC5/ISR_Read.c ****     ISR_Read_SetPriority(ISR_Read_INTC_PRIOR_NUMBER);
  89              		.loc 1 94 0
  90 0012 4FF00700 		mov	r0, #7
  91 0016 FFF7FEFF 		bl	ISR_Read_SetPriority
  95:.\Generated_Source\PSoC5/ISR_Read.c **** 
  96:.\Generated_Source\PSoC5/ISR_Read.c ****     /* Enable it. */
  97:.\Generated_Source\PSoC5/ISR_Read.c ****     ISR_Read_Enable();
  92              		.loc 1 97 0
  93 001a FFF7FEFF 		bl	ISR_Read_Enable
  98:.\Generated_Source\PSoC5/ISR_Read.c **** }
  94              		.loc 1 98 0
  95 001e 07F10807 		add	r7, r7, #8
  96 0022 BD46     		mov	sp, r7
  97 0024 80BD     		pop	{r7, pc}
  98              		.cfi_endproc
  99              	.LFE1:
 100              		.size	ISR_Read_StartEx, .-ISR_Read_StartEx
 101 0026 00BF     		.section	.text.ISR_Read_Stop,"ax",%progbits
 102              		.align	2
 103              		.global	ISR_Read_Stop
 104              		.thumb
 105              		.thumb_func
 106              		.type	ISR_Read_Stop, %function
 107              	ISR_Read_Stop:
 108              	.LFB2:
  99:.\Generated_Source\PSoC5/ISR_Read.c **** 
 100:.\Generated_Source\PSoC5/ISR_Read.c **** /*******************************************************************************
 101:.\Generated_Source\PSoC5/ISR_Read.c **** * Function Name: ISR_Read_Stop
 102:.\Generated_Source\PSoC5/ISR_Read.c **** ********************************************************************************
 103:.\Generated_Source\PSoC5/ISR_Read.c **** * Summary:
 104:.\Generated_Source\PSoC5/ISR_Read.c **** *   Disables and removes the interrupt.
 105:.\Generated_Source\PSoC5/ISR_Read.c **** *
 106:.\Generated_Source\PSoC5/ISR_Read.c **** * Parameters:  
 107:.\Generated_Source\PSoC5/ISR_Read.c **** *
 108:.\Generated_Source\PSoC5/ISR_Read.c **** *
 109:.\Generated_Source\PSoC5/ISR_Read.c **** * Return:
 110:.\Generated_Source\PSoC5/ISR_Read.c **** *   void.
 111:.\Generated_Source\PSoC5/ISR_Read.c **** *
 112:.\Generated_Source\PSoC5/ISR_Read.c **** *******************************************************************************/
 113:.\Generated_Source\PSoC5/ISR_Read.c **** void ISR_Read_Stop(void) 
 114:.\Generated_Source\PSoC5/ISR_Read.c **** {
 109              		.loc 1 114 0
 110              		.cfi_startproc
ARM GAS  C:\Users\vlantaca\AppData\Local\Temp\ccVDVYCq.s 			page 5


 111              		@ args = 0, pretend = 0, frame = 0
 112              		@ frame_needed = 1, uses_anonymous_args = 0
 113 0000 80B5     		push	{r7, lr}
 114              	.LCFI5:
 115              		.cfi_def_cfa_offset 8
 116 0002 00AF     		add	r7, sp, #0
 117              		.cfi_offset 14, -4
 118              		.cfi_offset 7, -8
 119              	.LCFI6:
 120              		.cfi_def_cfa_register 7
 115:.\Generated_Source\PSoC5/ISR_Read.c ****     /* Disable this interrupt. */
 116:.\Generated_Source\PSoC5/ISR_Read.c ****     ISR_Read_Disable();
 121              		.loc 1 116 0
 122 0004 FFF7FEFF 		bl	ISR_Read_Disable
 117:.\Generated_Source\PSoC5/ISR_Read.c **** 
 118:.\Generated_Source\PSoC5/ISR_Read.c ****     /* Set the ISR to point to the passive one. */
 119:.\Generated_Source\PSoC5/ISR_Read.c ****     ISR_Read_SetVector(IntDefaultHandler);
 123              		.loc 1 119 0
 124 0008 40F20000 		movw	r0, #:lower16:IntDefaultHandler
 125 000c C0F20000 		movt	r0, #:upper16:IntDefaultHandler
 126 0010 FFF7FEFF 		bl	ISR_Read_SetVector
 120:.\Generated_Source\PSoC5/ISR_Read.c **** }
 127              		.loc 1 120 0
 128 0014 80BD     		pop	{r7, pc}
 129              		.cfi_endproc
 130              	.LFE2:
 131              		.size	ISR_Read_Stop, .-ISR_Read_Stop
 132 0016 00BF     		.section	.text.ISR_Read_Interrupt,"ax",%progbits
 133              		.align	2
 134              		.global	ISR_Read_Interrupt
 135              		.thumb
 136              		.thumb_func
 137              		.type	ISR_Read_Interrupt, %function
 138              	ISR_Read_Interrupt:
 139              	.LFB3:
 121:.\Generated_Source\PSoC5/ISR_Read.c **** 
 122:.\Generated_Source\PSoC5/ISR_Read.c **** /*******************************************************************************
 123:.\Generated_Source\PSoC5/ISR_Read.c **** * Function Name: ISR_Read_Interrupt
 124:.\Generated_Source\PSoC5/ISR_Read.c **** ********************************************************************************
 125:.\Generated_Source\PSoC5/ISR_Read.c **** * Summary:
 126:.\Generated_Source\PSoC5/ISR_Read.c **** *   The default Interrupt Service Routine for ISR_Read.
 127:.\Generated_Source\PSoC5/ISR_Read.c **** *
 128:.\Generated_Source\PSoC5/ISR_Read.c **** *   Add custom code between the coments to keep the next version of this file
 129:.\Generated_Source\PSoC5/ISR_Read.c **** *   from over writting your code.
 130:.\Generated_Source\PSoC5/ISR_Read.c **** *
 131:.\Generated_Source\PSoC5/ISR_Read.c **** *
 132:.\Generated_Source\PSoC5/ISR_Read.c **** *
 133:.\Generated_Source\PSoC5/ISR_Read.c **** * Parameters:  
 134:.\Generated_Source\PSoC5/ISR_Read.c **** *
 135:.\Generated_Source\PSoC5/ISR_Read.c **** *
 136:.\Generated_Source\PSoC5/ISR_Read.c **** * Return:
 137:.\Generated_Source\PSoC5/ISR_Read.c **** *   void.
 138:.\Generated_Source\PSoC5/ISR_Read.c **** *
 139:.\Generated_Source\PSoC5/ISR_Read.c **** *******************************************************************************/
 140:.\Generated_Source\PSoC5/ISR_Read.c **** CY_ISR(ISR_Read_Interrupt)
 141:.\Generated_Source\PSoC5/ISR_Read.c **** {
 140              		.loc 1 141 0
ARM GAS  C:\Users\vlantaca\AppData\Local\Temp\ccVDVYCq.s 			page 6


 141              		.cfi_startproc
 142              		@ args = 0, pretend = 0, frame = 0
 143              		@ frame_needed = 1, uses_anonymous_args = 0
 144              		@ link register save eliminated.
 145 0000 80B4     		push	{r7}
 146              	.LCFI7:
 147              		.cfi_def_cfa_offset 4
 148 0002 00AF     		add	r7, sp, #0
 149              		.cfi_offset 7, -4
 150              	.LCFI8:
 151              		.cfi_def_cfa_register 7
 142:.\Generated_Source\PSoC5/ISR_Read.c ****     /*  Place your Interrupt code here. */
 143:.\Generated_Source\PSoC5/ISR_Read.c ****     /* `#START ISR_Read_Interrupt` */
 144:.\Generated_Source\PSoC5/ISR_Read.c **** 
 145:.\Generated_Source\PSoC5/ISR_Read.c ****     /* `#END` */
 146:.\Generated_Source\PSoC5/ISR_Read.c **** }
 152              		.loc 1 146 0
 153 0004 BD46     		mov	sp, r7
 154 0006 80BC     		pop	{r7}
 155 0008 7047     		bx	lr
 156              		.cfi_endproc
 157              	.LFE3:
 158              		.size	ISR_Read_Interrupt, .-ISR_Read_Interrupt
 159 000a 00BF     		.section	.text.ISR_Read_SetVector,"ax",%progbits
 160              		.align	2
 161              		.global	ISR_Read_SetVector
 162              		.thumb
 163              		.thumb_func
 164              		.type	ISR_Read_SetVector, %function
 165              	ISR_Read_SetVector:
 166              	.LFB4:
 147:.\Generated_Source\PSoC5/ISR_Read.c **** 
 148:.\Generated_Source\PSoC5/ISR_Read.c **** /*******************************************************************************
 149:.\Generated_Source\PSoC5/ISR_Read.c **** * Function Name: ISR_Read_SetVector
 150:.\Generated_Source\PSoC5/ISR_Read.c **** ********************************************************************************
 151:.\Generated_Source\PSoC5/ISR_Read.c **** * Summary:
 152:.\Generated_Source\PSoC5/ISR_Read.c **** *   Change the ISR vector for the Interrupt. Note calling ISR_Read_Start
 153:.\Generated_Source\PSoC5/ISR_Read.c **** *   will override any effect this method would have had. To set the vector before
 154:.\Generated_Source\PSoC5/ISR_Read.c **** *   the component has been started use ISR_Read_StartEx instead.
 155:.\Generated_Source\PSoC5/ISR_Read.c **** *
 156:.\Generated_Source\PSoC5/ISR_Read.c **** *
 157:.\Generated_Source\PSoC5/ISR_Read.c **** * Parameters:
 158:.\Generated_Source\PSoC5/ISR_Read.c **** *   address: Address of the ISR to set in the interrupt vector table.
 159:.\Generated_Source\PSoC5/ISR_Read.c **** *
 160:.\Generated_Source\PSoC5/ISR_Read.c **** *
 161:.\Generated_Source\PSoC5/ISR_Read.c **** * Return:
 162:.\Generated_Source\PSoC5/ISR_Read.c **** *   void.
 163:.\Generated_Source\PSoC5/ISR_Read.c **** *
 164:.\Generated_Source\PSoC5/ISR_Read.c **** *
 165:.\Generated_Source\PSoC5/ISR_Read.c **** *******************************************************************************/
 166:.\Generated_Source\PSoC5/ISR_Read.c **** void ISR_Read_SetVector(cyisraddress address) 
 167:.\Generated_Source\PSoC5/ISR_Read.c **** {
 167              		.loc 1 167 0
 168              		.cfi_startproc
 169              		@ args = 0, pretend = 0, frame = 16
 170              		@ frame_needed = 1, uses_anonymous_args = 0
 171              		@ link register save eliminated.
ARM GAS  C:\Users\vlantaca\AppData\Local\Temp\ccVDVYCq.s 			page 7


 172 0000 80B4     		push	{r7}
 173              	.LCFI9:
 174              		.cfi_def_cfa_offset 4
 175 0002 85B0     		sub	sp, sp, #20
 176              	.LCFI10:
 177              		.cfi_def_cfa_offset 24
 178 0004 00AF     		add	r7, sp, #0
 179              		.cfi_offset 7, -4
 180              	.LCFI11:
 181              		.cfi_def_cfa_register 7
 182 0006 7860     		str	r0, [r7, #4]
 168:.\Generated_Source\PSoC5/ISR_Read.c ****     cyisraddress * ramVectorTable;
 169:.\Generated_Source\PSoC5/ISR_Read.c **** 
 170:.\Generated_Source\PSoC5/ISR_Read.c ****     ramVectorTable = (cyisraddress *) *CYINT_VECT_TABLE;
 183              		.loc 1 170 0
 184 0008 4EF60853 		movw	r3, #:lower16:-536810232
 185 000c CEF20003 		movt	r3, #:upper16:-536810232
 186 0010 1B68     		ldr	r3, [r3, #0]
 187 0012 FB60     		str	r3, [r7, #12]
 171:.\Generated_Source\PSoC5/ISR_Read.c **** 
 172:.\Generated_Source\PSoC5/ISR_Read.c ****     ramVectorTable[CYINT_IRQ_BASE + ISR_Read__INTC_NUMBER] = address;
 188              		.loc 1 172 0
 189 0014 FB68     		ldr	r3, [r7, #12]
 190 0016 03F14003 		add	r3, r3, #64
 191 001a 7A68     		ldr	r2, [r7, #4]
 192 001c 1A60     		str	r2, [r3, #0]
 173:.\Generated_Source\PSoC5/ISR_Read.c **** }
 193              		.loc 1 173 0
 194 001e 07F11407 		add	r7, r7, #20
 195 0022 BD46     		mov	sp, r7
 196 0024 80BC     		pop	{r7}
 197 0026 7047     		bx	lr
 198              		.cfi_endproc
 199              	.LFE4:
 200              		.size	ISR_Read_SetVector, .-ISR_Read_SetVector
 201              		.section	.text.ISR_Read_GetVector,"ax",%progbits
 202              		.align	2
 203              		.global	ISR_Read_GetVector
 204              		.thumb
 205              		.thumb_func
 206              		.type	ISR_Read_GetVector, %function
 207              	ISR_Read_GetVector:
 208              	.LFB5:
 174:.\Generated_Source\PSoC5/ISR_Read.c **** 
 175:.\Generated_Source\PSoC5/ISR_Read.c **** /*******************************************************************************
 176:.\Generated_Source\PSoC5/ISR_Read.c **** * Function Name: ISR_Read_GetVector
 177:.\Generated_Source\PSoC5/ISR_Read.c **** ********************************************************************************
 178:.\Generated_Source\PSoC5/ISR_Read.c **** * Summary:
 179:.\Generated_Source\PSoC5/ISR_Read.c **** *   Gets the "address" of the current ISR vector for the Interrupt.
 180:.\Generated_Source\PSoC5/ISR_Read.c **** *
 181:.\Generated_Source\PSoC5/ISR_Read.c **** *
 182:.\Generated_Source\PSoC5/ISR_Read.c **** * Parameters:
 183:.\Generated_Source\PSoC5/ISR_Read.c **** *   void.
 184:.\Generated_Source\PSoC5/ISR_Read.c **** *
 185:.\Generated_Source\PSoC5/ISR_Read.c **** *
 186:.\Generated_Source\PSoC5/ISR_Read.c **** * Return:
 187:.\Generated_Source\PSoC5/ISR_Read.c **** *   Address of the ISR in the interrupt vector table.
ARM GAS  C:\Users\vlantaca\AppData\Local\Temp\ccVDVYCq.s 			page 8


 188:.\Generated_Source\PSoC5/ISR_Read.c **** *
 189:.\Generated_Source\PSoC5/ISR_Read.c **** *
 190:.\Generated_Source\PSoC5/ISR_Read.c **** *******************************************************************************/
 191:.\Generated_Source\PSoC5/ISR_Read.c **** cyisraddress ISR_Read_GetVector(void) 
 192:.\Generated_Source\PSoC5/ISR_Read.c **** {
 209              		.loc 1 192 0
 210              		.cfi_startproc
 211              		@ args = 0, pretend = 0, frame = 8
 212              		@ frame_needed = 1, uses_anonymous_args = 0
 213              		@ link register save eliminated.
 214 0000 80B4     		push	{r7}
 215              	.LCFI12:
 216              		.cfi_def_cfa_offset 4
 217 0002 83B0     		sub	sp, sp, #12
 218              	.LCFI13:
 219              		.cfi_def_cfa_offset 16
 220 0004 00AF     		add	r7, sp, #0
 221              		.cfi_offset 7, -4
 222              	.LCFI14:
 223              		.cfi_def_cfa_register 7
 193:.\Generated_Source\PSoC5/ISR_Read.c ****     cyisraddress * ramVectorTable;
 194:.\Generated_Source\PSoC5/ISR_Read.c **** 
 195:.\Generated_Source\PSoC5/ISR_Read.c ****     ramVectorTable = (cyisraddress *) *CYINT_VECT_TABLE;
 224              		.loc 1 195 0
 225 0006 4EF60853 		movw	r3, #:lower16:-536810232
 226 000a CEF20003 		movt	r3, #:upper16:-536810232
 227 000e 1B68     		ldr	r3, [r3, #0]
 228 0010 7B60     		str	r3, [r7, #4]
 196:.\Generated_Source\PSoC5/ISR_Read.c **** 
 197:.\Generated_Source\PSoC5/ISR_Read.c ****     return ramVectorTable[CYINT_IRQ_BASE + ISR_Read__INTC_NUMBER];
 229              		.loc 1 197 0
 230 0012 7B68     		ldr	r3, [r7, #4]
 231 0014 03F14003 		add	r3, r3, #64
 232 0018 1B68     		ldr	r3, [r3, #0]
 198:.\Generated_Source\PSoC5/ISR_Read.c **** }
 233              		.loc 1 198 0
 234 001a 1846     		mov	r0, r3
 235 001c 07F10C07 		add	r7, r7, #12
 236 0020 BD46     		mov	sp, r7
 237 0022 80BC     		pop	{r7}
 238 0024 7047     		bx	lr
 239              		.cfi_endproc
 240              	.LFE5:
 241              		.size	ISR_Read_GetVector, .-ISR_Read_GetVector
 242 0026 00BF     		.section	.text.ISR_Read_SetPriority,"ax",%progbits
 243              		.align	2
 244              		.global	ISR_Read_SetPriority
 245              		.thumb
 246              		.thumb_func
 247              		.type	ISR_Read_SetPriority, %function
 248              	ISR_Read_SetPriority:
 249              	.LFB6:
 199:.\Generated_Source\PSoC5/ISR_Read.c **** 
 200:.\Generated_Source\PSoC5/ISR_Read.c **** /*******************************************************************************
 201:.\Generated_Source\PSoC5/ISR_Read.c **** * Function Name: ISR_Read_SetPriority
 202:.\Generated_Source\PSoC5/ISR_Read.c **** ********************************************************************************
 203:.\Generated_Source\PSoC5/ISR_Read.c **** * Summary:
ARM GAS  C:\Users\vlantaca\AppData\Local\Temp\ccVDVYCq.s 			page 9


 204:.\Generated_Source\PSoC5/ISR_Read.c **** *   Sets the Priority of the Interrupt. Note calling ISR_Read_Start
 205:.\Generated_Source\PSoC5/ISR_Read.c **** *   or ISR_Read_StartEx will override any effect this method would have had. 
 206:.\Generated_Source\PSoC5/ISR_Read.c **** *	This method should only be called after ISR_Read_Start or 
 207:.\Generated_Source\PSoC5/ISR_Read.c **** *	ISR_Read_StartEx has been called. To set the initial
 208:.\Generated_Source\PSoC5/ISR_Read.c **** *	priority for the component use the cydwr file in the tool.
 209:.\Generated_Source\PSoC5/ISR_Read.c **** *
 210:.\Generated_Source\PSoC5/ISR_Read.c **** *
 211:.\Generated_Source\PSoC5/ISR_Read.c **** * Parameters:
 212:.\Generated_Source\PSoC5/ISR_Read.c **** *   priority: Priority of the interrupt. 0 - 7, 0 being the highest.
 213:.\Generated_Source\PSoC5/ISR_Read.c **** *
 214:.\Generated_Source\PSoC5/ISR_Read.c **** *
 215:.\Generated_Source\PSoC5/ISR_Read.c **** * Return:
 216:.\Generated_Source\PSoC5/ISR_Read.c **** *   void.
 217:.\Generated_Source\PSoC5/ISR_Read.c **** *
 218:.\Generated_Source\PSoC5/ISR_Read.c **** *
 219:.\Generated_Source\PSoC5/ISR_Read.c **** *******************************************************************************/
 220:.\Generated_Source\PSoC5/ISR_Read.c **** void ISR_Read_SetPriority(uint8 priority) 
 221:.\Generated_Source\PSoC5/ISR_Read.c **** {
 250              		.loc 1 221 0
 251              		.cfi_startproc
 252              		@ args = 0, pretend = 0, frame = 8
 253              		@ frame_needed = 1, uses_anonymous_args = 0
 254              		@ link register save eliminated.
 255 0000 80B4     		push	{r7}
 256              	.LCFI15:
 257              		.cfi_def_cfa_offset 4
 258 0002 83B0     		sub	sp, sp, #12
 259              	.LCFI16:
 260              		.cfi_def_cfa_offset 16
 261 0004 00AF     		add	r7, sp, #0
 262              		.cfi_offset 7, -4
 263              	.LCFI17:
 264              		.cfi_def_cfa_register 7
 265 0006 0346     		mov	r3, r0
 266 0008 FB71     		strb	r3, [r7, #7]
 222:.\Generated_Source\PSoC5/ISR_Read.c ****     *ISR_Read_INTC_PRIOR = priority << 5;
 267              		.loc 1 222 0
 268 000a 4EF20043 		movw	r3, #:lower16:-536812544
 269 000e CEF20003 		movt	r3, #:upper16:-536812544
 270 0012 FA79     		ldrb	r2, [r7, #7]
 271 0014 4FEA4212 		lsl	r2, r2, #5
 272 0018 D2B2     		uxtb	r2, r2
 273 001a 1A70     		strb	r2, [r3, #0]
 223:.\Generated_Source\PSoC5/ISR_Read.c **** }
 274              		.loc 1 223 0
 275 001c 07F10C07 		add	r7, r7, #12
 276 0020 BD46     		mov	sp, r7
 277 0022 80BC     		pop	{r7}
 278 0024 7047     		bx	lr
 279              		.cfi_endproc
 280              	.LFE6:
 281              		.size	ISR_Read_SetPriority, .-ISR_Read_SetPriority
 282 0026 00BF     		.section	.text.ISR_Read_GetPriority,"ax",%progbits
 283              		.align	2
 284              		.global	ISR_Read_GetPriority
 285              		.thumb
 286              		.thumb_func
ARM GAS  C:\Users\vlantaca\AppData\Local\Temp\ccVDVYCq.s 			page 10


 287              		.type	ISR_Read_GetPriority, %function
 288              	ISR_Read_GetPriority:
 289              	.LFB7:
 224:.\Generated_Source\PSoC5/ISR_Read.c **** 
 225:.\Generated_Source\PSoC5/ISR_Read.c **** /*******************************************************************************
 226:.\Generated_Source\PSoC5/ISR_Read.c **** * Function Name: ISR_Read_GetPriority
 227:.\Generated_Source\PSoC5/ISR_Read.c **** ********************************************************************************
 228:.\Generated_Source\PSoC5/ISR_Read.c **** * Summary:
 229:.\Generated_Source\PSoC5/ISR_Read.c **** *   Gets the Priority of the Interrupt.
 230:.\Generated_Source\PSoC5/ISR_Read.c **** *
 231:.\Generated_Source\PSoC5/ISR_Read.c **** *
 232:.\Generated_Source\PSoC5/ISR_Read.c **** * Parameters:
 233:.\Generated_Source\PSoC5/ISR_Read.c **** *   void.
 234:.\Generated_Source\PSoC5/ISR_Read.c **** *
 235:.\Generated_Source\PSoC5/ISR_Read.c **** *
 236:.\Generated_Source\PSoC5/ISR_Read.c **** * Return:
 237:.\Generated_Source\PSoC5/ISR_Read.c **** *   Priority of the interrupt. 0 - 7, 0 being the highest.
 238:.\Generated_Source\PSoC5/ISR_Read.c **** *
 239:.\Generated_Source\PSoC5/ISR_Read.c **** *
 240:.\Generated_Source\PSoC5/ISR_Read.c **** *******************************************************************************/
 241:.\Generated_Source\PSoC5/ISR_Read.c **** uint8 ISR_Read_GetPriority(void) 
 242:.\Generated_Source\PSoC5/ISR_Read.c **** {
 290              		.loc 1 242 0
 291              		.cfi_startproc
 292              		@ args = 0, pretend = 0, frame = 8
 293              		@ frame_needed = 1, uses_anonymous_args = 0
 294              		@ link register save eliminated.
 295 0000 80B4     		push	{r7}
 296              	.LCFI18:
 297              		.cfi_def_cfa_offset 4
 298 0002 83B0     		sub	sp, sp, #12
 299              	.LCFI19:
 300              		.cfi_def_cfa_offset 16
 301 0004 00AF     		add	r7, sp, #0
 302              		.cfi_offset 7, -4
 303              	.LCFI20:
 304              		.cfi_def_cfa_register 7
 243:.\Generated_Source\PSoC5/ISR_Read.c ****     uint8 priority;
 244:.\Generated_Source\PSoC5/ISR_Read.c **** 
 245:.\Generated_Source\PSoC5/ISR_Read.c **** 
 246:.\Generated_Source\PSoC5/ISR_Read.c ****     priority = *ISR_Read_INTC_PRIOR >> 5;
 305              		.loc 1 246 0
 306 0006 4EF20043 		movw	r3, #:lower16:-536812544
 307 000a CEF20003 		movt	r3, #:upper16:-536812544
 308 000e 1B78     		ldrb	r3, [r3, #0]
 309 0010 DBB2     		uxtb	r3, r3
 310 0012 4FEA5313 		lsr	r3, r3, #5
 311 0016 FB71     		strb	r3, [r7, #7]
 247:.\Generated_Source\PSoC5/ISR_Read.c **** 
 248:.\Generated_Source\PSoC5/ISR_Read.c ****     return priority;
 312              		.loc 1 248 0
 313 0018 FB79     		ldrb	r3, [r7, #7]	@ zero_extendqisi2
 249:.\Generated_Source\PSoC5/ISR_Read.c **** }
 314              		.loc 1 249 0
 315 001a 1846     		mov	r0, r3
 316 001c 07F10C07 		add	r7, r7, #12
 317 0020 BD46     		mov	sp, r7
ARM GAS  C:\Users\vlantaca\AppData\Local\Temp\ccVDVYCq.s 			page 11


 318 0022 80BC     		pop	{r7}
 319 0024 7047     		bx	lr
 320              		.cfi_endproc
 321              	.LFE7:
 322              		.size	ISR_Read_GetPriority, .-ISR_Read_GetPriority
 323 0026 00BF     		.section	.text.ISR_Read_Enable,"ax",%progbits
 324              		.align	2
 325              		.global	ISR_Read_Enable
 326              		.thumb
 327              		.thumb_func
 328              		.type	ISR_Read_Enable, %function
 329              	ISR_Read_Enable:
 330              	.LFB8:
 250:.\Generated_Source\PSoC5/ISR_Read.c **** 
 251:.\Generated_Source\PSoC5/ISR_Read.c **** /*******************************************************************************
 252:.\Generated_Source\PSoC5/ISR_Read.c **** * Function Name: ISR_Read_Enable
 253:.\Generated_Source\PSoC5/ISR_Read.c **** ********************************************************************************
 254:.\Generated_Source\PSoC5/ISR_Read.c **** * Summary:
 255:.\Generated_Source\PSoC5/ISR_Read.c **** *   Enables the interrupt.
 256:.\Generated_Source\PSoC5/ISR_Read.c **** *
 257:.\Generated_Source\PSoC5/ISR_Read.c **** *
 258:.\Generated_Source\PSoC5/ISR_Read.c **** * Parameters:
 259:.\Generated_Source\PSoC5/ISR_Read.c **** *   void.
 260:.\Generated_Source\PSoC5/ISR_Read.c **** *
 261:.\Generated_Source\PSoC5/ISR_Read.c **** *
 262:.\Generated_Source\PSoC5/ISR_Read.c **** * Return:
 263:.\Generated_Source\PSoC5/ISR_Read.c **** *   void.
 264:.\Generated_Source\PSoC5/ISR_Read.c **** *
 265:.\Generated_Source\PSoC5/ISR_Read.c **** *
 266:.\Generated_Source\PSoC5/ISR_Read.c **** *******************************************************************************/
 267:.\Generated_Source\PSoC5/ISR_Read.c **** void ISR_Read_Enable(void) 
 268:.\Generated_Source\PSoC5/ISR_Read.c **** {
 331              		.loc 1 268 0
 332              		.cfi_startproc
 333              		@ args = 0, pretend = 0, frame = 0
 334              		@ frame_needed = 1, uses_anonymous_args = 0
 335              		@ link register save eliminated.
 336 0000 80B4     		push	{r7}
 337              	.LCFI21:
 338              		.cfi_def_cfa_offset 4
 339 0002 00AF     		add	r7, sp, #0
 340              		.cfi_offset 7, -4
 341              	.LCFI22:
 342              		.cfi_def_cfa_register 7
 269:.\Generated_Source\PSoC5/ISR_Read.c ****     /* Enable the general interrupt. */
 270:.\Generated_Source\PSoC5/ISR_Read.c ****     *ISR_Read_INTC_SET_EN = ISR_Read__INTC_MASK;
 343              		.loc 1 270 0
 344 0004 4EF20013 		movw	r3, #:lower16:-536813312
 345 0008 CEF20003 		movt	r3, #:upper16:-536813312
 346 000c 4FF00102 		mov	r2, #1
 347 0010 1A60     		str	r2, [r3, #0]
 271:.\Generated_Source\PSoC5/ISR_Read.c **** }
 348              		.loc 1 271 0
 349 0012 BD46     		mov	sp, r7
 350 0014 80BC     		pop	{r7}
 351 0016 7047     		bx	lr
 352              		.cfi_endproc
ARM GAS  C:\Users\vlantaca\AppData\Local\Temp\ccVDVYCq.s 			page 12


 353              	.LFE8:
 354              		.size	ISR_Read_Enable, .-ISR_Read_Enable
 355              		.section	.text.ISR_Read_GetState,"ax",%progbits
 356              		.align	2
 357              		.global	ISR_Read_GetState
 358              		.thumb
 359              		.thumb_func
 360              		.type	ISR_Read_GetState, %function
 361              	ISR_Read_GetState:
 362              	.LFB9:
 272:.\Generated_Source\PSoC5/ISR_Read.c **** 
 273:.\Generated_Source\PSoC5/ISR_Read.c **** /*******************************************************************************
 274:.\Generated_Source\PSoC5/ISR_Read.c **** * Function Name: ISR_Read_GetState
 275:.\Generated_Source\PSoC5/ISR_Read.c **** ********************************************************************************
 276:.\Generated_Source\PSoC5/ISR_Read.c **** * Summary:
 277:.\Generated_Source\PSoC5/ISR_Read.c **** *   Gets the state (enabled, disabled) of the Interrupt.
 278:.\Generated_Source\PSoC5/ISR_Read.c **** *
 279:.\Generated_Source\PSoC5/ISR_Read.c **** *
 280:.\Generated_Source\PSoC5/ISR_Read.c **** * Parameters:
 281:.\Generated_Source\PSoC5/ISR_Read.c **** *   void.
 282:.\Generated_Source\PSoC5/ISR_Read.c **** *
 283:.\Generated_Source\PSoC5/ISR_Read.c **** *
 284:.\Generated_Source\PSoC5/ISR_Read.c **** * Return:
 285:.\Generated_Source\PSoC5/ISR_Read.c **** *   1 if enabled, 0 if disabled.
 286:.\Generated_Source\PSoC5/ISR_Read.c **** *
 287:.\Generated_Source\PSoC5/ISR_Read.c **** *
 288:.\Generated_Source\PSoC5/ISR_Read.c **** *******************************************************************************/
 289:.\Generated_Source\PSoC5/ISR_Read.c **** uint8 ISR_Read_GetState(void) 
 290:.\Generated_Source\PSoC5/ISR_Read.c **** {
 363              		.loc 1 290 0
 364              		.cfi_startproc
 365              		@ args = 0, pretend = 0, frame = 0
 366              		@ frame_needed = 1, uses_anonymous_args = 0
 367              		@ link register save eliminated.
 368 0000 80B4     		push	{r7}
 369              	.LCFI23:
 370              		.cfi_def_cfa_offset 4
 371 0002 00AF     		add	r7, sp, #0
 372              		.cfi_offset 7, -4
 373              	.LCFI24:
 374              		.cfi_def_cfa_register 7
 291:.\Generated_Source\PSoC5/ISR_Read.c ****     /* Get the state of the general interrupt. */
 292:.\Generated_Source\PSoC5/ISR_Read.c ****     return (*ISR_Read_INTC_SET_EN & ISR_Read__INTC_MASK) ? 1:0;
 375              		.loc 1 292 0
 376 0004 4EF20013 		movw	r3, #:lower16:-536813312
 377 0008 CEF20003 		movt	r3, #:upper16:-536813312
 378 000c 1B68     		ldr	r3, [r3, #0]
 379 000e DBB2     		uxtb	r3, r3
 380 0010 03F00103 		and	r3, r3, #1
 293:.\Generated_Source\PSoC5/ISR_Read.c **** }
 381              		.loc 1 293 0
 382 0014 1846     		mov	r0, r3
 383 0016 BD46     		mov	sp, r7
 384 0018 80BC     		pop	{r7}
 385 001a 7047     		bx	lr
 386              		.cfi_endproc
 387              	.LFE9:
ARM GAS  C:\Users\vlantaca\AppData\Local\Temp\ccVDVYCq.s 			page 13


 388              		.size	ISR_Read_GetState, .-ISR_Read_GetState
 389              		.section	.text.ISR_Read_Disable,"ax",%progbits
 390              		.align	2
 391              		.global	ISR_Read_Disable
 392              		.thumb
 393              		.thumb_func
 394              		.type	ISR_Read_Disable, %function
 395              	ISR_Read_Disable:
 396              	.LFB10:
 294:.\Generated_Source\PSoC5/ISR_Read.c **** 
 295:.\Generated_Source\PSoC5/ISR_Read.c **** /*******************************************************************************
 296:.\Generated_Source\PSoC5/ISR_Read.c **** * Function Name: ISR_Read_Disable
 297:.\Generated_Source\PSoC5/ISR_Read.c **** ********************************************************************************
 298:.\Generated_Source\PSoC5/ISR_Read.c **** * Summary:
 299:.\Generated_Source\PSoC5/ISR_Read.c **** *   Disables the Interrupt.
 300:.\Generated_Source\PSoC5/ISR_Read.c **** *
 301:.\Generated_Source\PSoC5/ISR_Read.c **** *
 302:.\Generated_Source\PSoC5/ISR_Read.c **** * Parameters:
 303:.\Generated_Source\PSoC5/ISR_Read.c **** *   void.
 304:.\Generated_Source\PSoC5/ISR_Read.c **** *
 305:.\Generated_Source\PSoC5/ISR_Read.c **** *
 306:.\Generated_Source\PSoC5/ISR_Read.c **** * Return:
 307:.\Generated_Source\PSoC5/ISR_Read.c **** *   void.
 308:.\Generated_Source\PSoC5/ISR_Read.c **** *
 309:.\Generated_Source\PSoC5/ISR_Read.c **** *
 310:.\Generated_Source\PSoC5/ISR_Read.c **** *******************************************************************************/
 311:.\Generated_Source\PSoC5/ISR_Read.c **** void ISR_Read_Disable(void) 
 312:.\Generated_Source\PSoC5/ISR_Read.c **** {
 397              		.loc 1 312 0
 398              		.cfi_startproc
 399              		@ args = 0, pretend = 0, frame = 0
 400              		@ frame_needed = 1, uses_anonymous_args = 0
 401              		@ link register save eliminated.
 402 0000 80B4     		push	{r7}
 403              	.LCFI25:
 404              		.cfi_def_cfa_offset 4
 405 0002 00AF     		add	r7, sp, #0
 406              		.cfi_offset 7, -4
 407              	.LCFI26:
 408              		.cfi_def_cfa_register 7
 313:.\Generated_Source\PSoC5/ISR_Read.c ****     /* Disable the general interrupt. */
 314:.\Generated_Source\PSoC5/ISR_Read.c ****     *ISR_Read_INTC_CLR_EN = ISR_Read__INTC_MASK;
 409              		.loc 1 314 0
 410 0004 4EF28013 		movw	r3, #:lower16:-536813184
 411 0008 CEF20003 		movt	r3, #:upper16:-536813184
 412 000c 4FF00102 		mov	r2, #1
 413 0010 1A60     		str	r2, [r3, #0]
 315:.\Generated_Source\PSoC5/ISR_Read.c **** }
 414              		.loc 1 315 0
 415 0012 BD46     		mov	sp, r7
 416 0014 80BC     		pop	{r7}
 417 0016 7047     		bx	lr
 418              		.cfi_endproc
 419              	.LFE10:
 420              		.size	ISR_Read_Disable, .-ISR_Read_Disable
 421              		.section	.text.ISR_Read_SetPending,"ax",%progbits
 422              		.align	2
ARM GAS  C:\Users\vlantaca\AppData\Local\Temp\ccVDVYCq.s 			page 14


 423              		.global	ISR_Read_SetPending
 424              		.thumb
 425              		.thumb_func
 426              		.type	ISR_Read_SetPending, %function
 427              	ISR_Read_SetPending:
 428              	.LFB11:
 316:.\Generated_Source\PSoC5/ISR_Read.c **** 
 317:.\Generated_Source\PSoC5/ISR_Read.c **** /*******************************************************************************
 318:.\Generated_Source\PSoC5/ISR_Read.c **** * Function Name: ISR_Read_SetPending
 319:.\Generated_Source\PSoC5/ISR_Read.c **** ********************************************************************************
 320:.\Generated_Source\PSoC5/ISR_Read.c **** * Summary:
 321:.\Generated_Source\PSoC5/ISR_Read.c **** *   Causes the Interrupt to enter the pending state, a software method of
 322:.\Generated_Source\PSoC5/ISR_Read.c **** *   generating the interrupt.
 323:.\Generated_Source\PSoC5/ISR_Read.c **** *
 324:.\Generated_Source\PSoC5/ISR_Read.c **** *
 325:.\Generated_Source\PSoC5/ISR_Read.c **** * Parameters:
 326:.\Generated_Source\PSoC5/ISR_Read.c **** *   void.
 327:.\Generated_Source\PSoC5/ISR_Read.c **** *
 328:.\Generated_Source\PSoC5/ISR_Read.c **** *
 329:.\Generated_Source\PSoC5/ISR_Read.c **** * Return:
 330:.\Generated_Source\PSoC5/ISR_Read.c **** *   void.
 331:.\Generated_Source\PSoC5/ISR_Read.c **** *
 332:.\Generated_Source\PSoC5/ISR_Read.c **** *
 333:.\Generated_Source\PSoC5/ISR_Read.c **** *******************************************************************************/
 334:.\Generated_Source\PSoC5/ISR_Read.c **** void ISR_Read_SetPending(void) 
 335:.\Generated_Source\PSoC5/ISR_Read.c **** {
 429              		.loc 1 335 0
 430              		.cfi_startproc
 431              		@ args = 0, pretend = 0, frame = 0
 432              		@ frame_needed = 1, uses_anonymous_args = 0
 433              		@ link register save eliminated.
 434 0000 80B4     		push	{r7}
 435              	.LCFI27:
 436              		.cfi_def_cfa_offset 4
 437 0002 00AF     		add	r7, sp, #0
 438              		.cfi_offset 7, -4
 439              	.LCFI28:
 440              		.cfi_def_cfa_register 7
 336:.\Generated_Source\PSoC5/ISR_Read.c ****     *ISR_Read_INTC_SET_PD = ISR_Read__INTC_MASK;
 441              		.loc 1 336 0
 442 0004 4EF20023 		movw	r3, #:lower16:-536813056
 443 0008 CEF20003 		movt	r3, #:upper16:-536813056
 444 000c 4FF00102 		mov	r2, #1
 445 0010 1A60     		str	r2, [r3, #0]
 337:.\Generated_Source\PSoC5/ISR_Read.c **** }
 446              		.loc 1 337 0
 447 0012 BD46     		mov	sp, r7
 448 0014 80BC     		pop	{r7}
 449 0016 7047     		bx	lr
 450              		.cfi_endproc
 451              	.LFE11:
 452              		.size	ISR_Read_SetPending, .-ISR_Read_SetPending
 453              		.section	.text.ISR_Read_ClearPending,"ax",%progbits
 454              		.align	2
 455              		.global	ISR_Read_ClearPending
 456              		.thumb
 457              		.thumb_func
ARM GAS  C:\Users\vlantaca\AppData\Local\Temp\ccVDVYCq.s 			page 15


 458              		.type	ISR_Read_ClearPending, %function
 459              	ISR_Read_ClearPending:
 460              	.LFB12:
 338:.\Generated_Source\PSoC5/ISR_Read.c **** 
 339:.\Generated_Source\PSoC5/ISR_Read.c **** /*******************************************************************************
 340:.\Generated_Source\PSoC5/ISR_Read.c **** * Function Name: ISR_Read_ClearPending
 341:.\Generated_Source\PSoC5/ISR_Read.c **** ********************************************************************************
 342:.\Generated_Source\PSoC5/ISR_Read.c **** * Summary:
 343:.\Generated_Source\PSoC5/ISR_Read.c **** *   Clears a pending interrupt.
 344:.\Generated_Source\PSoC5/ISR_Read.c **** *
 345:.\Generated_Source\PSoC5/ISR_Read.c **** * Parameters:
 346:.\Generated_Source\PSoC5/ISR_Read.c **** *   void.
 347:.\Generated_Source\PSoC5/ISR_Read.c **** *
 348:.\Generated_Source\PSoC5/ISR_Read.c **** *
 349:.\Generated_Source\PSoC5/ISR_Read.c **** * Return:
 350:.\Generated_Source\PSoC5/ISR_Read.c **** *   void.
 351:.\Generated_Source\PSoC5/ISR_Read.c **** *
 352:.\Generated_Source\PSoC5/ISR_Read.c **** *
 353:.\Generated_Source\PSoC5/ISR_Read.c **** *******************************************************************************/
 354:.\Generated_Source\PSoC5/ISR_Read.c **** void ISR_Read_ClearPending(void) 
 355:.\Generated_Source\PSoC5/ISR_Read.c **** {
 461              		.loc 1 355 0
 462              		.cfi_startproc
 463              		@ args = 0, pretend = 0, frame = 0
 464              		@ frame_needed = 1, uses_anonymous_args = 0
 465              		@ link register save eliminated.
 466 0000 80B4     		push	{r7}
 467              	.LCFI29:
 468              		.cfi_def_cfa_offset 4
 469 0002 00AF     		add	r7, sp, #0
 470              		.cfi_offset 7, -4
 471              	.LCFI30:
 472              		.cfi_def_cfa_register 7
 356:.\Generated_Source\PSoC5/ISR_Read.c ****     *ISR_Read_INTC_CLR_PD = ISR_Read__INTC_MASK;
 473              		.loc 1 356 0
 474 0004 4EF28023 		movw	r3, #:lower16:-536812928
 475 0008 CEF20003 		movt	r3, #:upper16:-536812928
 476 000c 4FF00102 		mov	r2, #1
 477 0010 1A60     		str	r2, [r3, #0]
 357:.\Generated_Source\PSoC5/ISR_Read.c **** }
 478              		.loc 1 357 0
 479 0012 BD46     		mov	sp, r7
 480 0014 80BC     		pop	{r7}
 481 0016 7047     		bx	lr
 482              		.cfi_endproc
 483              	.LFE12:
 484              		.size	ISR_Read_ClearPending, .-ISR_Read_ClearPending
 485              		.text
 486              	.Letext0: