ARM GAS  C:\Users\Heiwa\AppData\Local\Temp\ccRKcT3r.s 			page 1


   1              		.syntax unified
   2              		.cpu cortex-m3
   3              		.fpu softvfp
   4              		.eabi_attribute 20, 1
   5              		.eabi_attribute 21, 1
   6              		.eabi_attribute 23, 3
   7              		.eabi_attribute 24, 1
   8              		.eabi_attribute 25, 1
   9              		.eabi_attribute 26, 1
  10              		.eabi_attribute 30, 6
  11              		.eabi_attribute 18, 4
  12              		.thumb
  13              		.file	"main.c"
  20 0000 99000000 		.text
  20      02005300 
  20      00000201 
  20      FB0E0D00 
  20      01010101 
  21              	.Ltext0:
  22              		.cfi_sections	.debug_frame
  23              		.comm	ezi2cBuffer,4,4
  24              		.comm	i2cBufferRead,4,4
  25              		.comm	i2cBufferWrite,5,4
  26              		.global	actionSelect
  27              		.bss
  28              		.type	actionSelect, %object
  29              		.size	actionSelect, 1
  30              	actionSelect:
  31 0000 00       		.space	1
  32              		.section	.text.main,"ax",%progbits
  33              		.align	2
  34              		.global	main
  35              		.thumb
  36              		.thumb_func
  37              		.type	main, %function
  38              	main:
  39              	.LFB29:
  40              		.file 1 ".\\main.c"
   1:.\main.c      **** /* ========================================
   2:.\main.c      ****  *
   3:.\main.c      ****  * Copyright YOUR COMPANY, THE YEAR
   4:.\main.c      ****  * All Rights Reserved
   5:.\main.c      ****  * UNPUBLISHED, LICENSED SOFTWARE.
   6:.\main.c      ****  *
   7:.\main.c      ****  * CONFIDENTIAL AND PROPRIETARY INFORMATION
   8:.\main.c      ****  * WHICH IS THE PROPERTY OF your company.
   9:.\main.c      ****  *
  10:.\main.c      ****  * ========================================
  11:.\main.c      **** */
  12:.\main.c      **** #include <device.h>
  13:.\main.c      **** 
ARM GAS  C:\Users\Heiwa\AppData\Local\Temp\ccRKcT3r.s 			page 2


  14:.\main.c      **** #define EZI2C_SLAVE_ADDR    (0x08u) /* Slave address of the EZI2C */
  15:.\main.c      **** #define BUFFER_SIZE         (0x04u)
  16:.\main.c      **** #define BUFFER_RW_AREA_SIZE (0x02u)
  17:.\main.c      **** 
  18:.\main.c      **** /* Denotes the offset inside the EZI2C buffer */
  19:.\main.c      **** #define SLAVE_ADDR_SIZE         (0x01u)
  20:.\main.c      **** 
  21:.\main.c      **** /* EZI2C buffer */
  22:.\main.c      **** uint8   ezi2cBuffer[BUFFER_SIZE];
  23:.\main.c      **** 
  24:.\main.c      **** /* I2C buffer with the data read from EZI2C */
  25:.\main.c      **** uint8   i2cBufferRead[BUFFER_SIZE];
  26:.\main.c      **** 
  27:.\main.c      **** /* I2C buffer with the data to be written to EZI2C */
  28:.\main.c      **** uint8   i2cBufferWrite[SLAVE_ADDR_SIZE + BUFFER_SIZE];
  29:.\main.c      **** 
  30:.\main.c      **** #define ACTION_SELECT_NONE      (0x00u)     /* Do nothing       */
  31:.\main.c      **** #define ACTION_SELECT_WRITE     (0x01u)     /* Write to EZI2C   */
  32:.\main.c      **** #define ACTION_SELECT_READ      (0x02u)     /* Read from EZI2C  */
  33:.\main.c      **** 
  34:.\main.c      **** /* Initialize action variable */
  35:.\main.c      **** volatile uint8 actionSelect = ACTION_SELECT_NONE;
  36:.\main.c      **** 
  37:.\main.c      **** 
  38:.\main.c      **** void main(){
  41              		.loc 1 38 0
  42              		.cfi_startproc
  43              		@ args = 0, pretend = 0, frame = 0
  44              		@ frame_needed = 1, uses_anonymous_args = 0
  45 0000 80B5     		push	{r7, lr}
  46              	.LCFI0:
  47              		.cfi_def_cfa_offset 8
  48 0002 00AF     		add	r7, sp, #0
  49              		.cfi_offset 14, -4
  50              		.cfi_offset 7, -8
  51              	.LCFI1:
  52              		.cfi_def_cfa_register 7
  39:.\main.c      ****     /* Place your initialization/startup code here (e.g. MyInst_Start()) */
  40:.\main.c      ****     Debounce_Clock_Start();
  53              		.loc 1 40 0
  54 0004 FFF7FEFF 		bl	Debounce_Clock_Start
  41:.\main.c      ****     Debounce_Clock_Enable();
  55              		.loc 1 41 0
  56 0008 FFF7FEFF 		bl	Debounce_Clock_Start
  42:.\main.c      ****     EZI2C_Start();
  57              		.loc 1 42 0
  58 000c FFF7FEFF 		bl	EZI2C_Start
  43:.\main.c      ****     LCD_Start();
  59              		.loc 1 43 0
  60 0010 FFF7FEFF 		bl	LCD_Start
  44:.\main.c      ****     
  45:.\main.c      ****     /* Enable global interrupts. */
  46:.\main.c      ****     CyGlobalIntEnable; 
  61              		.loc 1 46 0
  62              	@ 46 ".\main.c" 1
  63 0014 62B6     		CPSIE   i
  64              	@ 0 "" 2
ARM GAS  C:\Users\Heiwa\AppData\Local\Temp\ccRKcT3r.s 			page 3


  47:.\main.c      ****     
  48:.\main.c      ****     /* Initialize EZI2C buffer's read only data */
  49:.\main.c      ****     ezi2cBuffer[BUFFER_RW_AREA_SIZE     ] = 0xFFu;
  65              		.loc 1 49 0
  66              		.thumb
  67 0016 40F20003 		movw	r3, #:lower16:ezi2cBuffer
  68 001a C0F20003 		movt	r3, #:upper16:ezi2cBuffer
  69 001e 4FF0FF32 		mov	r2, #-1
  70 0022 9A70     		strb	r2, [r3, #2]
  50:.\main.c      ****     ezi2cBuffer[BUFFER_RW_AREA_SIZE + 1u] = 0xFFu;
  71              		.loc 1 50 0
  72 0024 40F20003 		movw	r3, #:lower16:ezi2cBuffer
  73 0028 C0F20003 		movt	r3, #:upper16:ezi2cBuffer
  74 002c 4FF0FF32 		mov	r2, #-1
  75 0030 DA70     		strb	r2, [r3, #3]
  51:.\main.c      ****     
  52:.\main.c      ****     EZI2C_SetBuffer1(BUFFER_SIZE, BUFFER_RW_AREA_SIZE, (void *) ezi2cBuffer);
  76              		.loc 1 52 0
  77 0032 4FF00400 		mov	r0, #4
  78 0036 4FF00201 		mov	r1, #2
  79 003a 40F20002 		movw	r2, #:lower16:ezi2cBuffer
  80 003e C0F20002 		movt	r2, #:upper16:ezi2cBuffer
  81 0042 FFF7FEFF 		bl	EZI2C_SetBuffer1
  82              	.L2:
  53:.\main.c      ****     
  54:.\main.c      ****     /* Start ISRs */
  55:.\main.c      ****     //ISR_Write_StartEx(ISR_WriteSW1_Interrupt);
  56:.\main.c      ****     //ISR_Read_StartEx(ISR_ReadSW2_Interrupt);
  57:.\main.c      **** 
  58:.\main.c      ****     for(;;){
  59:.\main.c      ****         /* Place your application code here. */
  60:.\main.c      ****         
  61:.\main.c      ****         /*
  62:.\main.c      ****         LCD_Position(1u,0u);
  63:.\main.c      ****         LCD_PrintString("RD: ");
  64:.\main.c      ****         int i = 0;
  65:.\main.c      ****         for(i=0; i <4u; i++){
  66:.\main.c      ****             LCD_PrintInt8(i2cBufferRead[i]);
  67:.\main.c      ****             LCD_PrintString(" ");
  68:.\main.c      ****         }
  69:.\main.c      ****         */
  70:.\main.c      ****     }
  83              		.loc 1 70 0
  84 0046 FEE7     		b	.L2
  85              		.cfi_endproc
  86              	.LFE29:
  87              		.size	main, .-main
  88              		.section	.text.ISR_WriteSW1_Interrupt,"ax",%progbits
  89              		.align	2
  90              		.global	ISR_WriteSW1_Interrupt
  91              		.thumb
  92              		.thumb_func
  93              		.type	ISR_WriteSW1_Interrupt, %function
  94              	ISR_WriteSW1_Interrupt:
  95              	.LFB30:
  71:.\main.c      **** }
  72:.\main.c      **** 
ARM GAS  C:\Users\Heiwa\AppData\Local\Temp\ccRKcT3r.s 			page 4


  73:.\main.c      **** 
  74:.\main.c      **** 
  75:.\main.c      **** 
  76:.\main.c      **** 
  77:.\main.c      **** /*******************************************************************************
  78:.\main.c      **** * Function Name: ISR_WriteSW1_Interrupt
  79:.\main.c      **** ********************************************************************************
  80:.\main.c      **** * Summary:
  81:.\main.c      **** *  The Interrupt Service Routine for SW1 event.
  82:.\main.c      **** *
  83:.\main.c      **** * Parameters:
  84:.\main.c      **** *  None
  85:.\main.c      **** *
  86:.\main.c      **** * Return:
  87:.\main.c      **** *  None
  88:.\main.c      **** *
  89:.\main.c      **** *******************************************************************************/
  90:.\main.c      **** CY_ISR(ISR_WriteSW1_Interrupt)
  91:.\main.c      **** {
  96              		.loc 1 91 0
  97              		.cfi_startproc
  98              		@ args = 0, pretend = 0, frame = 0
  99              		@ frame_needed = 1, uses_anonymous_args = 0
 100 0000 80B5     		push	{r7, lr}
 101              	.LCFI2:
 102              		.cfi_def_cfa_offset 8
 103 0002 00AF     		add	r7, sp, #0
 104              		.cfi_offset 14, -4
 105              		.cfi_offset 7, -8
 106              	.LCFI3:
 107              		.cfi_def_cfa_register 7
  92:.\main.c      ****     /* Clear pin interrupt request bit */
  93:.\main.c      ****     SW1_Write_ClearInterrupt();
 108              		.loc 1 93 0
 109 0004 FFF7FEFF 		bl	SW1_Write_ClearInterrupt
  94:.\main.c      **** 
  95:.\main.c      ****     /* Select read action */
  96:.\main.c      ****     actionSelect = ACTION_SELECT_WRITE;
 110              		.loc 1 96 0
 111 0008 40F20003 		movw	r3, #:lower16:actionSelect
 112 000c C0F20003 		movt	r3, #:upper16:actionSelect
 113 0010 4FF00102 		mov	r2, #1
 114 0014 1A70     		strb	r2, [r3, #0]
  97:.\main.c      **** }
 115              		.loc 1 97 0
 116 0016 80BD     		pop	{r7, pc}
 117              		.cfi_endproc
 118              	.LFE30:
 119              		.size	ISR_WriteSW1_Interrupt, .-ISR_WriteSW1_Interrupt
 120              		.section	.text.ISR_ReadSW2_Interrupt,"ax",%progbits
 121              		.align	2
 122              		.global	ISR_ReadSW2_Interrupt
 123              		.thumb
 124              		.thumb_func
 125              		.type	ISR_ReadSW2_Interrupt, %function
 126              	ISR_ReadSW2_Interrupt:
 127              	.LFB31:
ARM GAS  C:\Users\Heiwa\AppData\Local\Temp\ccRKcT3r.s 			page 5


  98:.\main.c      **** 
  99:.\main.c      **** 
 100:.\main.c      **** /*******************************************************************************
 101:.\main.c      **** * Function Name: ISR_ReadSW2_Interrupt
 102:.\main.c      **** ********************************************************************************
 103:.\main.c      **** * Summary:
 104:.\main.c      **** *  The Interrupt Service Routine for SW2 event.
 105:.\main.c      **** *
 106:.\main.c      **** * Parameters:
 107:.\main.c      **** *  None
 108:.\main.c      **** *
 109:.\main.c      **** * Return:
 110:.\main.c      **** *  None
 111:.\main.c      **** *
 112:.\main.c      **** *******************************************************************************/
 113:.\main.c      **** CY_ISR(ISR_ReadSW2_Interrupt)
 114:.\main.c      **** {
 128              		.loc 1 114 0
 129              		.cfi_startproc
 130              		@ args = 0, pretend = 0, frame = 0
 131              		@ frame_needed = 1, uses_anonymous_args = 0
 132 0000 80B5     		push	{r7, lr}
 133              	.LCFI4:
 134              		.cfi_def_cfa_offset 8
 135 0002 00AF     		add	r7, sp, #0
 136              		.cfi_offset 14, -4
 137              		.cfi_offset 7, -8
 138              	.LCFI5:
 139              		.cfi_def_cfa_register 7
 115:.\main.c      ****     /* Clear pin interrupt request bit */
 116:.\main.c      ****     SW2_Read_ClearInterrupt();
 140              		.loc 1 116 0
 141 0004 FFF7FEFF 		bl	SW2_Read_ClearInterrupt
 117:.\main.c      **** 
 118:.\main.c      ****     /* Select read action */
 119:.\main.c      ****     actionSelect = ACTION_SELECT_READ;
 142              		.loc 1 119 0
 143 0008 40F20003 		movw	r3, #:lower16:actionSelect
 144 000c C0F20003 		movt	r3, #:upper16:actionSelect
 145 0010 4FF00202 		mov	r2, #2
 146 0014 1A70     		strb	r2, [r3, #0]
 120:.\main.c      **** }
 147              		.loc 1 120 0
 148 0016 80BD     		pop	{r7, pc}
 149              		.cfi_endproc
 150              	.LFE31:
 151              		.size	ISR_ReadSW2_Interrupt, .-ISR_ReadSW2_Interrupt
 152              		.text
 153              	.Letext0: