ARM GAS  C:\Users\Heiwa\AppData\Local\Temp\ccoUhhKf.s 			page 1


   1              		.syntax unified
   2              		.cpu cortex-m3
   3              		.fpu softvfp
   4              		.eabi_attribute 20, 1
   5              		.eabi_attribute 21, 1
   6              		.eabi_attribute 23, 3
   7              		.eabi_attribute 24, 1
   8              		.eabi_attribute 25, 1
   9              		.eabi_attribute 26, 1
  10              		.eabi_attribute 30, 6
  11              		.eabi_attribute 18, 4
  12              		.thumb
  13              		.file	"SCL_EZI2C.c"
  20 0000 B0000000 		.text
  20      02006200 
  20      00000201 
  20      FB0E0D00 
  20      01010101 
  21              	.Ltext0:
  22              		.cfi_sections	.debug_frame
  23              		.section	.text.SCL_EZI2C_Write,"ax",%progbits
  24              		.align	2
  25              		.global	SCL_EZI2C_Write
  26              		.thumb
  27              		.thumb_func
  28              		.type	SCL_EZI2C_Write, %function
  29              	SCL_EZI2C_Write:
  30              	.LFB0:
  31              		.file 1 ".\\Generated_Source\\PSoC5\\SCL_EZI2C.c"
   1:.\Generated_Source\PSoC5/SCL_EZI2C.c **** /*******************************************************************************
   2:.\Generated_Source\PSoC5/SCL_EZI2C.c **** * File Name: SCL_EZI2C.c  
   3:.\Generated_Source\PSoC5/SCL_EZI2C.c **** * Version 1.70
   4:.\Generated_Source\PSoC5/SCL_EZI2C.c **** *
   5:.\Generated_Source\PSoC5/SCL_EZI2C.c **** * Description:
   6:.\Generated_Source\PSoC5/SCL_EZI2C.c **** *  This file contains API to enable firmware control of a Pins component.
   7:.\Generated_Source\PSoC5/SCL_EZI2C.c **** *
   8:.\Generated_Source\PSoC5/SCL_EZI2C.c **** * Note:
   9:.\Generated_Source\PSoC5/SCL_EZI2C.c **** *
  10:.\Generated_Source\PSoC5/SCL_EZI2C.c **** ********************************************************************************
  11:.\Generated_Source\PSoC5/SCL_EZI2C.c **** * Copyright 2008-2010, Cypress Semiconductor Corporation.  All rights reserved.
  12:.\Generated_Source\PSoC5/SCL_EZI2C.c **** * You may use this file only in accordance with the license, terms, conditions, 
  13:.\Generated_Source\PSoC5/SCL_EZI2C.c **** * disclaimers, and limitations in the end user license agreement accompanying 
  14:.\Generated_Source\PSoC5/SCL_EZI2C.c **** * the software package with which this file was provided.
  15:.\Generated_Source\PSoC5/SCL_EZI2C.c **** ********************************************************************************/
  16:.\Generated_Source\PSoC5/SCL_EZI2C.c **** 
  17:.\Generated_Source\PSoC5/SCL_EZI2C.c **** #include "cytypes.h"
  18:.\Generated_Source\PSoC5/SCL_EZI2C.c **** #include "SCL_EZI2C.h"
  19:.\Generated_Source\PSoC5/SCL_EZI2C.c **** 
  20:.\Generated_Source\PSoC5/SCL_EZI2C.c **** /* APIs are not generated for P15[7:6] */
  21:.\Generated_Source\PSoC5/SCL_EZI2C.c **** #if !(CY_PSOC5A &&\
  22:.\Generated_Source\PSoC5/SCL_EZI2C.c **** 	 SCL_EZI2C__PORT == 15 && (SCL_EZI2C__MASK & 0xC0))
ARM GAS  C:\Users\Heiwa\AppData\Local\Temp\ccoUhhKf.s 			page 2


  23:.\Generated_Source\PSoC5/SCL_EZI2C.c **** 
  24:.\Generated_Source\PSoC5/SCL_EZI2C.c **** /*******************************************************************************
  25:.\Generated_Source\PSoC5/SCL_EZI2C.c **** * Function Name: SCL_EZI2C_Write
  26:.\Generated_Source\PSoC5/SCL_EZI2C.c **** ********************************************************************************
  27:.\Generated_Source\PSoC5/SCL_EZI2C.c **** * Summary:
  28:.\Generated_Source\PSoC5/SCL_EZI2C.c **** *  Assign a new value to the digital port's data output register.  
  29:.\Generated_Source\PSoC5/SCL_EZI2C.c **** *
  30:.\Generated_Source\PSoC5/SCL_EZI2C.c **** * Parameters:  
  31:.\Generated_Source\PSoC5/SCL_EZI2C.c **** *  prtValue:  The value to be assigned to the Digital Port. 
  32:.\Generated_Source\PSoC5/SCL_EZI2C.c **** *
  33:.\Generated_Source\PSoC5/SCL_EZI2C.c **** * Return: 
  34:.\Generated_Source\PSoC5/SCL_EZI2C.c **** *  void 
  35:.\Generated_Source\PSoC5/SCL_EZI2C.c **** *  
  36:.\Generated_Source\PSoC5/SCL_EZI2C.c **** *******************************************************************************/
  37:.\Generated_Source\PSoC5/SCL_EZI2C.c **** void SCL_EZI2C_Write(uint8 value) 
  38:.\Generated_Source\PSoC5/SCL_EZI2C.c **** {
  32              		.loc 1 38 0
  33              		.cfi_startproc
  34              		@ args = 0, pretend = 0, frame = 16
  35              		@ frame_needed = 1, uses_anonymous_args = 0
  36              		@ link register save eliminated.
  37 0000 80B4     		push	{r7}
  38              	.LCFI0:
  39              		.cfi_def_cfa_offset 4
  40 0002 85B0     		sub	sp, sp, #20
  41              	.LCFI1:
  42              		.cfi_def_cfa_offset 24
  43 0004 00AF     		add	r7, sp, #0
  44              		.cfi_offset 7, -4
  45              	.LCFI2:
  46              		.cfi_def_cfa_register 7
  47 0006 0346     		mov	r3, r0
  48 0008 FB71     		strb	r3, [r7, #7]
  39:.\Generated_Source\PSoC5/SCL_EZI2C.c ****     uint8 staticBits = SCL_EZI2C_DR & ~SCL_EZI2C_MASK;
  49              		.loc 1 39 0
  50 000a 45F2C013 		movw	r3, #:lower16:1073762752
  51 000e C4F20003 		movt	r3, #:upper16:1073762752
  52 0012 1B78     		ldrb	r3, [r3, #0]
  53 0014 DBB2     		uxtb	r3, r3
  54 0016 23F00103 		bic	r3, r3, #1
  55 001a FB73     		strb	r3, [r7, #15]
  40:.\Generated_Source\PSoC5/SCL_EZI2C.c ****     SCL_EZI2C_DR = staticBits | ((value << SCL_EZI2C_SHIFT) & SCL_EZI2C_MASK);
  56              		.loc 1 40 0
  57 001c 45F2C013 		movw	r3, #:lower16:1073762752
  58 0020 C4F20003 		movt	r3, #:upper16:1073762752
  59 0024 FA79     		ldrb	r2, [r7, #7]	@ zero_extendqisi2
  60 0026 02F00102 		and	r2, r2, #1
  61 002a F97B     		ldrb	r1, [r7, #15]
  62 002c 42EA0102 		orr	r2, r2, r1
  63 0030 D2B2     		uxtb	r2, r2
  64 0032 1A70     		strb	r2, [r3, #0]
  41:.\Generated_Source\PSoC5/SCL_EZI2C.c **** }
  65              		.loc 1 41 0
  66 0034 07F11407 		add	r7, r7, #20
  67 0038 BD46     		mov	sp, r7
  68 003a 80BC     		pop	{r7}
  69 003c 7047     		bx	lr
ARM GAS  C:\Users\Heiwa\AppData\Local\Temp\ccoUhhKf.s 			page 3


  70              		.cfi_endproc
  71              	.LFE0:
  72              		.size	SCL_EZI2C_Write, .-SCL_EZI2C_Write
  73 003e 00BF     		.section	.text.SCL_EZI2C_SetDriveMode,"ax",%progbits
  74              		.align	2
  75              		.global	SCL_EZI2C_SetDriveMode
  76              		.thumb
  77              		.thumb_func
  78              		.type	SCL_EZI2C_SetDriveMode, %function
  79              	SCL_EZI2C_SetDriveMode:
  80              	.LFB1:
  42:.\Generated_Source\PSoC5/SCL_EZI2C.c **** 
  43:.\Generated_Source\PSoC5/SCL_EZI2C.c **** 
  44:.\Generated_Source\PSoC5/SCL_EZI2C.c **** /*******************************************************************************
  45:.\Generated_Source\PSoC5/SCL_EZI2C.c **** * Function Name: SCL_EZI2C_SetDriveMode
  46:.\Generated_Source\PSoC5/SCL_EZI2C.c **** ********************************************************************************
  47:.\Generated_Source\PSoC5/SCL_EZI2C.c **** * Summary:
  48:.\Generated_Source\PSoC5/SCL_EZI2C.c **** *  Change the drive mode on the pins of the port.
  49:.\Generated_Source\PSoC5/SCL_EZI2C.c **** * 
  50:.\Generated_Source\PSoC5/SCL_EZI2C.c **** * Parameters:  
  51:.\Generated_Source\PSoC5/SCL_EZI2C.c **** *  mode:  Change the pins to this drive mode.
  52:.\Generated_Source\PSoC5/SCL_EZI2C.c **** *
  53:.\Generated_Source\PSoC5/SCL_EZI2C.c **** * Return: 
  54:.\Generated_Source\PSoC5/SCL_EZI2C.c **** *  void
  55:.\Generated_Source\PSoC5/SCL_EZI2C.c **** *
  56:.\Generated_Source\PSoC5/SCL_EZI2C.c **** *******************************************************************************/
  57:.\Generated_Source\PSoC5/SCL_EZI2C.c **** void SCL_EZI2C_SetDriveMode(uint8 mode) 
  58:.\Generated_Source\PSoC5/SCL_EZI2C.c **** {
  81              		.loc 1 58 0
  82              		.cfi_startproc
  83              		@ args = 0, pretend = 0, frame = 8
  84              		@ frame_needed = 1, uses_anonymous_args = 0
  85              		@ link register save eliminated.
  86 0000 80B4     		push	{r7}
  87              	.LCFI3:
  88              		.cfi_def_cfa_offset 4
  89 0002 83B0     		sub	sp, sp, #12
  90              	.LCFI4:
  91              		.cfi_def_cfa_offset 16
  92 0004 00AF     		add	r7, sp, #0
  93              		.cfi_offset 7, -4
  94              	.LCFI5:
  95              		.cfi_def_cfa_register 7
  96 0006 0346     		mov	r3, r0
  97 0008 FB71     		strb	r3, [r7, #7]
  59:.\Generated_Source\PSoC5/SCL_EZI2C.c **** 	CyPins_SetPinDriveMode(SCL_EZI2C_0, mode);
  98              		.loc 1 59 0
  99 000a 45F26003 		movw	r3, #:lower16:1073762400
 100 000e C4F20003 		movt	r3, #:upper16:1073762400
 101 0012 45F26002 		movw	r2, #:lower16:1073762400
 102 0016 C4F20002 		movt	r2, #:upper16:1073762400
 103 001a 1278     		ldrb	r2, [r2, #0]
 104 001c D2B2     		uxtb	r2, r2
 105 001e 1146     		mov	r1, r2
 106 0020 01F0F101 		and	r1, r1, #241
 107 0024 FA79     		ldrb	r2, [r7, #7]	@ zero_extendqisi2
 108 0026 02F00E02 		and	r2, r2, #14
ARM GAS  C:\Users\Heiwa\AppData\Local\Temp\ccoUhhKf.s 			page 4


 109 002a 41EA0202 		orr	r2, r1, r2
 110 002e D2B2     		uxtb	r2, r2
 111 0030 1A70     		strb	r2, [r3, #0]
  60:.\Generated_Source\PSoC5/SCL_EZI2C.c **** }
 112              		.loc 1 60 0
 113 0032 07F10C07 		add	r7, r7, #12
 114 0036 BD46     		mov	sp, r7
 115 0038 80BC     		pop	{r7}
 116 003a 7047     		bx	lr
 117              		.cfi_endproc
 118              	.LFE1:
 119              		.size	SCL_EZI2C_SetDriveMode, .-SCL_EZI2C_SetDriveMode
 120              		.section	.text.SCL_EZI2C_Read,"ax",%progbits
 121              		.align	2
 122              		.global	SCL_EZI2C_Read
 123              		.thumb
 124              		.thumb_func
 125              		.type	SCL_EZI2C_Read, %function
 126              	SCL_EZI2C_Read:
 127              	.LFB2:
  61:.\Generated_Source\PSoC5/SCL_EZI2C.c **** 
  62:.\Generated_Source\PSoC5/SCL_EZI2C.c **** 
  63:.\Generated_Source\PSoC5/SCL_EZI2C.c **** /*******************************************************************************
  64:.\Generated_Source\PSoC5/SCL_EZI2C.c **** * Function Name: SCL_EZI2C_Read
  65:.\Generated_Source\PSoC5/SCL_EZI2C.c **** ********************************************************************************
  66:.\Generated_Source\PSoC5/SCL_EZI2C.c **** * Summary:
  67:.\Generated_Source\PSoC5/SCL_EZI2C.c **** *  Read the current value on the pins of the Digital Port in right justified 
  68:.\Generated_Source\PSoC5/SCL_EZI2C.c **** *  form.
  69:.\Generated_Source\PSoC5/SCL_EZI2C.c **** *
  70:.\Generated_Source\PSoC5/SCL_EZI2C.c **** * Parameters:  
  71:.\Generated_Source\PSoC5/SCL_EZI2C.c **** *  void 
  72:.\Generated_Source\PSoC5/SCL_EZI2C.c **** *
  73:.\Generated_Source\PSoC5/SCL_EZI2C.c **** * Return: 
  74:.\Generated_Source\PSoC5/SCL_EZI2C.c **** *  Returns the current value of the Digital Port as a right justified number
  75:.\Generated_Source\PSoC5/SCL_EZI2C.c **** *  
  76:.\Generated_Source\PSoC5/SCL_EZI2C.c **** * Note:
  77:.\Generated_Source\PSoC5/SCL_EZI2C.c **** *  Macro SCL_EZI2C_ReadPS calls this function. 
  78:.\Generated_Source\PSoC5/SCL_EZI2C.c **** *  
  79:.\Generated_Source\PSoC5/SCL_EZI2C.c **** *******************************************************************************/
  80:.\Generated_Source\PSoC5/SCL_EZI2C.c **** uint8 SCL_EZI2C_Read(void) 
  81:.\Generated_Source\PSoC5/SCL_EZI2C.c **** {
 128              		.loc 1 81 0
 129              		.cfi_startproc
 130              		@ args = 0, pretend = 0, frame = 0
 131              		@ frame_needed = 1, uses_anonymous_args = 0
 132              		@ link register save eliminated.
 133 0000 80B4     		push	{r7}
 134              	.LCFI6:
 135              		.cfi_def_cfa_offset 4
 136 0002 00AF     		add	r7, sp, #0
 137              		.cfi_offset 7, -4
 138              	.LCFI7:
 139              		.cfi_def_cfa_register 7
  82:.\Generated_Source\PSoC5/SCL_EZI2C.c ****     return (SCL_EZI2C_PS & SCL_EZI2C_MASK) >> SCL_EZI2C_SHIFT;
 140              		.loc 1 82 0
 141 0004 45F2C113 		movw	r3, #:lower16:1073762753
 142 0008 C4F20003 		movt	r3, #:upper16:1073762753
ARM GAS  C:\Users\Heiwa\AppData\Local\Temp\ccoUhhKf.s 			page 5


 143 000c 1B78     		ldrb	r3, [r3, #0]
 144 000e DBB2     		uxtb	r3, r3
 145 0010 03F00103 		and	r3, r3, #1
  83:.\Generated_Source\PSoC5/SCL_EZI2C.c **** }
 146              		.loc 1 83 0
 147 0014 1846     		mov	r0, r3
 148 0016 BD46     		mov	sp, r7
 149 0018 80BC     		pop	{r7}
 150 001a 7047     		bx	lr
 151              		.cfi_endproc
 152              	.LFE2:
 153              		.size	SCL_EZI2C_Read, .-SCL_EZI2C_Read
 154              		.section	.text.SCL_EZI2C_ReadDataReg,"ax",%progbits
 155              		.align	2
 156              		.global	SCL_EZI2C_ReadDataReg
 157              		.thumb
 158              		.thumb_func
 159              		.type	SCL_EZI2C_ReadDataReg, %function
 160              	SCL_EZI2C_ReadDataReg:
 161              	.LFB3:
  84:.\Generated_Source\PSoC5/SCL_EZI2C.c **** 
  85:.\Generated_Source\PSoC5/SCL_EZI2C.c **** 
  86:.\Generated_Source\PSoC5/SCL_EZI2C.c **** /*******************************************************************************
  87:.\Generated_Source\PSoC5/SCL_EZI2C.c **** * Function Name: SCL_EZI2C_ReadDataReg
  88:.\Generated_Source\PSoC5/SCL_EZI2C.c **** ********************************************************************************
  89:.\Generated_Source\PSoC5/SCL_EZI2C.c **** * Summary:
  90:.\Generated_Source\PSoC5/SCL_EZI2C.c **** *  Read the current value assigned to a Digital Port's data output register
  91:.\Generated_Source\PSoC5/SCL_EZI2C.c **** *
  92:.\Generated_Source\PSoC5/SCL_EZI2C.c **** * Parameters:  
  93:.\Generated_Source\PSoC5/SCL_EZI2C.c **** *  void 
  94:.\Generated_Source\PSoC5/SCL_EZI2C.c **** *
  95:.\Generated_Source\PSoC5/SCL_EZI2C.c **** * Return: 
  96:.\Generated_Source\PSoC5/SCL_EZI2C.c **** *  Returns the current value assigned to the Digital Port's data output register
  97:.\Generated_Source\PSoC5/SCL_EZI2C.c **** *  
  98:.\Generated_Source\PSoC5/SCL_EZI2C.c **** *******************************************************************************/
  99:.\Generated_Source\PSoC5/SCL_EZI2C.c **** uint8 SCL_EZI2C_ReadDataReg(void) 
 100:.\Generated_Source\PSoC5/SCL_EZI2C.c **** {
 162              		.loc 1 100 0
 163              		.cfi_startproc
 164              		@ args = 0, pretend = 0, frame = 0
 165              		@ frame_needed = 1, uses_anonymous_args = 0
 166              		@ link register save eliminated.
 167 0000 80B4     		push	{r7}
 168              	.LCFI8:
 169              		.cfi_def_cfa_offset 4
 170 0002 00AF     		add	r7, sp, #0
 171              		.cfi_offset 7, -4
 172              	.LCFI9:
 173              		.cfi_def_cfa_register 7
 101:.\Generated_Source\PSoC5/SCL_EZI2C.c ****     return (SCL_EZI2C_DR & SCL_EZI2C_MASK) >> SCL_EZI2C_SHIFT;
 174              		.loc 1 101 0
 175 0004 45F2C013 		movw	r3, #:lower16:1073762752
 176 0008 C4F20003 		movt	r3, #:upper16:1073762752
 177 000c 1B78     		ldrb	r3, [r3, #0]
 178 000e DBB2     		uxtb	r3, r3
 179 0010 03F00103 		and	r3, r3, #1
 102:.\Generated_Source\PSoC5/SCL_EZI2C.c **** }
ARM GAS  C:\Users\Heiwa\AppData\Local\Temp\ccoUhhKf.s 			page 6


 180              		.loc 1 102 0
 181 0014 1846     		mov	r0, r3
 182 0016 BD46     		mov	sp, r7
 183 0018 80BC     		pop	{r7}
 184 001a 7047     		bx	lr
 185              		.cfi_endproc
 186              	.LFE3:
 187              		.size	SCL_EZI2C_ReadDataReg, .-SCL_EZI2C_ReadDataReg
 188              		.text
 189              	.Letext0: